GAS LISTING C:\Users\jean\AppData\Local\Temp\ccYuJGmF.s 			page 1


   1              		.file	"chdynamic.c"
   2              		.section	".text","axv"
   3              	.Ltext0:
   4              		.cfi_sections	.debug_frame
   5              		.section	.text.chThdAddRef,"axv",@progbits
   6              		.align 1
   7              		.p2align 4,,15
   8              		.globl chThdAddRef
   9              		.type	chThdAddRef, @function
  10              	chThdAddRef:
  11              	.LFB15:
  12              		.file 1 "./components/chibios_rt_portable_kernel_component/lib/src/chdynamic.c"
  13              		.loc 1 52 0
  14              		.cfi_startproc
  15              	.LVL0:
  16              	.LBB24:
  17              	.LBB25:
  18              		.file 2 "./components/chibios_rt_portable_kernel_component/lib/include/chsys.h"
  19              		.loc 2 149 0
  20              	 # 149 "./components/chibios_rt_portable_kernel_component/lib/include/chsys.h" 1
  21 0000 7C000146 		wrteei  0
  22              	 # 0 "" 2
  23              	.LBE25:
  24              	.LBE24:
  25              		.loc 1 56 0
  26 0004 3123001E 		e_lbz %r9,30(%r3)
  27 0008 19298001 		e_addi %r9,%r9,1
  28 000c 3523001E 		e_stb %r9,30(%r3)
  29              	.LBB26:
  30              	.LBB27:
  31              		.loc 2 164 0
  32              	 # 164 "./components/chibios_rt_portable_kernel_component/lib/include/chsys.h" 1
  33 0010 7C008146 		wrteei  1
  34              	 # 0 "" 2
  35              	.LBE27:
  36              	.LBE26:
  37              		.loc 1 59 0
  38 0014 0004     		se_blr
  39              		.cfi_endproc
  40              	.LFE15:
  41              		.size	chThdAddRef, .-chThdAddRef
  42              		.section	.text.chThdRelease,"axv",@progbits
  43              		.align 1
  44              		.p2align 4,,15
  45              		.globl chThdRelease
  46              		.type	chThdRelease, @function
  47              	chThdRelease:
  48              	.LFB16:
  49              		.loc 1 74 0
  50              		.cfi_startproc
  51              	.LVL1:
  52              		.loc 1 74 0
  53 0000 0134     		se_mr %r4,%r3
  54              	.LBB28:
  55              	.LBB29:
  56              		.loc 2 149 0
  57              	 # 149 "./components/chibios_rt_portable_kernel_component/lib/include/chsys.h" 1
GAS LISTING C:\Users\jean\AppData\Local\Temp\ccYuJGmF.s 			page 2


  58 0002 7C000146 		wrteei  0
  59              	 # 0 "" 2
  60              	.LBE29:
  61              	.LBE28:
  62              		.loc 1 79 0
  63 0006 3123001E 		e_lbz %r9,30(%r3)
  64 000a 192984FF 		e_addi %r9,%r9,-1
  65 000e 7529063F 		e_rlwinm %r9,%r9,0,0xff
  66 0012 3523001E 		e_stb %r9,30(%r3)
  67              	.LVL2:
  68              		.loc 1 84 0
  69 0016 1829A800 		e_cmpi %cr1,%r9,0
  70 001a 7A060010 		e_bne %cr1,.L3
  71              		.loc 1 84 0 is_stmt 0 discriminator 1
  72 001e 3123001C 		e_lbz %r9,28(%r3)
  73              	.LVL3:
  74 0022 1829A80E 		e_cmpi %cr1,%r9,14
  75 0026 7A16000A 		e_beq %cr1,.L10
  76              	.L3:
  77              	.LBB30:
  78              	.LBB31:
  79              		.loc 2 164 0 is_stmt 1
  80              	 # 164 "./components/chibios_rt_portable_kernel_component/lib/include/chsys.h" 1
  81 002a 7C008146 		wrteei  1
  82              	 # 0 "" 2
  83 002e 0004     		se_blr
  84              	.L10:
  85              	.LBE31:
  86              	.LBE30:
  87              		.loc 1 85 0
  88 0030 3123001D 		e_lbz %r9,29(%r3)
  89 0034 1929C003 		e_andi %r9,%r9,3
  90 0038 1829A801 		e_cmpi %cr1,%r9,1
  91 003c 7A16002C 		e_beq %cr1,.L5
  92 0040 1829A802 		e_cmpi %cr1,%r9,2
  93 0044 7A06FFE6 		e_bne %cr1,.L3
  94              		.loc 1 98 0
  95 0048 51430010 		e_lwz %r10,16(%r3)
  96 004c 51230014 		e_lwz %r9,20(%r3)
  97 0050 55490010 		e_stw %r10,16(%r9)
  98 0054 51430010 		e_lwz %r10,16(%r3)
  99 0058 552A0014 		e_stw %r9,20(%r10)
 100              	.LBB32:
 101              	.LBB33:
 102              		.loc 2 164 0
 103              	 # 164 "./components/chibios_rt_portable_kernel_component/lib/include/chsys.h" 1
 104 005c 7C008146 		wrteei  1
 105              	 # 0 "" 2
 106              	.LBE33:
 107              	.LBE32:
 108              		.loc 1 101 0
 109 0060 50630044 		e_lwz %r3,68(%r3)
 110              	.LVL4:
 111              		.loc 1 110 0
 112              		.loc 1 101 0
 113 0064 78000000 		e_b chPoolFree
 114              	.LVL5:
GAS LISTING C:\Users\jean\AppData\Local\Temp\ccYuJGmF.s 			page 3


 115              	.L5:
 116              		.loc 1 89 0
 117 0068 51430010 		e_lwz %r10,16(%r3)
 118 006c 51230014 		e_lwz %r9,20(%r3)
 119 0070 55490010 		e_stw %r10,16(%r9)
 120 0074 51430010 		e_lwz %r10,16(%r3)
 121 0078 552A0014 		e_stw %r9,20(%r10)
 122              	.LBB34:
 123              	.LBB35:
 124              		.loc 2 164 0
 125              	 # 164 "./components/chibios_rt_portable_kernel_component/lib/include/chsys.h" 1
 126 007c 7C008146 		wrteei  1
 127              	 # 0 "" 2
 128              	.LBE35:
 129              	.LBE34:
 130              		.loc 1 110 0
 131              		.loc 1 92 0
 132 0080 78000000 		e_b chHeapFree
 133              	.LVL6:
 134              		.cfi_endproc
 135              	.LFE16:
 136              		.size	chThdRelease, .-chThdRelease
 137              		.section	.text.chThdCreateFromHeap,"axv",@progbits
 138              		.align 1
 139              		.p2align 4,,15
 140              		.globl chThdCreateFromHeap
 141              		.type	chThdCreateFromHeap, @function
 142              	chThdCreateFromHeap:
 143              	.LFB17:
 144              		.loc 1 136 0
 145              		.cfi_startproc
 146              	.LVL7:
 147 0000 182106E8 		e_stwu %r1,-24(%r1)
 148              	.LCFI0:
 149              		.cfi_def_cfa_offset 24
 150 0004 0080     		se_mflr %r0
 151 0006 1B810908 		e_stmw %r28,8(%r1)
 152 000a D701     		se_stw %r0,28(%r1)
 153              		.cfi_offset 65, 4
 154              		.cfi_offset 28, -16
 155              		.cfi_offset 29, -12
 156              		.cfi_offset 30, -8
 157              		.cfi_offset 31, -4
 158              		.loc 1 136 0
 159 000c 014C     		se_mr %r28,%r4
 160 000e 015D     		se_mr %r29,%r5
 161 0010 016E     		se_mr %r30,%r6
 162 0012 017F     		se_mr %r31,%r7
 163              		.loc 1 140 0
 164 0014 78000001 		e_bl chHeapAlloc
 165              	.LVL8:
 166              		.loc 1 141 0
 167 0018 1823A800 		e_cmpi %cr1,%r3,0
 168 001c 7A160036 		e_beq %cr1,.L13
 169              	.LBB36:
 170              	.LBB37:
 171              		.loc 2 149 0
GAS LISTING C:\Users\jean\AppData\Local\Temp\ccYuJGmF.s 			page 4


 172              	 # 149 "./components/chibios_rt_portable_kernel_component/lib/include/chsys.h" 1
 173 0020 7C000146 		wrteei  0
 174              	 # 0 "" 2
 175              	.LBE37:
 176              	.LBE36:
 177              		.loc 1 154 0
 178 0024 01F7     		se_mr %r7,%r31
 179 0026 01C4     		se_mr %r4,%r28
 180 0028 01D5     		se_mr %r5,%r29
 181 002a 01E6     		se_mr %r6,%r30
 182 002c 78000001 		e_bl chThdCreateI
 183              	.LVL9:
 184              		.loc 1 155 0
 185 0030 71200001 		e_li %r9,1
 186              		.loc 1 154 0
 187 0034 013F     		se_mr %r31,%r3
 188              	.LVL10:
 189              		.loc 1 156 0
 190 0036 4804     		se_li %r4,0
 191              		.loc 1 155 0
 192 0038 3523001D 		e_stb %r9,29(%r3)
 193              		.loc 1 156 0
 194 003c 78000001 		e_bl chSchWakeupS
 195              	.LVL11:
 196              	.LBB38:
 197              	.LBB39:
 198              		.loc 2 164 0
 199              	 # 164 "./components/chibios_rt_portable_kernel_component/lib/include/chsys.h" 1
 200 0040 7C008146 		wrteei  1
 201              	 # 0 "" 2
 202              	.LBE39:
 203              	.LBE38:
 204              		.loc 1 158 0
 205 0044 01F3     		se_mr %r3,%r31
 206              	.LVL12:
 207              	.L12:
 208              		.loc 1 159 0
 209 0046 C701     		se_lwz %r0,28(%r1)
 210 0048 0090     		se_mtlr %r0
 211              		.cfi_remember_state
 212              		.cfi_restore 65
 213 004a 1B810808 		e_lmw %r28,8(%r1)
 214              	.LVL13:
 215 004e 2171     		se_addi %r1,24
 216              	.LCFI1:
 217              		.cfi_restore 31
 218              		.cfi_restore 30
 219              		.cfi_restore 29
 220              		.cfi_restore 28
 221              		.cfi_def_cfa_offset 0
 222 0050 0004     		se_blr
 223              	.LVL14:
 224              	.L13:
 225              	.LCFI2:
 226              		.cfi_restore_state
 227              		.loc 1 142 0
 228 0052 4803     		se_li %r3,0
GAS LISTING C:\Users\jean\AppData\Local\Temp\ccYuJGmF.s 			page 5


 229              	.LVL15:
 230 0054 79FFFFF2 		e_b .L12
 231              		.cfi_endproc
 232              	.LFE17:
 233              		.size	chThdCreateFromHeap, .-chThdCreateFromHeap
 234              		.section	.text.chThdCreateFromMemoryPool,"axv",@progbits
 235              		.align 1
 236              		.p2align 4,,15
 237              		.globl chThdCreateFromMemoryPool
 238              		.type	chThdCreateFromMemoryPool, @function
 239              	chThdCreateFromMemoryPool:
 240              	.LFB18:
 241              		.loc 1 185 0
 242              		.cfi_startproc
 243              	.LVL16:
 244 0000 182106E8 		e_stwu %r1,-24(%r1)
 245              	.LCFI3:
 246              		.cfi_def_cfa_offset 24
 247 0004 0080     		se_mflr %r0
 248 0006 1B810908 		e_stmw %r28,8(%r1)
 249 000a D701     		se_stw %r0,28(%r1)
 250              		.cfi_offset 65, 4
 251              		.cfi_offset 28, -16
 252              		.cfi_offset 29, -12
 253              		.cfi_offset 30, -8
 254              		.cfi_offset 31, -4
 255              		.loc 1 185 0
 256 000c 013E     		se_mr %r30,%r3
 257 000e 014C     		se_mr %r28,%r4
 258 0010 015D     		se_mr %r29,%r5
 259 0012 016F     		se_mr %r31,%r6
 260              		.loc 1 191 0
 261 0014 78000001 		e_bl chPoolAlloc
 262              	.LVL17:
 263              		.loc 1 192 0
 264 0018 1823A800 		e_cmpi %cr1,%r3,0
 265 001c 7A16003A 		e_beq %cr1,.L16
 266              	.LBB40:
 267              	.LBB41:
 268              		.loc 2 149 0
 269              	 # 149 "./components/chibios_rt_portable_kernel_component/lib/include/chsys.h" 1
 270 0020 7C000146 		wrteei  0
 271              	 # 0 "" 2
 272              	.LBE41:
 273              	.LBE40:
 274              		.loc 1 205 0
 275 0024 01F7     		se_mr %r7,%r31
 276 0026 C14E     		se_lwz %r4,4(%r30)
 277 0028 01C5     		se_mr %r5,%r28
 278 002a 01D6     		se_mr %r6,%r29
 279 002c 78000001 		e_bl chThdCreateI
 280              	.LVL18:
 281              		.loc 1 206 0
 282 0030 71200002 		e_li %r9,2
 283              		.loc 1 205 0
 284 0034 013F     		se_mr %r31,%r3
 285              	.LVL19:
GAS LISTING C:\Users\jean\AppData\Local\Temp\ccYuJGmF.s 			page 6


 286              		.loc 1 207 0
 287 0036 57C30044 		e_stw %r30,68(%r3)
 288              		.loc 1 206 0
 289 003a 3523001D 		e_stb %r9,29(%r3)
 290              		.loc 1 208 0
 291 003e 4804     		se_li %r4,0
 292 0040 78000001 		e_bl chSchWakeupS
 293              	.LVL20:
 294              	.LBB42:
 295              	.LBB43:
 296              		.loc 2 164 0
 297              	 # 164 "./components/chibios_rt_portable_kernel_component/lib/include/chsys.h" 1
 298 0044 7C008146 		wrteei  1
 299              	 # 0 "" 2
 300              	.LBE43:
 301              	.LBE42:
 302              		.loc 1 210 0
 303 0048 01F3     		se_mr %r3,%r31
 304              	.LVL21:
 305              	.L15:
 306              		.loc 1 211 0
 307 004a C701     		se_lwz %r0,28(%r1)
 308 004c 0090     		se_mtlr %r0
 309              		.cfi_remember_state
 310              		.cfi_restore 65
 311 004e 1B810808 		e_lmw %r28,8(%r1)
 312              	.LVL22:
 313 0052 2171     		se_addi %r1,24
 314              	.LCFI4:
 315              		.cfi_restore 31
 316              		.cfi_restore 30
 317              		.cfi_restore 29
 318              		.cfi_restore 28
 319              		.cfi_def_cfa_offset 0
 320 0054 0004     		se_blr
 321              	.LVL23:
 322              	.L16:
 323              	.LCFI5:
 324              		.cfi_restore_state
 325              		.loc 1 193 0
 326 0056 4803     		se_li %r3,0
 327              	.LVL24:
 328 0058 79FFFFF2 		e_b .L15
 329              		.cfi_endproc
 330              	.LFE18:
 331              		.size	chThdCreateFromMemoryPool, .-chThdCreateFromMemoryPool
 332              		.section	".text","axv"
 333              	.Letext0:
 334              		.file 3 "c:\\spc5studio\\eclipse\\plugins\\com.st.tools.spc5.tools.gnu.gcc.ppcvle.win32_1.0.0.2016
 335              		.file 4 "c:\\spc5studio\\eclipse\\plugins\\com.st.tools.spc5.tools.gnu.gcc.ppcvle.win32_1.0.0.2016
 336              		.file 5 "c:\\spc5studio\\eclipse\\plugins\\com.st.tools.spc5.tools.gnu.gcc.ppcvle.win32_1.0.0.2016
 337              		.file 6 "./components/chibios_rt_spc560dxx_kernel_port_component/lib/include/chtypes.h"
 338              		.file 7 "./components/chibios_rt_portable_kernel_component/lib/include/chlists.h"
 339              		.file 8 "./components/chibios_rt_portable_kernel_component/lib/include/chthreads.h"
 340              		.file 9 "./components/chibios_rt_spc560dxx_kernel_port_component/lib/include/chcore.h"
 341              		.file 10 "./components/chibios_rt_portable_kernel_component/lib/include/chmtx.h"
 342              		.file 11 "./components/chibios_rt_portable_kernel_component/lib/include/chmemcore.h"
GAS LISTING C:\Users\jean\AppData\Local\Temp\ccYuJGmF.s 			page 7


 343              		.file 12 "./components/chibios_rt_portable_kernel_component/lib/include/chheap.h"
 344              		.file 13 "./components/chibios_rt_portable_kernel_component/lib/include/chmempools.h"
 345              		.file 14 "./components/chibios_rt_portable_kernel_component/lib/include/chschd.h"