GAS LISTING C:\Users\jean\AppData\Local\Temp\ccZ4NIs0.s 			page 1


   1              		.file	"chheap.c"
   2              		.section	".text","axv"
   3              	.Ltext0:
   4              		.cfi_sections	.debug_frame
   5              		.section	.text._heap_init,"axv",@progbits
   6              		.align 1
   7              		.p2align 4,,15
   8              		.globl _heap_init
   9              		.type	_heap_init, @function
  10              	_heap_init:
  11              	.LFB15:
  12              		.file 1 "./components/chibios_rt_portable_kernel_component/lib/src/chheap.c"
  13              		.loc 1 75 0
  14              		.cfi_startproc
  15              		.loc 1 77 0
  16 0000 71200000 		e_li %r9,0
  17              		.loc 1 76 0
  18 0004 7140E000 		e_lis %r10,.LANCHOR0@ha
  19 0008 1C6A0000 		e_la %r3,.LANCHOR0@l(%r10)
  20              		.loc 1 77 0
  21 000c 55230008 		e_stw %r9,8(%r3)
  22              		.loc 1 78 0
  23 0010 5523000C 		e_stw %r9,12(%r3)
  24              		.loc 1 76 0
  25 0014 7120E000 		e_lis %r9,chCoreAlloc@ha
  26              		.loc 1 80 0
  27 0018 20F3     		se_addi %r3,16
  28              		.loc 1 76 0
  29 001a 1D290000 		e_la %r9,chCoreAlloc@l(%r9)
  30              		.loc 1 84 0
  31              		.loc 1 76 0
  32 001e 552A0000 		e_stw %r9,.LANCHOR0@l(%r10)
  33              		.loc 1 80 0
  34 0022 78000000 		e_b chMtxInit
  35              	.LVL0:
  36              		.cfi_endproc
  37              	.LFE15:
  38              		.size	_heap_init, .-_heap_init
  39              		.section	.text.chHeapInit,"axv",@progbits
  40              		.align 1
  41              		.p2align 4,,15
  42              		.globl chHeapInit
  43              		.type	chHeapInit, @function
  44              	chHeapInit:
  45              	.LFB16:
  46              		.loc 1 99 0
  47              		.cfi_startproc
  48              	.LVL1:
  49              		.loc 1 105 0
  50 0000 D243     		se_stw %r4,8(%r3)
  51              		.loc 1 104 0
  52 0002 71200000 		e_li %r9,0
  53              		.loc 1 108 0
  54 0006 18A584F8 		e_addi %r5,%r5,-8
  55              	.LVL2:
  56              		.loc 1 104 0
  57 000a 55230000 		e_stw %r9,0(%r3)
GAS LISTING C:\Users\jean\AppData\Local\Temp\ccZ4NIs0.s 			page 2


  58              	.LVL3:
  59              		.loc 1 106 0
  60 000e 5523000C 		e_stw %r9,12(%r3)
  61              		.loc 1 107 0
  62 0012 55240000 		e_stw %r9,0(%r4)
  63              		.loc 1 108 0
  64 0016 D154     		se_stw %r5,4(%r4)
  65              		.loc 1 110 0
  66 0018 20F3     		se_addi %r3,16
  67              	.LVL4:
  68              		.loc 1 114 0
  69              		.loc 1 110 0
  70 001a 78000000 		e_b chMtxInit
  71              	.LVL5:
  72              		.cfi_endproc
  73              	.LFE16:
  74              		.size	chHeapInit, .-chHeapInit
  75              		.section	.text.chHeapAlloc,"axv",@progbits
  76              		.align 1
  77              		.p2align 4,,15
  78              		.globl chHeapAlloc
  79              		.type	chHeapAlloc, @function
  80              	chHeapAlloc:
  81              	.LFB17:
  82              		.loc 1 132 0
  83              		.cfi_startproc
  84              	.LVL6:
  85 0000 182106E8 		e_stwu %r1,-24(%r1)
  86              	.LCFI0:
  87              		.cfi_def_cfa_offset 24
  88 0004 0080     		se_mflr %r0
  89 0006 1B810908 		e_stmw %r28,8(%r1)
  90 000a D701     		se_stw %r0,28(%r1)
  91              		.cfi_offset 65, 4
  92              		.cfi_offset 28, -16
  93              		.cfi_offset 29, -12
  94              		.cfi_offset 30, -8
  95              		.cfi_offset 31, -4
  96              		.loc 1 135 0
  97 000c 013C     		se_mr %r28,%r3
  98 000e 2A0C     		se_cmpi %r28,0
  99 0010 7A1200A6 		e_beq %cr0,.L17
 100              	.L4:
 101              	.LVL7:
 102              		.loc 1 138 0
 103 0014 2064     		se_addi %r4,7
 104              	.LVL8:
 105              		.loc 1 139 0
 106 0016 1BDC8008 		e_addi %r30,%r28,8
 107              		.loc 1 138 0
 108 001a 189DC4F8 		e_andi %r29,%r4,-8
 109              	.LVL9:
 110              		.loc 1 140 0
 111 001e 187C8010 		e_addi %r3,%r28,16
 112 0022 78000001 		e_bl chMtxLock
 113              	.LVL10:
 114              		.loc 1 142 0
GAS LISTING C:\Users\jean\AppData\Local\Temp\ccZ4NIs0.s 			page 3


 115 0026 7800000E 		e_b .L5
 116              	.LVL11:
 117              	.L9:
 118              		.loc 1 144 0
 119 002a C17F     		se_lwz %r7,4(%r31)
 120 002c 0D7D     		se_cmpl %r29,%r7
 121 002e 7A010042 		e_ble %cr0,.L18
 122 0032 01FE     		se_mr %r30,%r31
 123              	.LVL12:
 124              	.L5:
 125              		.loc 1 142 0
 126 0034 C0FE     		se_lwz %r31,0(%r30)
 127              	.LVL13:
 128 0036 183FA800 		e_cmpi %cr1,%r31,0
 129 003a 7A06FFF0 		e_bne %cr1,.L9
 130              		.loc 1 167 0
 131 003e 78000001 		e_bl chMtxUnlock
 132              	.LVL14:
 133              		.loc 1 171 0
 134 0042 513C0000 		e_lwz %r9,0(%r28)
 135 0046 1829A800 		e_cmpi %cr1,%r9,0
 136 004a 7A160078 		e_beq %cr1,.L11
 137              		.loc 1 172 0
 138 004e 187D8008 		e_addi %r3,%r29,8
 139 0052 7D2903A6 		mtctr %r9
 140 0056 0007     		se_bctrl
 141              	.LVL15:
 142              		.loc 1 173 0
 143 0058 2A03     		se_cmpi %r3,0
 144 005a 7A120068 		e_beq %cr0,.L11
 145              		.loc 1 174 0
 146 005e D0C3     		se_stw %r28,0(%r3)
 147              		.loc 1 175 0
 148 0060 D1D3     		se_stw %r29,4(%r3)
 149              		.loc 1 176 0
 150 0062 2073     		se_addi %r3,8
 151              	.LVL16:
 152              	.L8:
 153              		.loc 1 181 0
 154 0064 C701     		se_lwz %r0,28(%r1)
 155 0066 0090     		se_mtlr %r0
 156              		.cfi_remember_state
 157              		.cfi_restore 65
 158 0068 1B810808 		e_lmw %r28,8(%r1)
 159              	.LVL17:
 160 006c 2171     		se_addi %r1,24
 161              	.LCFI1:
 162              		.cfi_restore 31
 163              		.cfi_restore 30
 164              		.cfi_restore 29
 165              		.cfi_restore 28
 166              		.cfi_def_cfa_offset 0
 167 006e 0004     		se_blr
 168              	.LVL18:
 169              	.L18:
 170              	.LCFI2:
 171              		.cfi_restore_state
GAS LISTING C:\Users\jean\AppData\Local\Temp\ccZ4NIs0.s 			page 4


 172              		.loc 1 145 0
 173 0070 18DD8008 		e_addi %r6,%r29,8
 174              		.loc 1 149 0
 175 0074 513F0000 		e_lwz %r9,0(%r31)
 176              		.loc 1 145 0
 177 0078 0D76     		se_cmpl %r6,%r7
 178 007a 7A01001E 		e_ble %cr0,.L6
 179              		.loc 1 149 0
 180 007e 553E0000 		e_stw %r9,0(%r30)
 181              	.L7:
 182              		.loc 1 159 0
 183 0082 D0CF     		se_stw %r28,0(%r31)
 184              		.loc 1 161 0
 185 0084 78000001 		e_bl chMtxUnlock
 186              	.LVL19:
 187              		.loc 1 181 0
 188 0088 C701     		se_lwz %r0,28(%r1)
 189 008a 0090     		se_mtlr %r0
 190              		.cfi_remember_state
 191              		.cfi_restore 65
 192              		.loc 1 162 0
 193 008c 187F8008 		e_addi %r3,%r31,8
 194              		.loc 1 181 0
 195 0090 1B810808 		e_lmw %r28,8(%r1)
 196              	.LVL20:
 197 0094 2171     		se_addi %r1,24
 198              	.LCFI3:
 199              		.cfi_restore 28
 200              		.cfi_restore 29
 201              		.cfi_restore 30
 202              		.cfi_restore 31
 203              		.cfi_def_cfa_offset 0
 204 0096 0004     		se_blr
 205              	.LVL21:
 206              	.L6:
 207              	.LCFI4:
 208              		.cfi_restore_state
 209              		.loc 1 154 0
 210 0098 7D3F312E 		stwx %r9,%r31,%r6
 211              		.loc 1 153 0
 212 009c 7D5F3214 		add %r10,%r31,%r6
 213              	.LVL22:
 214 00a0 193DB4F8 		e_subfic %r9, %r29, -8
 215              		.loc 1 155 0
 216 00a4 7CE93A14 		add %r7,%r9,%r7
 217 00a8 54EA0004 		e_stw %r7,4(%r10)
 218              		.loc 1 156 0
 219 00ac 555E0000 		e_stw %r10,0(%r30)
 220              		.loc 1 157 0
 221 00b0 D1DF     		se_stw %r29,4(%r31)
 222 00b2 79FFFFD0 		e_b .L7
 223              	.LVL23:
 224              	.L17:
 225              		.loc 1 136 0
 226 00b6 7380E000 		e_lis %r28,.LANCHOR0@ha
 227 00ba 1F9C0000 		e_la %r28,.LANCHOR0@l(%r28)
 228 00be 79FFFF56 		e_b .L4
GAS LISTING C:\Users\jean\AppData\Local\Temp\ccZ4NIs0.s 			page 5


 229              	.LVL24:
 230              	.L11:
 231              		.loc 1 180 0
 232 00c2 4803     		se_li %r3,0
 233 00c4 79FFFFA0 		e_b .L8
 234              		.cfi_endproc
 235              	.LFE17:
 236              		.size	chHeapAlloc, .-chHeapAlloc
 237              		.section	.text.chHeapFree,"axv",@progbits
 238              		.align 1
 239              		.p2align 4,,15
 240              		.globl chHeapFree
 241              		.type	chHeapFree, @function
 242              	chHeapFree:
 243              	.LFB18:
 244              		.loc 1 194 0
 245              		.cfi_startproc
 246              	.LVL25:
 247 0000 182106E8 		e_stwu %r1,-24(%r1)
 248              	.LCFI5:
 249              		.cfi_def_cfa_offset 24
 250 0004 0080     		se_mflr %r0
 251 0006 1BA1090C 		e_stmw %r29,12(%r1)
 252 000a D701     		se_stw %r0,28(%r1)
 253              		.cfi_offset 65, 4
 254              		.cfi_offset 29, -12
 255              		.cfi_offset 30, -8
 256              		.cfi_offset 31, -4
 257              		.loc 1 194 0
 258 000c 013D     		se_mr %r29,%r3
 259              		.loc 1 201 0
 260 000e 5063FFF8 		e_lwz %r3,-8(%r3)
 261              	.LVL26:
 262              		.loc 1 200 0
 263 0012 1BFD84F8 		e_addi %r31,%r29,-8
 264              	.LVL27:
 265              		.loc 1 202 0
 266 0016 1BC38008 		e_addi %r30,%r3,8
 267              	.LVL28:
 268              		.loc 1 203 0
 269 001a 20F3     		se_addi %r3,16
 270              	.LVL29:
 271 001c 78000001 		e_bl chMtxLock
 272              	.LVL30:
 273              		.loc 1 202 0
 274 0020 01E7     		se_mr %r7,%r30
 275              	.LVL31:
 276              	.L26:
 277              		.loc 1 210 0
 278 0022 0DE7     		se_cmpl %r7,%r30
 279 0024 7A120012 		e_beq %cr0,.L20
 280              	.L31:
 281              		.loc 1 210 0 is_stmt 0 discriminator 2
 282 0028 0DF7     		se_cmpl %r7,%r31
 283 002a 7A10000C 		e_blt %cr0,.L20
 284 002e C077     		se_lwz %r7,0(%r7)
 285              	.LVL32:
GAS LISTING C:\Users\jean\AppData\Local\Temp\ccZ4NIs0.s 			page 6


 286              		.loc 1 210 0
 287 0030 0DE7     		se_cmpl %r7,%r30
 288 0032 7A02FFF6 		e_bne %cr0,.L31
 289              	.L20:
 290              		.loc 1 211 0 is_stmt 1 discriminator 3
 291 0036 C067     		se_lwz %r6,0(%r7)
 292              		.loc 1 210 0 discriminator 3
 293 0038 1826A800 		e_cmpi %cr1,%r6,0
 294 003c 7A160010 		e_beq %cr1,.L22
 295              		.loc 1 211 0
 296 0040 0D6F     		se_cmpl %r31,%r6
 297 0042 7A10000A 		e_blt %cr0,.L22
 298 0046 0167     		se_mr %r7,%r6
 299              	.LVL33:
 300              		.loc 1 229 0
 301 0048 79FFFFDA 		e_b .L26
 302              	.LVL34:
 303              	.L22:
 304              		.loc 1 213 0
 305 004c 54DDFFF8 		e_stw %r6,-8(%r29)
 306              		.loc 1 216 0
 307 0050 513DFFFC 		e_lwz %r9,-4(%r29)
 308              		.loc 1 214 0
 309 0054 D0F7     		se_stw %r31,0(%r7)
 310              		.loc 1 216 0
 311 0056 19498008 		e_addi %r10,%r9,8
 312 005a 50DDFFF8 		e_lwz %r6,-8(%r29)
 313 005e 7CBF5214 		add %r5,%r31,%r10
 314 0062 0C65     		se_cmp %r5,%r6
 315 0064 7A120024 		e_beq %cr0,.L32
 316              		.loc 1 221 0
 317 0068 51270004 		e_lwz %r9,4(%r7)
 318 006c 18C98008 		e_addi %r6,%r9,8
 319 0070 7CC73214 		add %r6,%r7,%r6
 320 0074 0D6F     		se_cmpl %r31,%r6
 321 0076 7A12003C 		e_beq %cr0,.L33
 322              	.L25:
 323              		.loc 1 233 0
 324 007a C701     		se_lwz %r0,28(%r1)
 325 007c 1BA1080C 		e_lmw %r29,12(%r1)
 326              	.LVL35:
 327 0080 0090     		se_mtlr %r0
 328              		.cfi_remember_state
 329              		.cfi_restore 65
 330 0082 2171     		se_addi %r1,24
 331              	.LCFI6:
 332              		.cfi_restore 31
 333              		.cfi_restore 30
 334              		.cfi_restore 29
 335              		.cfi_def_cfa_offset 0
 336              		.loc 1 231 0
 337 0084 78000000 		e_b chMtxUnlock
 338              	.LVL36:
 339              	.L32:
 340              	.LCFI7:
 341              		.cfi_restore_state
 342              		.loc 1 218 0
GAS LISTING C:\Users\jean\AppData\Local\Temp\ccZ4NIs0.s 			page 7


 343 0088 51050004 		e_lwz %r8,4(%r5)
 344              		.loc 1 219 0
 345 008c 7D5F502E 		lwzx %r10,%r31,%r10
 346              		.loc 1 218 0
 347 0090 7D294214 		add %r9,%r9,%r8
 348              		.loc 1 219 0
 349 0094 555DFFF8 		e_stw %r10,-8(%r29)
 350              		.loc 1 218 0
 351 0098 19298008 		e_addi %r9,%r9,8
 352 009c 553DFFFC 		e_stw %r9,-4(%r29)
 353              		.loc 1 221 0
 354 00a0 51270004 		e_lwz %r9,4(%r7)
 355 00a4 18C98008 		e_addi %r6,%r9,8
 356 00a8 7CC73214 		add %r6,%r7,%r6
 357 00ac 0D6F     		se_cmpl %r31,%r6
 358 00ae 7A02FFCC 		e_bne %cr0,.L25
 359              	.L33:
 360              		.loc 1 223 0
 361 00b2 511DFFFC 		e_lwz %r8,-4(%r29)
 362              		.loc 1 224 0
 363 00b6 515DFFF8 		e_lwz %r10,-8(%r29)
 364              		.loc 1 223 0
 365 00ba 7D294214 		add %r9,%r9,%r8
 366              		.loc 1 224 0
 367 00be 55470000 		e_stw %r10,0(%r7)
 368              		.loc 1 223 0
 369 00c2 19298008 		e_addi %r9,%r9,8
 370 00c6 55270004 		e_stw %r9,4(%r7)
 371              		.loc 1 233 0
 372 00ca C701     		se_lwz %r0,28(%r1)
 373 00cc 1BA1080C 		e_lmw %r29,12(%r1)
 374              	.LVL37:
 375 00d0 0090     		se_mtlr %r0
 376              		.cfi_restore 65
 377 00d2 2171     		se_addi %r1,24
 378              	.LCFI8:
 379              		.cfi_restore 29
 380              		.cfi_restore 30
 381              		.cfi_restore 31
 382              		.cfi_def_cfa_offset 0
 383              		.loc 1 231 0
 384 00d4 78000000 		e_b chMtxUnlock
 385              	.LVL38:
 386              		.cfi_endproc
 387              	.LFE18:
 388              		.size	chHeapFree, .-chHeapFree
 389              		.section	.text.chHeapStatus,"axv",@progbits
 390              		.align 1
 391              		.p2align 4,,15
 392              		.globl chHeapStatus
 393              		.type	chHeapStatus, @function
 394              	chHeapStatus:
 395              	.LFB19:
 396              		.loc 1 250 0
 397              		.cfi_startproc
 398              	.LVL39:
 399 0000 182106F0 		e_stwu %r1,-16(%r1)
GAS LISTING C:\Users\jean\AppData\Local\Temp\ccZ4NIs0.s 			page 8


 400              	.LCFI9:
 401              		.cfi_def_cfa_offset 16
 402 0004 0080     		se_mflr %r0
 403 0006 1BC10908 		e_stmw %r30,8(%r1)
 404 000a D501     		se_stw %r0,20(%r1)
 405              		.cfi_offset 65, 4
 406              		.cfi_offset 30, -8
 407              		.cfi_offset 31, -4
 408              		.loc 1 254 0
 409 000c 013F     		se_mr %r31,%r3
 410              		.loc 1 250 0
 411 000e 014E     		se_mr %r30,%r4
 412              		.loc 1 254 0
 413 0010 2A0F     		se_cmpi %r31,0
 414 0012 7A120052 		e_beq %cr0,.L44
 415              	.L35:
 416              	.LVL40:
 417              		.loc 1 257 0
 418 0016 187F8010 		e_addi %r3,%r31,16
 419 001a 78000001 		e_bl chMtxLock
 420              	.LVL41:
 421              		.loc 1 260 0
 422 001e 513F0008 		e_lwz %r9,8(%r31)
 423 0022 71400000 		e_li %r10,0
 424 0026 480F     		se_li %r31,0
 425              	.LVL42:
 426 0028 1829A800 		e_cmpi %cr1,%r9,0
 427 002c 7A16001A 		e_beq %cr1,.L36
 428              	.LVL43:
 429              	.L37:
 430              		.loc 1 261 0 discriminator 3
 431 0030 51090004 		e_lwz %r8,4(%r9)
 432              		.loc 1 260 0 discriminator 3
 433 0034 200F     		se_addi %r31,1
 434              	.LVL44:
 435 0036 51290000 		e_lwz %r9,0(%r9)
 436              		.loc 1 261 0 discriminator 3
 437 003a 7D4A4214 		add %r10,%r10,%r8
 438              	.LVL45:
 439              		.loc 1 260 0 discriminator 3
 440 003e 1829A800 		e_cmpi %cr1,%r9,0
 441 0042 7A06FFEE 		e_bne %cr1,.L37
 442              	.LVL46:
 443              	.L36:
 444              		.loc 1 262 0
 445 0046 183EA800 		e_cmpi %cr1,%r30,0
 446 004a 7A160008 		e_beq %cr1,.L38
 447              		.loc 1 263 0
 448 004e 555E0000 		e_stw %r10,0(%r30)
 449              	.L38:
 450              		.loc 1 265 0
 451 0052 78000001 		e_bl chMtxUnlock
 452              	.LVL47:
 453              		.loc 1 267 0
 454 0056 C501     		se_lwz %r0,20(%r1)
 455 0058 0090     		se_mtlr %r0
 456              		.cfi_remember_state
GAS LISTING C:\Users\jean\AppData\Local\Temp\ccZ4NIs0.s 			page 9


 457              		.cfi_restore 65
 458 005a 01F3     		se_mr %r3,%r31
 459 005c 1BC10808 		e_lmw %r30,8(%r1)
 460              	.LVL48:
 461 0060 20F1     		se_addi %r1,16
 462              	.LCFI10:
 463              		.cfi_restore 31
 464              		.cfi_restore 30
 465              		.cfi_def_cfa_offset 0
 466 0062 0004     		se_blr
 467              	.LVL49:
 468              	.L44:
 469              	.LCFI11:
 470              		.cfi_restore_state
 471              		.loc 1 255 0
 472 0064 73E0E000 		e_lis %r31,.LANCHOR0@ha
 473 0068 1FFF0000 		e_la %r31,.LANCHOR0@l(%r31)
 474 006c 79FFFFAA 		e_b .L35
 475              		.cfi_endproc
 476              	.LFE19:
 477              		.size	chHeapStatus, .-chHeapStatus
 478              		.section	.bss.default_heap,"aw",@nobits
 479              		.align 3
 480              		.set	.LANCHOR0,. + 0
 481              		.type	default_heap, @object
 482              		.size	default_heap, 32
 483              	default_heap:
 484 0000 00000000 		.zero	32
 484      00000000 
 484      00000000 
 484      00000000 
 484      00000000 
 485              		.section	".text","axv"
 486              	.Letext0:
 487              		.file 2 "c:\\spc5studio\\eclipse\\plugins\\com.st.tools.spc5.tools.gnu.gcc.ppcvle.win32_1.0.0.2016
 488              		.file 3 "c:\\spc5studio\\eclipse\\plugins\\com.st.tools.spc5.tools.gnu.gcc.ppcvle.win32_1.0.0.2016
 489              		.file 4 "c:\\spc5studio\\eclipse\\plugins\\com.st.tools.spc5.tools.gnu.gcc.ppcvle.win32_1.0.0.2016
 490              		.file 5 "./components/chibios_rt_spc560dxx_kernel_port_component/lib/include/chtypes.h"
 491              		.file 6 "./components/chibios_rt_portable_kernel_component/lib/include/chlists.h"
 492              		.file 7 "./components/chibios_rt_portable_kernel_component/lib/include/chthreads.h"
 493              		.file 8 "./components/chibios_rt_spc560dxx_kernel_port_component/lib/include/chcore.h"
 494              		.file 9 "./components/chibios_rt_portable_kernel_component/lib/include/chmtx.h"
 495              		.file 10 "./components/chibios_rt_portable_kernel_component/lib/include/chmemcore.h"
 496              		.file 11 "./components/chibios_rt_portable_kernel_component/lib/include/chheap.h"