GAS LISTING C:\Users\jean\AppData\Local\Temp\ccDTNzda.s 			page 1


   1              		.file	"chmempools.c"
   2              		.section	".text","axv"
   3              	.Ltext0:
   4              		.cfi_sections	.debug_frame
   5              		.section	.text.chPoolInit,"axv",@progbits
   6              		.align 1
   7              		.p2align 4,,15
   8              		.globl chPoolInit
   9              		.type	chPoolInit, @function
  10              	chPoolInit:
  11              	.LFB15:
  12              		.file 1 "./components/chibios_rt_portable_kernel_component/lib/src/chmempools.c"
  13              		.loc 1 62 0
  14              		.cfi_startproc
  15              	.LVL0:
  16              		.loc 1 66 0
  17 0000 71200000 		e_li %r9,0
  18              		.loc 1 67 0
  19 0004 D143     		se_stw %r4,4(%r3)
  20              		.loc 1 66 0
  21 0006 55230000 		e_stw %r9,0(%r3)
  22              		.loc 1 68 0
  23 000a D253     		se_stw %r5,8(%r3)
  24 000c 0004     		se_blr
  25              		.cfi_endproc
  26              	.LFE15:
  27              		.size	chPoolInit, .-chPoolInit
  28              		.section	.text.chPoolLoadArray,"axv",@progbits
  29              		.align 1
  30              		.p2align 4,,15
  31              		.globl chPoolLoadArray
  32              		.type	chPoolLoadArray, @function
  33              	chPoolLoadArray:
  34              	.LFB16:
  35              		.loc 1 84 0
  36              		.cfi_startproc
  37              	.LVL1:
  38              		.loc 1 88 0
  39 0000 2A05     		se_cmpi %r5,0
  40 0002 7A120024 		e_beq %cr0,.L2
  41 0006 00B5     		se_mtctr %r5
  42              	.LVL2:
  43              	.L6:
  44              	.LBB22:
  45              	.LBB23:
  46              	.LBB24:
  47              		.file 2 "./components/chibios_rt_portable_kernel_component/lib/include/chsys.h"
  48              		.loc 2 149 0
  49              	 # 149 "./components/chibios_rt_portable_kernel_component/lib/include/chsys.h" 1
  50 0008 7C000146 		wrteei  0
  51              	 # 0 "" 2
  52              	.LVL3:
  53              	.LBE24:
  54              	.LBE23:
  55              	.LBB25:
  56              	.LBB26:
  57              		.loc 1 155 0
GAS LISTING C:\Users\jean\AppData\Local\Temp\ccDTNzda.s 			page 2


  58 000c 51230000 		e_lwz %r9,0(%r3)
  59 0010 55240000 		e_stw %r9,0(%r4)
  60              		.loc 1 156 0
  61 0014 D043     		se_stw %r4,0(%r3)
  62              	.LBE26:
  63              	.LBE25:
  64              	.LBB27:
  65              	.LBB28:
  66              		.loc 2 164 0
  67              	 # 164 "./components/chibios_rt_portable_kernel_component/lib/include/chsys.h" 1
  68 0016 7C008146 		wrteei  1
  69              	 # 0 "" 2
  70              	.LBE28:
  71              	.LBE27:
  72              	.LBE22:
  73              		.loc 1 90 0
  74 001a 51230004 		e_lwz %r9,4(%r3)
  75 001e 7C844A14 		add %r4,%r4,%r9
  76              	.LVL4:
  77              		.loc 1 88 0
  78 0022 7A20FFE6 		e_bdnz .L6
  79              	.LVL5:
  80              	.L2:
  81 0026 0004     		se_blr
  82              		.cfi_endproc
  83              	.LFE16:
  84              		.size	chPoolLoadArray, .-chPoolLoadArray
  85              		.section	.text.chPoolAllocI,"axv",@progbits
  86              		.align 1
  87              		.p2align 4,,15
  88              		.globl chPoolAllocI
  89              		.type	chPoolAllocI, @function
  90              	chPoolAllocI:
  91              	.LFB17:
  92              		.loc 1 105 0
  93              		.cfi_startproc
  94              	.LVL6:
  95              		.loc 1 111 0
  96 0000 51230000 		e_lwz %r9,0(%r3)
  97              	.LVL7:
  98 0004 1829A800 		e_cmpi %cr1,%r9,0
  99 0008 7A160010 		e_beq %cr1,.L10
 100              		.loc 1 112 0
 101 000c 51490000 		e_lwz %r10,0(%r9)
 102 0010 55430000 		e_stw %r10,0(%r3)
 103              	.L11:
 104              		.loc 1 116 0
 105 0014 0313     		se_mfar %r3,%r9
 106              	.LVL8:
 107 0016 0004     		se_blr
 108              	.LVL9:
 109              	.L10:
 110              		.loc 1 113 0
 111 0018 51430008 		e_lwz %r10,8(%r3)
 112 001c 182AA800 		e_cmpi %cr1,%r10,0
 113 0020 7A16FFF4 		e_beq %cr1,.L11
 114              		.loc 1 114 0
GAS LISTING C:\Users\jean\AppData\Local\Temp\ccDTNzda.s 			page 3


 115 0024 C133     		se_lwz %r3,4(%r3)
 116              	.LVL10:
 117 0026 7D4903A6 		mtctr %r10
 118              		.loc 1 116 0
 119              		.loc 1 114 0
 120 002a 0006     		se_bctr
 121              	.LVL11:
 122              		.cfi_endproc
 123              	.LFE17:
 124              		.size	chPoolAllocI, .-chPoolAllocI
 125              		.section	.text.chPoolAlloc,"axv",@progbits
 126              		.align 1
 127              		.p2align 4,,15
 128              		.globl chPoolAlloc
 129              		.type	chPoolAlloc, @function
 130              	chPoolAlloc:
 131              	.LFB18:
 132              		.loc 1 128 0
 133              		.cfi_startproc
 134              	.LVL12:
 135 0000 182106F8 		e_stwu %r1,-8(%r1)
 136              	.LCFI0:
 137              		.cfi_def_cfa_offset 8
 138 0004 0080     		se_mflr %r0
 139 0006 0231     		se_mtar %r9,%r3
 140 0008 D301     		se_stw %r0,12(%r1)
 141              		.cfi_offset 65, 4
 142              	.LBB29:
 143              	.LBB30:
 144              		.loc 2 149 0
 145              	 # 149 "./components/chibios_rt_portable_kernel_component/lib/include/chsys.h" 1
 146 000a 7C000146 		wrteei  0
 147              	 # 0 "" 2
 148              	.LVL13:
 149              	.LBE30:
 150              	.LBE29:
 151              	.LBB31:
 152              	.LBB32:
 153              		.loc 1 111 0
 154 000e C033     		se_lwz %r3,0(%r3)
 155              	.LVL14:
 156 0010 1823A800 		e_cmpi %cr1,%r3,0
 157 0014 7A160018 		e_beq %cr1,.L16
 158              		.loc 1 112 0
 159 0018 51430000 		e_lwz %r10,0(%r3)
 160 001c 55490000 		e_stw %r10,0(%r9)
 161              	.L17:
 162              	.LBE32:
 163              	.LBE31:
 164              	.LBB34:
 165              	.LBB35:
 166              		.loc 2 164 0
 167              	 # 164 "./components/chibios_rt_portable_kernel_component/lib/include/chsys.h" 1
 168 0020 7C008146 		wrteei  1
 169              	 # 0 "" 2
 170              	.LBE35:
 171              	.LBE34:
GAS LISTING C:\Users\jean\AppData\Local\Temp\ccDTNzda.s 			page 4


 172              		.loc 1 135 0
 173 0024 C301     		se_lwz %r0,12(%r1)
 174 0026 0090     		se_mtlr %r0
 175              		.cfi_remember_state
 176              		.cfi_restore 65
 177 0028 2071     		se_addi %r1,8
 178              	.LCFI1:
 179              		.cfi_def_cfa_offset 0
 180 002a 0004     		se_blr
 181              	.L16:
 182              	.LCFI2:
 183              		.cfi_restore_state
 184              	.LBB37:
 185              	.LBB33:
 186              		.loc 1 113 0
 187 002c 51490008 		e_lwz %r10,8(%r9)
 188 0030 182AA800 		e_cmpi %cr1,%r10,0
 189 0034 7A16FFEC 		e_beq %cr1,.L17
 190              		.loc 1 114 0
 191 0038 50690004 		e_lwz %r3,4(%r9)
 192              	.LVL15:
 193 003c 7D4903A6 		mtctr %r10
 194 0040 0007     		se_bctrl
 195              	.LVL16:
 196              	.LBE33:
 197              	.LBE37:
 198              	.LBB38:
 199              	.LBB36:
 200              		.loc 2 164 0
 201              	 # 164 "./components/chibios_rt_portable_kernel_component/lib/include/chsys.h" 1
 202 0042 7C008146 		wrteei  1
 203              	 # 0 "" 2
 204              	.LBE36:
 205              	.LBE38:
 206              		.loc 1 135 0
 207 0046 C301     		se_lwz %r0,12(%r1)
 208 0048 0090     		se_mtlr %r0
 209              		.cfi_restore 65
 210 004a 2071     		se_addi %r1,8
 211              	.LCFI3:
 212              		.cfi_def_cfa_offset 0
 213 004c 0004     		se_blr
 214              		.cfi_endproc
 215              	.LFE18:
 216              		.size	chPoolAlloc, .-chPoolAlloc
 217              		.section	.text.chPoolFreeI,"axv",@progbits
 218              		.align 1
 219              		.p2align 4,,15
 220              		.globl chPoolFreeI
 221              		.type	chPoolFreeI, @function
 222              	chPoolFreeI:
 223              	.LFB19:
 224              		.loc 1 149 0
 225              		.cfi_startproc
 226              	.LVL17:
 227              		.loc 1 155 0
 228 0000 51230000 		e_lwz %r9,0(%r3)
GAS LISTING C:\Users\jean\AppData\Local\Temp\ccDTNzda.s 			page 5


 229 0004 55240000 		e_stw %r9,0(%r4)
 230              		.loc 1 156 0
 231 0008 D043     		se_stw %r4,0(%r3)
 232 000a 0004     		se_blr
 233              		.cfi_endproc
 234              	.LFE19:
 235              		.size	chPoolFreeI, .-chPoolFreeI
 236              		.section	.text.chPoolFree,"axv",@progbits
 237              		.align 1
 238              		.p2align 4,,15
 239              		.globl chPoolFree
 240              		.type	chPoolFree, @function
 241              	chPoolFree:
 242              	.LFB20:
 243              		.loc 1 171 0
 244              		.cfi_startproc
 245              	.LVL18:
 246              	.LBB39:
 247              	.LBB40:
 248              		.loc 2 149 0
 249              	 # 149 "./components/chibios_rt_portable_kernel_component/lib/include/chsys.h" 1
 250 0000 7C000146 		wrteei  0
 251              	 # 0 "" 2
 252              	.LVL19:
 253              	.LBE40:
 254              	.LBE39:
 255              	.LBB41:
 256              	.LBB42:
 257              		.loc 1 155 0
 258 0004 51230000 		e_lwz %r9,0(%r3)
 259 0008 55240000 		e_stw %r9,0(%r4)
 260              		.loc 1 156 0
 261 000c D043     		se_stw %r4,0(%r3)
 262              	.LBE42:
 263              	.LBE41:
 264              	.LBB43:
 265              	.LBB44:
 266              		.loc 2 164 0
 267              	 # 164 "./components/chibios_rt_portable_kernel_component/lib/include/chsys.h" 1
 268 000e 7C008146 		wrteei  1
 269              	 # 0 "" 2
 270 0012 0004     		se_blr
 271              	.LBE44:
 272              	.LBE43:
 273              		.cfi_endproc
 274              	.LFE20:
 275              		.size	chPoolFree, .-chPoolFree
 276              		.section	".text","axv"
 277              	.Letext0:
 278              		.file 3 "c:\\spc5studio\\eclipse\\plugins\\com.st.tools.spc5.tools.gnu.gcc.ppcvle.win32_1.0.0.2016
 279              		.file 4 "c:\\spc5studio\\eclipse\\plugins\\com.st.tools.spc5.tools.gnu.gcc.ppcvle.win32_1.0.0.2016
 280              		.file 5 "c:\\spc5studio\\eclipse\\plugins\\com.st.tools.spc5.tools.gnu.gcc.ppcvle.win32_1.0.0.2016
 281              		.file 6 "./components/chibios_rt_portable_kernel_component/lib/include/chmemcore.h"
 282              		.file 7 "./components/chibios_rt_portable_kernel_component/lib/include/chmempools.h"