GAS LISTING C:\Users\jean\AppData\Local\Temp\ccfB5iBr.s 			page 1


   1              		.file	"chmsg.c"
   2              		.section	".text","axv"
   3              	.Ltext0:
   4              		.cfi_sections	.debug_frame
   5              		.section	.text.chMsgSend,"axv",@progbits
   6              		.align 1
   7              		.p2align 4,,15
   8              		.globl chMsgSend
   9              		.type	chMsgSend, @function
  10              	chMsgSend:
  11              	.LFB15:
  12              		.file 1 "./components/chibios_rt_portable_kernel_component/lib/src/chmsg.c"
  13              		.loc 1 75 0
  14              		.cfi_startproc
  15              	.LVL0:
  16 0000 182106F0 		e_stwu %r1,-16(%r1)
  17              	.LCFI0:
  18              		.cfi_def_cfa_offset 16
  19 0004 0080     		se_mflr %r0
  20 0006 D3F1     		se_stw %r31,12(%r1)
  21              		.loc 1 76 0
  22 0008 7140E000 		e_lis %r10,rlist+24@ha
  23              		.loc 1 75 0
  24 000c D501     		se_stw %r0,20(%r1)
  25              		.cfi_offset 65, 4
  26              		.cfi_offset 31, -4
  27              		.loc 1 76 0
  28 000e 53EA0000 		e_lwz %r31,rlist+24@l(%r10)
  29              	.LVL1:
  30              	.LBB18:
  31              	.LBB19:
  32              		.file 2 "./components/chibios_rt_portable_kernel_component/lib/include/chsys.h"
  33              		.loc 2 149 0
  34              	 # 149 "./components/chibios_rt_portable_kernel_component/lib/include/chsys.h" 1
  35 0012 7C000146 		wrteei  0
  36              	 # 0 "" 2
  37              	.LBE19:
  38              	.LBE18:
  39              		.loc 1 84 0
  40 0016 3143001C 		e_lbz %r10,28(%r3)
  41              		.loc 1 82 0
  42 001a 1903802C 		e_addi %r8,%r3,44
  43              		.loc 1 81 0
  44 001e DD4F     		se_stw %r4,52(%r31)
  45              		.loc 1 82 0
  46 0020 551F0024 		e_stw %r8,36(%r31)
  47              	.LVL2:
  48              	.LBB20:
  49              	.LBB21:
  50              		.file 3 "./components/chibios_rt_portable_kernel_component/lib/include/chinline.h"
  51              		.loc 3 54 0
  52 0024 551F0000 		e_stw %r8,0(%r31)
  53              	.LBE21:
  54              	.LBE20:
  55              		.loc 1 84 0
  56 0028 182AA80C 		e_cmpi %cr1,%r10,12
  57              	.LBB23:
GAS LISTING C:\Users\jean\AppData\Local\Temp\ccfB5iBr.s 			page 2


  58              	.LBB22:
  59              		.loc 3 55 0
  60 002c 51030030 		e_lwz %r8,48(%r3)
  61              	.LVL3:
  62 0030 551F0004 		e_stw %r8,4(%r31)
  63              		.loc 3 56 0
  64 0034 DCF3     		se_stw %r31,48(%r3)
  65 0036 57E80000 		e_stw %r31,0(%r8)
  66              	.LVL4:
  67              	.LBE22:
  68              	.LBE23:
  69              		.loc 1 84 0
  70 003a 7A16001A 		e_beq %cr1,.L4
  71              		.loc 1 86 0
  72 003e 48A3     		se_li %r3,10
  73              	.LVL5:
  74 0040 78000001 		e_bl chSchGoSleepS
  75              	.LVL6:
  76              		.loc 1 87 0
  77 0044 C93F     		se_lwz %r3,36(%r31)
  78              	.LVL7:
  79              	.LBB24:
  80              	.LBB25:
  81              		.loc 2 164 0
  82              	 # 164 "./components/chibios_rt_portable_kernel_component/lib/include/chsys.h" 1
  83 0046 7C008146 		wrteei  1
  84              	 # 0 "" 2
  85              	.LBE25:
  86              	.LBE24:
  87              		.loc 1 90 0
  88 004a C501     		se_lwz %r0,20(%r1)
  89 004c 0090     		se_mtlr %r0
  90              		.cfi_remember_state
  91              		.cfi_restore 65
  92 004e C3F1     		se_lwz %r31,12(%r1)
  93              	.LVL8:
  94 0050 20F1     		se_addi %r1,16
  95              	.LCFI1:
  96              		.cfi_restore 31
  97              		.cfi_def_cfa_offset 0
  98 0052 0004     		se_blr
  99              	.LVL9:
 100              	.L4:
 101              	.LCFI2:
 102              		.cfi_restore_state
 103              		.loc 1 85 0
 104 0054 78000001 		e_bl chSchReadyI
 105              	.LVL10:
 106              		.loc 1 86 0
 107 0058 48A3     		se_li %r3,10
 108 005a 78000001 		e_bl chSchGoSleepS
 109              	.LVL11:
 110              		.loc 1 87 0
 111 005e C93F     		se_lwz %r3,36(%r31)
 112              	.LVL12:
 113              	.LBB27:
 114              	.LBB26:
GAS LISTING C:\Users\jean\AppData\Local\Temp\ccfB5iBr.s 			page 3


 115              		.loc 2 164 0
 116              	 # 164 "./components/chibios_rt_portable_kernel_component/lib/include/chsys.h" 1
 117 0060 7C008146 		wrteei  1
 118              	 # 0 "" 2
 119              	.LBE26:
 120              	.LBE27:
 121              		.loc 1 90 0
 122 0064 C501     		se_lwz %r0,20(%r1)
 123 0066 0090     		se_mtlr %r0
 124              		.cfi_restore 65
 125 0068 C3F1     		se_lwz %r31,12(%r1)
 126              	.LVL13:
 127 006a 20F1     		se_addi %r1,16
 128              	.LCFI3:
 129              		.cfi_restore 31
 130              		.cfi_def_cfa_offset 0
 131 006c 0004     		se_blr
 132              		.cfi_endproc
 133              	.LFE15:
 134              		.size	chMsgSend, .-chMsgSend
 135              		.section	.text.chMsgWait,"axv",@progbits
 136              		.align 1
 137              		.p2align 4,,15
 138              		.globl chMsgWait
 139              		.type	chMsgWait, @function
 140              	chMsgWait:
 141              	.LFB16:
 142              		.loc 1 106 0
 143              		.cfi_startproc
 144 0000 182106F0 		e_stwu %r1,-16(%r1)
 145              	.LCFI4:
 146              		.cfi_def_cfa_offset 16
 147 0004 0080     		se_mflr %r0
 148 0006 D3F1     		se_stw %r31,12(%r1)
 149 0008 D501     		se_stw %r0,20(%r1)
 150              		.cfi_offset 65, 4
 151              		.cfi_offset 31, -4
 152              	.LBB28:
 153              	.LBB29:
 154              		.loc 2 149 0
 155              	 # 149 "./components/chibios_rt_portable_kernel_component/lib/include/chsys.h" 1
 156 000a 7C000146 		wrteei  0
 157              	 # 0 "" 2
 158              	.LBE29:
 159              	.LBE28:
 160              		.loc 1 110 0
 161 000e 73E0E000 		e_lis %r31,rlist@ha
 162 0012 1FFF0000 		e_la %r31,rlist@l(%r31)
 163 0016 515F0018 		e_lwz %r10,24(%r31)
 164 001a 7D495378 		mr %r9,%r10
 165 001e 1869022C 		e_lwzu %r3,44(%r9)
 166 0022 7C834840 		cmpl %cr1,%r3,%r9
 167 0026 7A160026 		e_beq %cr1,.L7
 168              	.LVL14:
 169              	.LBB30:
 170              	.LBB31:
 171              		.loc 3 62 0
GAS LISTING C:\Users\jean\AppData\Local\Temp\ccfB5iBr.s 			page 4


 172 002a 51030000 		e_lwz %r8,0(%r3)
 173 002e 550A002C 		e_stw %r8,44(%r10)
 174 0032 55280004 		e_stw %r9,4(%r8)
 175              	.LBE31:
 176              	.LBE30:
 177              		.loc 1 113 0
 178 0036 7120000B 		e_li %r9,11
 179              	.LVL15:
 180 003a 3523001C 		e_stb %r9,28(%r3)
 181              	.LBB33:
 182              	.LBB34:
 183              		.loc 2 164 0
 184              	 # 164 "./components/chibios_rt_portable_kernel_component/lib/include/chsys.h" 1
 185 003e 7C008146 		wrteei  1
 186              	 # 0 "" 2
 187              	.LBE34:
 188              	.LBE33:
 189              		.loc 1 116 0
 190 0042 C501     		se_lwz %r0,20(%r1)
 191 0044 0090     		se_mtlr %r0
 192              		.cfi_remember_state
 193              		.cfi_restore 65
 194 0046 C3F1     		se_lwz %r31,12(%r1)
 195 0048 20F1     		se_addi %r1,16
 196              	.LCFI5:
 197              		.cfi_restore 31
 198              		.cfi_def_cfa_offset 0
 199 004a 0004     		se_blr
 200              	.LVL16:
 201              	.L7:
 202              	.LCFI6:
 203              		.cfi_restore_state
 204              		.loc 1 111 0
 205 004c 48C3     		se_li %r3,12
 206 004e 78000001 		e_bl chSchGoSleepS
 207              	.LVL17:
 208 0052 515F0018 		e_lwz %r10,24(%r31)
 209 0056 506A002C 		e_lwz %r3,44(%r10)
 210 005a 192A802C 		e_addi %r9,%r10,44
 211              	.LVL18:
 212              	.LBB36:
 213              	.LBB32:
 214              		.loc 3 62 0
 215 005e 51030000 		e_lwz %r8,0(%r3)
 216 0062 550A002C 		e_stw %r8,44(%r10)
 217 0066 55280004 		e_stw %r9,4(%r8)
 218              	.LBE32:
 219              	.LBE36:
 220              		.loc 1 113 0
 221 006a 7120000B 		e_li %r9,11
 222              	.LVL19:
 223 006e 3523001C 		e_stb %r9,28(%r3)
 224              	.LBB37:
 225              	.LBB35:
 226              		.loc 2 164 0
 227              	 # 164 "./components/chibios_rt_portable_kernel_component/lib/include/chsys.h" 1
 228 0072 7C008146 		wrteei  1
GAS LISTING C:\Users\jean\AppData\Local\Temp\ccfB5iBr.s 			page 5


 229              	 # 0 "" 2
 230              	.LBE35:
 231              	.LBE37:
 232              		.loc 1 116 0
 233 0076 C501     		se_lwz %r0,20(%r1)
 234 0078 0090     		se_mtlr %r0
 235              		.cfi_restore 65
 236 007a C3F1     		se_lwz %r31,12(%r1)
 237 007c 20F1     		se_addi %r1,16
 238              	.LCFI7:
 239              		.cfi_restore 31
 240              		.cfi_def_cfa_offset 0
 241 007e 0004     		se_blr
 242              		.cfi_endproc
 243              	.LFE16:
 244              		.size	chMsgWait, .-chMsgWait
 245              		.section	.text.chMsgRelease,"axv",@progbits
 246              		.align 1
 247              		.p2align 4,,15
 248              		.globl chMsgRelease
 249              		.type	chMsgRelease, @function
 250              	chMsgRelease:
 251              	.LFB17:
 252              		.loc 1 128 0
 253              		.cfi_startproc
 254              	.LVL20:
 255 0000 182106F8 		e_stwu %r1,-8(%r1)
 256              	.LCFI8:
 257              		.cfi_def_cfa_offset 8
 258 0004 0080     		se_mflr %r0
 259 0006 D301     		se_stw %r0,12(%r1)
 260              		.cfi_offset 65, 4
 261              	.LBB38:
 262              	.LBB39:
 263              		.loc 2 149 0
 264              	 # 149 "./components/chibios_rt_portable_kernel_component/lib/include/chsys.h" 1
 265 0008 7C000146 		wrteei  0
 266              	 # 0 "" 2
 267              	.LBE39:
 268              	.LBE38:
 269              		.loc 1 133 0
 270 000c 78000001 		e_bl chSchWakeupS
 271              	.LVL21:
 272              	.LBB40:
 273              	.LBB41:
 274              		.loc 2 164 0
 275              	 # 164 "./components/chibios_rt_portable_kernel_component/lib/include/chsys.h" 1
 276 0010 7C008146 		wrteei  1
 277              	 # 0 "" 2
 278              	.LBE41:
 279              	.LBE40:
 280              		.loc 1 135 0
 281 0014 C301     		se_lwz %r0,12(%r1)
 282 0016 0090     		se_mtlr %r0
 283              		.cfi_restore 65
 284 0018 2071     		se_addi %r1,8
 285              	.LCFI9:
GAS LISTING C:\Users\jean\AppData\Local\Temp\ccfB5iBr.s 			page 6


 286              		.cfi_def_cfa_offset 0
 287 001a 0004     		se_blr
 288              		.cfi_endproc
 289              	.LFE17:
 290              		.size	chMsgRelease, .-chMsgRelease
 291              		.section	".text","axv"
 292              	.Letext0:
 293              		.file 4 "c:\\spc5studio\\eclipse\\plugins\\com.st.tools.spc5.tools.gnu.gcc.ppcvle.win32_1.0.0.2016
 294              		.file 5 "c:\\spc5studio\\eclipse\\plugins\\com.st.tools.spc5.tools.gnu.gcc.ppcvle.win32_1.0.0.2016
 295              		.file 6 "./components/chibios_rt_spc560dxx_kernel_port_component/lib/include/chtypes.h"
 296              		.file 7 "./components/chibios_rt_portable_kernel_component/lib/include/chlists.h"
 297              		.file 8 "./components/chibios_rt_portable_kernel_component/lib/include/chthreads.h"
 298              		.file 9 "./components/chibios_rt_spc560dxx_kernel_port_component/lib/include/chcore.h"
 299              		.file 10 "./components/chibios_rt_portable_kernel_component/lib/include/chschd.h"
 300              		.file 11 "./components/chibios_rt_portable_kernel_component/lib/include/chmtx.h"