GAS LISTING C:\Users\jean\AppData\Local\Temp\ccuX4gg6.s 			page 1


   1              		.file	"chmtx.c"
   2              		.section	".text","axv"
   3              	.Ltext0:
   4              		.cfi_sections	.debug_frame
   5              		.section	.text.chMtxInit,"axv",@progbits
   6              		.align 1
   7              		.p2align 4,,15
   8              		.globl chMtxInit
   9              		.type	chMtxInit, @function
  10              	chMtxInit:
  11              	.LFB15:
  12              		.file 1 "./components/chibios_rt_portable_kernel_component/lib/src/chmtx.c"
  13              		.loc 1 86 0
  14              		.cfi_startproc
  15              	.LVL0:
  16              		.loc 1 91 0
  17 0000 71200000 		e_li %r9,0
  18              		.loc 1 90 0
  19 0004 D133     		se_stw %r3,4(%r3)
  20 0006 D033     		se_stw %r3,0(%r3)
  21              		.loc 1 91 0
  22 0008 55230008 		e_stw %r9,8(%r3)
  23 000c 0004     		se_blr
  24              		.cfi_endproc
  25              	.LFE15:
  26              		.size	chMtxInit, .-chMtxInit
  27              		.section	.text.chMtxLockS,"axv",@progbits
  28              		.align 1
  29              		.p2align 4,,15
  30              		.globl chMtxLockS
  31              		.type	chMtxLockS, @function
  32              	chMtxLockS:
  33              	.LFB17:
  34              		.loc 1 121 0
  35              		.cfi_startproc
  36              	.LVL1:
  37 0000 182106F0 		e_stwu %r1,-16(%r1)
  38              	.LCFI0:
  39              		.cfi_def_cfa_offset 16
  40 0004 0080     		se_mflr %r0
  41 0006 1BC10908 		e_stmw %r30,8(%r1)
  42 000a D501     		se_stw %r0,20(%r1)
  43              		.cfi_offset 65, 4
  44              		.cfi_offset 30, -8
  45              		.cfi_offset 31, -4
  46              		.loc 1 122 0
  47 000c 7120E000 		e_lis %r9,rlist+24@ha
  48              		.loc 1 128 0
  49 0010 51430008 		e_lwz %r10,8(%r3)
  50              		.loc 1 122 0
  51 0014 53E90000 		e_lwz %r31,rlist+24@l(%r9)
  52              	.LVL2:
  53              		.loc 1 128 0
  54 0018 182AA800 		e_cmpi %cr1,%r10,0
  55 001c 7A16013C 		e_beq %cr1,.L3
  56              	.LBB43:
  57              		.loc 1 135 0
GAS LISTING C:\Users\jean\AppData\Local\Temp\ccuX4gg6.s 			page 2


  58 0020 C26F     		se_lwz %r6,8(%r31)
  59 0022 50EA0008 		e_lwz %r7,8(%r10)
  60 0026 013E     		se_mr %r30,%r3
  61              	.LVL3:
  62 0028 0D76     		se_cmpl %r6,%r7
  63 002a 7A010024 		e_ble %cr0,.L5
  64              	.L20:
  65              		.loc 1 139 0
  66 002e 312A001C 		e_lbz %r9,28(%r10)
  67              		.loc 1 137 0
  68 0032 54CA0008 		e_stw %r6,8(%r10)
  69              		.loc 1 139 0
  70 0036 1829A804 		e_cmpi %cr1,%r9,4
  71 003a 7A1600C2 		e_beq %cr1,.L6
  72 003e 1829A805 		e_cmpi %cr1,%r9,5
  73 0042 7A16006E 		e_beq %cr1,.L7
  74 0046 1829A800 		e_cmpi %cr1,%r9,0
  75 004a 7A160048 		e_beq %cr1,.L27
  76              	.LVL4:
  77              	.L5:
  78              	.LBB44:
  79              	.LBB45:
  80              		.file 2 "./components/chibios_rt_portable_kernel_component/lib/include/chinline.h"
  81              		.loc 2 43 0
  82 004e 02E1     		se_mtar %r9,%r30
  83 0050 78000010 		e_b .L18
  84              	.LVL5:
  85              	.L17:
  86              		.loc 2 46 0
  87 0054 50E90008 		e_lwz %r7,8(%r9)
  88 0058 C26F     		se_lwz %r6,8(%r31)
  89 005a 0D67     		se_cmpl %r7,%r6
  90 005c 7A100010 		e_blt %cr0,.L19
  91              	.L18:
  92              		.loc 2 45 0
  93 0060 51290000 		e_lwz %r9,0(%r9)
  94              	.LVL6:
  95              		.loc 2 46 0
  96 0064 7C9E4840 		cmpl %cr1,%r30,%r9
  97 0068 7A06FFEC 		e_bne %cr1,.L17
  98              	.L19:
  99              		.loc 2 48 0
 100 006c 51490004 		e_lwz %r10,4(%r9)
 101              	.LBE45:
 102              	.LBE44:
 103              		.loc 1 175 0
 104 0070 4843     		se_li %r3,4
 105              	.LBB47:
 106              	.LBB46:
 107              		.loc 2 47 0
 108 0072 553F0000 		e_stw %r9,0(%r31)
 109              		.loc 2 48 0
 110 0076 555F0004 		e_stw %r10,4(%r31)
 111              		.loc 2 49 0
 112 007a 57E90004 		e_stw %r31,4(%r9)
 113 007e 57EA0000 		e_stw %r31,0(%r10)
 114              	.LBE46:
GAS LISTING C:\Users\jean\AppData\Local\Temp\ccuX4gg6.s 			page 3


 115              	.LBE47:
 116              		.loc 1 174 0
 117 0082 D9EF     		se_stw %r30,36(%r31)
 118              	.LBE43:
 119              		.loc 1 187 0
 120 0084 C501     		se_lwz %r0,20(%r1)
 121 0086 1BC10808 		e_lmw %r30,8(%r1)
 122              	.LVL7:
 123 008a 0090     		se_mtlr %r0
 124              		.cfi_remember_state
 125              		.cfi_restore 65
 126 008c 20F1     		se_addi %r1,16
 127              	.LCFI1:
 128              		.cfi_restore 31
 129              		.cfi_restore 30
 130              		.cfi_def_cfa_offset 0
 131              	.LBB72:
 132              		.loc 1 175 0
 133 008e 78000000 		e_b chSchGoSleepS
 134              	.LVL8:
 135              	.L27:
 136              	.LCFI2:
 137              		.cfi_restore_state
 138              	.LBB48:
 139              	.LBB49:
 140              		.loc 2 75 0
 141 0092 512A0004 		e_lwz %r9,4(%r10)
 142 0096 510A0000 		e_lwz %r8,0(%r10)
 143              	.LBE49:
 144              	.LBE48:
 145              		.loc 1 167 0
 146 009a 0323     		se_mfar %r3,%r10
 147              	.LVL9:
 148              	.LBB51:
 149              	.LBB50:
 150              		.loc 2 75 0
 151 009c 55090000 		e_stw %r8,0(%r9)
 152              		.loc 2 76 0
 153 00a0 514A0000 		e_lwz %r10,0(%r10)
 154              	.LVL10:
 155 00a4 552A0004 		e_stw %r9,4(%r10)
 156              	.LBE50:
 157              	.LBE51:
 158              		.loc 1 167 0
 159 00a8 78000001 		e_bl chSchReadyI
 160              	.LVL11:
 161              		.loc 1 168 0
 162 00ac 79FFFFA2 		e_b .L5
 163              	.LVL12:
 164              	.L7:
 165              	.LBB52:
 166              	.LBB53:
 167              		.loc 2 75 0
 168 00b0 512A0000 		e_lwz %r9,0(%r10)
 169              	.LBE53:
 170              	.LBE52:
 171              		.loc 1 158 0
GAS LISTING C:\Users\jean\AppData\Local\Temp\ccuX4gg6.s 			page 4


 172 00b4 510A0024 		e_lwz %r8,36(%r10)
 173              	.LVL13:
 174              	.LBB56:
 175              	.LBB54:
 176              		.loc 2 75 0
 177 00b8 50EA0004 		e_lwz %r7,4(%r10)
 178 00bc 55270000 		e_stw %r9,0(%r7)
 179              	.LBE54:
 180              	.LBE56:
 181              	.LBB57:
 182              	.LBB58:
 183              		.loc 2 43 0
 184 00c0 7D094378 		mr %r9,%r8
 185              	.LBE58:
 186              	.LBE57:
 187              	.LBB60:
 188              	.LBB55:
 189              		.loc 2 76 0
 190 00c4 50AA0000 		e_lwz %r5,0(%r10)
 191 00c8 D175     		se_stw %r7,4(%r5)
 192 00ca 7800000E 		e_b .L15
 193              	.LVL14:
 194              	.L14:
 195              	.LBE55:
 196              	.LBE60:
 197              	.LBB61:
 198              	.LBB59:
 199              		.loc 2 46 0
 200 00ce 50E90008 		e_lwz %r7,8(%r9)
 201 00d2 0D67     		se_cmpl %r7,%r6
 202 00d4 7A100010 		e_blt %cr0,.L16
 203              	.L15:
 204              		.loc 2 45 0
 205 00d8 51290000 		e_lwz %r9,0(%r9)
 206              	.LVL15:
 207              		.loc 2 46 0
 208 00dc 7C884840 		cmpl %cr1,%r8,%r9
 209 00e0 7A06FFEE 		e_bne %cr1,.L14
 210              	.L16:
 211              		.loc 2 48 0
 212 00e4 51090004 		e_lwz %r8,4(%r9)
 213              	.LVL16:
 214              		.loc 2 47 0
 215 00e8 552A0000 		e_stw %r9,0(%r10)
 216              		.loc 2 48 0
 217 00ec 550A0004 		e_stw %r8,4(%r10)
 218              		.loc 2 49 0
 219 00f0 55490004 		e_stw %r10,4(%r9)
 220 00f4 55480000 		e_stw %r10,0(%r8)
 221 00f8 79FFFF56 		e_b .L5
 222              	.LVL17:
 223              	.L6:
 224              	.LBE59:
 225              	.LBE61:
 226              	.LBB62:
 227              	.LBB63:
 228              		.loc 2 75 0
GAS LISTING C:\Users\jean\AppData\Local\Temp\ccuX4gg6.s 			page 5


 229 00fc 512A0000 		e_lwz %r9,0(%r10)
 230              	.LBE63:
 231              	.LBE62:
 232              		.loc 1 142 0
 233 0100 510A0024 		e_lwz %r8,36(%r10)
 234              	.LVL18:
 235              	.LBB66:
 236              	.LBB64:
 237              		.loc 2 75 0
 238 0104 50EA0004 		e_lwz %r7,4(%r10)
 239 0108 55270000 		e_stw %r9,0(%r7)
 240              	.LBE64:
 241              	.LBE66:
 242              		.loc 1 142 0
 243 010c 7D094378 		mr %r9,%r8
 244              	.LBB67:
 245              	.LBB65:
 246              		.loc 2 76 0
 247 0110 50AA0000 		e_lwz %r5,0(%r10)
 248 0114 D175     		se_stw %r7,4(%r5)
 249 0116 7800000E 		e_b .L12
 250              	.LVL19:
 251              	.L9:
 252              	.LBE65:
 253              	.LBE67:
 254              	.LBB68:
 255              	.LBB69:
 256              		.loc 2 46 0
 257 011a 50E90008 		e_lwz %r7,8(%r9)
 258 011e 0D67     		se_cmpl %r7,%r6
 259 0120 7A100010 		e_blt %cr0,.L13
 260              	.L12:
 261              		.loc 2 45 0
 262 0124 51290000 		e_lwz %r9,0(%r9)
 263              	.LVL20:
 264              		.loc 2 46 0
 265 0128 7C884840 		cmpl %cr1,%r8,%r9
 266 012c 7A06FFEE 		e_bne %cr1,.L9
 267              	.L13:
 268              		.loc 2 48 0
 269 0130 50E90004 		e_lwz %r7,4(%r9)
 270              	.LBE69:
 271              	.LBE68:
 272              		.loc 1 135 0
 273 0134 C26F     		se_lwz %r6,8(%r31)
 274              	.LBB71:
 275              	.LBB70:
 276              		.loc 2 47 0
 277 0136 552A0000 		e_stw %r9,0(%r10)
 278              		.loc 2 48 0
 279 013a 54EA0004 		e_stw %r7,4(%r10)
 280              		.loc 2 49 0
 281 013e 55490004 		e_stw %r10,4(%r9)
 282 0142 55470000 		e_stw %r10,0(%r7)
 283              	.LBE70:
 284              	.LBE71:
 285              		.loc 1 143 0
GAS LISTING C:\Users\jean\AppData\Local\Temp\ccuX4gg6.s 			page 6


 286 0146 51480008 		e_lwz %r10,8(%r8)
 287              	.LVL21:
 288              		.loc 1 135 0
 289 014a 50EA0008 		e_lwz %r7,8(%r10)
 290 014e 0D67     		se_cmpl %r7,%r6
 291 0150 7A10FEDE 		e_blt %cr0,.L20
 292 0154 79FFFEFA 		e_b .L5
 293              	.LVL22:
 294              	.L3:
 295              	.LBE72:
 296              		.loc 1 187 0
 297 0158 C501     		se_lwz %r0,20(%r1)
 298 015a 0090     		se_mtlr %r0
 299              		.cfi_restore 65
 300              		.loc 1 184 0
 301 015c 513F003C 		e_lwz %r9,60(%r31)
 302              		.loc 1 183 0
 303 0160 D2F3     		se_stw %r31,8(%r3)
 304              		.loc 1 184 0
 305 0162 5523000C 		e_stw %r9,12(%r3)
 306              		.loc 1 185 0
 307 0166 DF3F     		se_stw %r3,60(%r31)
 308              		.loc 1 187 0
 309 0168 1BC10808 		e_lmw %r30,8(%r1)
 310              	.LVL23:
 311 016c 20F1     		se_addi %r1,16
 312              	.LCFI3:
 313              		.cfi_restore 31
 314              		.cfi_restore 30
 315              		.cfi_def_cfa_offset 0
 316 016e 0004     		se_blr
 317              		.cfi_endproc
 318              	.LFE17:
 319              		.size	chMtxLockS, .-chMtxLockS
 320              		.section	.text.chMtxLock,"axv",@progbits
 321              		.align 1
 322              		.p2align 4,,15
 323              		.globl chMtxLock
 324              		.type	chMtxLock, @function
 325              	chMtxLock:
 326              	.LFB16:
 327              		.loc 1 103 0
 328              		.cfi_startproc
 329              	.LVL24:
 330 0000 182106F8 		e_stwu %r1,-8(%r1)
 331              	.LCFI4:
 332              		.cfi_def_cfa_offset 8
 333 0004 0080     		se_mflr %r0
 334 0006 D301     		se_stw %r0,12(%r1)
 335              		.cfi_offset 65, 4
 336              	.LBB73:
 337              	.LBB74:
 338              		.file 3 "./components/chibios_rt_portable_kernel_component/lib/include/chsys.h"
 339              		.loc 3 149 0
 340              	 # 149 "./components/chibios_rt_portable_kernel_component/lib/include/chsys.h" 1
 341 0008 7C000146 		wrteei  0
 342              	 # 0 "" 2
GAS LISTING C:\Users\jean\AppData\Local\Temp\ccuX4gg6.s 			page 7


 343              	.LBE74:
 344              	.LBE73:
 345              		.loc 1 107 0
 346 000c 78000001 		e_bl chMtxLockS
 347              	.LVL25:
 348              	.LBB75:
 349              	.LBB76:
 350              		.loc 3 164 0
 351              	 # 164 "./components/chibios_rt_portable_kernel_component/lib/include/chsys.h" 1
 352 0010 7C008146 		wrteei  1
 353              	 # 0 "" 2
 354              	.LBE76:
 355              	.LBE75:
 356              		.loc 1 110 0
 357 0014 C301     		se_lwz %r0,12(%r1)
 358 0016 0090     		se_mtlr %r0
 359              		.cfi_restore 65
 360 0018 2071     		se_addi %r1,8
 361              	.LCFI5:
 362              		.cfi_def_cfa_offset 0
 363 001a 0004     		se_blr
 364              		.cfi_endproc
 365              	.LFE16:
 366              		.size	chMtxLock, .-chMtxLock
 367              		.section	.text.chMtxTryLock,"axv",@progbits
 368              		.align 1
 369              		.p2align 4,,15
 370              		.globl chMtxTryLock
 371              		.type	chMtxTryLock, @function
 372              	chMtxTryLock:
 373              	.LFB18:
 374              		.loc 1 206 0
 375              		.cfi_startproc
 376              	.LVL26:
 377              		.loc 1 206 0
 378 0000 0232     		se_mtar %r10,%r3
 379              	.LBB85:
 380              	.LBB86:
 381              		.loc 3 149 0
 382              	 # 149 "./components/chibios_rt_portable_kernel_component/lib/include/chsys.h" 1
 383 0002 7C000146 		wrteei  0
 384              	 # 0 "" 2
 385              	.LVL27:
 386              	.LBE86:
 387              	.LBE85:
 388              	.LBB87:
 389              	.LBB88:
 390              		.loc 1 240 0
 391 0006 4803     		se_li %r3,0
 392              	.LVL28:
 393              		.loc 1 239 0
 394 0008 512A0008 		e_lwz %r9,8(%r10)
 395 000c 1829A800 		e_cmpi %cr1,%r9,0
 396 0010 7A16000A 		e_beq %cr1,.L32
 397              	.LBE88:
 398              	.LBE87:
 399              	.LBB92:
GAS LISTING C:\Users\jean\AppData\Local\Temp\ccuX4gg6.s 			page 8


 400              	.LBB93:
 401              		.loc 3 164 0
 402              	 # 164 "./components/chibios_rt_portable_kernel_component/lib/include/chsys.h" 1
 403 0014 7C008146 		wrteei  1
 404              	 # 0 "" 2
 405              	.LBE93:
 406              	.LBE92:
 407              		.loc 1 215 0
 408 0018 0004     		se_blr
 409              	.L32:
 410              	.LVL29:
 411              	.LBB95:
 412              	.LBB91:
 413              	.LBB89:
 414              	.LBB90:
 415              		.loc 1 243 0
 416 001a 4813     		se_li %r3,1
 417              		.loc 1 241 0
 418 001c 7120E000 		e_lis %r9,rlist+24@ha
 419 0020 51290000 		e_lwz %r9,rlist+24@l(%r9)
 420              		.loc 1 242 0
 421 0024 5109003C 		e_lwz %r8,60(%r9)
 422              		.loc 1 241 0
 423 0028 552A0008 		e_stw %r9,8(%r10)
 424              		.loc 1 242 0
 425 002c 550A000C 		e_stw %r8,12(%r10)
 426              		.loc 1 243 0
 427 0030 5549003C 		e_stw %r10,60(%r9)
 428              	.LBE90:
 429              	.LBE89:
 430              	.LBE91:
 431              	.LBE95:
 432              	.LBB96:
 433              	.LBB94:
 434              		.loc 3 164 0
 435              	 # 164 "./components/chibios_rt_portable_kernel_component/lib/include/chsys.h" 1
 436 0034 7C008146 		wrteei  1
 437              	 # 0 "" 2
 438              	.LBE94:
 439              	.LBE96:
 440              		.loc 1 215 0
 441 0038 0004     		se_blr
 442              		.cfi_endproc
 443              	.LFE18:
 444              		.size	chMtxTryLock, .-chMtxTryLock
 445              		.section	.text.chMtxTryLockS,"axv",@progbits
 446              		.align 1
 447              		.p2align 4,,15
 448              		.globl chMtxTryLockS
 449              		.type	chMtxTryLockS, @function
 450              	chMtxTryLockS:
 451              	.LFB19:
 452              		.loc 1 234 0
 453              		.cfi_startproc
 454              	.LVL30:
 455              		.loc 1 234 0
 456 0000 0232     		se_mtar %r10,%r3
GAS LISTING C:\Users\jean\AppData\Local\Temp\ccuX4gg6.s 			page 9


 457              		.loc 1 240 0
 458 0002 4803     		se_li %r3,0
 459              	.LVL31:
 460              		.loc 1 239 0
 461 0004 512A0008 		e_lwz %r9,8(%r10)
 462 0008 1829A800 		e_cmpi %cr1,%r9,0
 463 000c 7A160006 		e_beq %cr1,.L36
 464              		.loc 1 245 0
 465 0010 0004     		se_blr
 466              	.L36:
 467              	.LVL32:
 468              	.LBB99:
 469              	.LBB100:
 470              		.loc 1 243 0
 471 0012 4813     		se_li %r3,1
 472              		.loc 1 241 0
 473 0014 7120E000 		e_lis %r9,rlist+24@ha
 474 0018 51290000 		e_lwz %r9,rlist+24@l(%r9)
 475              		.loc 1 242 0
 476 001c 5109003C 		e_lwz %r8,60(%r9)
 477              		.loc 1 241 0
 478 0020 552A0008 		e_stw %r9,8(%r10)
 479              		.loc 1 242 0
 480 0024 550A000C 		e_stw %r8,12(%r10)
 481              		.loc 1 243 0
 482 0028 5549003C 		e_stw %r10,60(%r9)
 483              	.LBE100:
 484              	.LBE99:
 485              		.loc 1 245 0
 486 002c 0004     		se_blr
 487              		.cfi_endproc
 488              	.LFE19:
 489              		.size	chMtxTryLockS, .-chMtxTryLockS
 490              		.section	.text.chMtxUnlock,"axv",@progbits
 491              		.align 1
 492              		.p2align 4,,15
 493              		.globl chMtxUnlock
 494              		.type	chMtxUnlock, @function
 495              	chMtxUnlock:
 496              	.LFB20:
 497              		.loc 1 257 0
 498              		.cfi_startproc
 499 0000 182106F0 		e_stwu %r1,-16(%r1)
 500              	.LCFI6:
 501              		.cfi_def_cfa_offset 16
 502 0004 0080     		se_mflr %r0
 503              		.loc 1 258 0
 504 0006 7120E000 		e_lis %r9,rlist+24@ha
 505              		.loc 1 257 0
 506 000a D501     		se_stw %r0,20(%r1)
 507 000c D3F1     		se_stw %r31,12(%r1)
 508              		.cfi_offset 65, 4
 509              		.cfi_offset 31, -4
 510              		.loc 1 258 0
 511 000e 50C90000 		e_lwz %r6,rlist+24@l(%r9)
 512              	.LVL33:
 513              	.LBB101:
GAS LISTING C:\Users\jean\AppData\Local\Temp\ccuX4gg6.s 			page 10


 514              	.LBB102:
 515              		.loc 3 149 0
 516              	 # 149 "./components/chibios_rt_portable_kernel_component/lib/include/chsys.h" 1
 517 0012 7C000146 		wrteei  0
 518              	 # 0 "" 2
 519              	.LBE102:
 520              	.LBE101:
 521              		.loc 1 270 0
 522 0016 CFF6     		se_lwz %r31,60(%r6)
 523              	.LVL34:
 524              		.loc 1 273 0
 525 0018 511F0000 		e_lwz %r8,0(%r31)
 526              		.loc 1 271 0
 527 001c 513F000C 		e_lwz %r9,12(%r31)
 528              		.loc 1 273 0
 529 0020 7C88F840 		cmpl %cr1,%r8,%r31
 530              		.loc 1 271 0
 531 0024 5526003C 		e_stw %r9,60(%r6)
 532              		.loc 1 273 0
 533 0028 7A16006C 		e_beq %cr1,.L38
 534              	.LBB103:
 535              		.loc 1 278 0
 536 002c 50E60040 		e_lwz %r7,64(%r6)
 537              	.LVL35:
 538              		.loc 1 280 0
 539 0030 1829A800 		e_cmpi %cr1,%r9,0
 540 0034 7A160028 		e_beq %cr1,.L39
 541              	.L41:
 542              		.loc 1 284 0
 543 0038 51490000 		e_lwz %r10,0(%r9)
 544 003c 7C8A4840 		cmpl %cr1,%r10,%r9
 545 0040 7A160010 		e_beq %cr1,.L40
 546              		.loc 1 284 0 is_stmt 0 discriminator 1
 547 0044 514A0008 		e_lwz %r10,8(%r10)
 548 0048 7C075040 		cmpl %cr0,%r7,%r10
 549 004c 7CEA381E 		isel %r7,%r10,%r7,0
 550              	.LVL36:
 551              	.L40:
 552              		.loc 1 286 0 is_stmt 1
 553 0050 5129000C 		e_lwz %r9,12(%r9)
 554              	.LVL37:
 555              		.loc 1 280 0
 556 0054 1829A800 		e_cmpi %cr1,%r9,0
 557 0058 7A06FFE0 		e_bne %cr1,.L41
 558              	.L39:
 559              		.loc 1 290 0
 560 005c D276     		se_stw %r7,8(%r6)
 561              	.LVL38:
 562              		.loc 1 295 0
 563 005e 5148003C 		e_lwz %r10,60(%r8)
 564              	.LBB104:
 565              	.LBB105:
 566              		.loc 2 62 0
 567 0062 51280000 		e_lwz %r9,0(%r8)
 568              	.LVL39:
 569              	.LBE105:
 570              	.LBE104:
GAS LISTING C:\Users\jean\AppData\Local\Temp\ccuX4gg6.s 			page 11


 571              		.loc 1 302 0
 572 0066 0303     		se_mfar %r3,%r8
 573              	.LBB107:
 574              	.LBB106:
 575              		.loc 2 62 0
 576 0068 553F0000 		e_stw %r9,0(%r31)
 577 006c 57E90004 		e_stw %r31,4(%r9)
 578              	.LBE106:
 579              	.LBE107:
 580              		.loc 1 294 0
 581 0070 551F0008 		e_stw %r8,8(%r31)
 582              		.loc 1 295 0
 583 0074 555F000C 		e_stw %r10,12(%r31)
 584              		.loc 1 296 0
 585 0078 57E8003C 		e_stw %r31,60(%r8)
 586              		.loc 1 302 0
 587 007c 78000001 		e_bl chSchReadyI
 588              	.LVL40:
 589              		.loc 1 303 0
 590 0080 78000001 		e_bl chSchRescheduleS
 591              	.LVL41:
 592              	.LBE103:
 593              	.LBB108:
 594              	.LBB109:
 595              		.loc 3 164 0
 596              	 # 164 "./components/chibios_rt_portable_kernel_component/lib/include/chsys.h" 1
 597 0084 7C008146 		wrteei  1
 598              	 # 0 "" 2
 599              	.LBE109:
 600              	.LBE108:
 601              		.loc 1 309 0
 602 0088 C501     		se_lwz %r0,20(%r1)
 603 008a 0090     		se_mtlr %r0
 604              		.cfi_remember_state
 605              		.cfi_restore 65
 606 008c 01F3     		se_mr %r3,%r31
 607 008e C3F1     		se_lwz %r31,12(%r1)
 608              	.LVL42:
 609 0090 20F1     		se_addi %r1,16
 610              	.LCFI7:
 611              		.cfi_restore 31
 612              		.cfi_def_cfa_offset 0
 613 0092 0004     		se_blr
 614              	.LVL43:
 615              	.L38:
 616              	.LCFI8:
 617              		.cfi_restore_state
 618              		.loc 1 306 0
 619 0094 71200000 		e_li %r9,0
 620 0098 553F0008 		e_stw %r9,8(%r31)
 621              	.LBB111:
 622              	.LBB110:
 623              		.loc 3 164 0
 624              	 # 164 "./components/chibios_rt_portable_kernel_component/lib/include/chsys.h" 1
 625 009c 7C008146 		wrteei  1
 626              	 # 0 "" 2
 627              	.LBE110:
GAS LISTING C:\Users\jean\AppData\Local\Temp\ccuX4gg6.s 			page 12


 628              	.LBE111:
 629              		.loc 1 309 0
 630 00a0 C501     		se_lwz %r0,20(%r1)
 631 00a2 0090     		se_mtlr %r0
 632              		.cfi_restore 65
 633 00a4 01F3     		se_mr %r3,%r31
 634 00a6 C3F1     		se_lwz %r31,12(%r1)
 635              	.LVL44:
 636 00a8 20F1     		se_addi %r1,16
 637              	.LCFI9:
 638              		.cfi_restore 31
 639              		.cfi_def_cfa_offset 0
 640 00aa 0004     		se_blr
 641              		.cfi_endproc
 642              	.LFE20:
 643              		.size	chMtxUnlock, .-chMtxUnlock
 644              		.section	.text.chMtxUnlockS,"axv",@progbits
 645              		.align 1
 646              		.p2align 4,,15
 647              		.globl chMtxUnlockS
 648              		.type	chMtxUnlockS, @function
 649              	chMtxUnlockS:
 650              	.LFB21:
 651              		.loc 1 323 0
 652              		.cfi_startproc
 653 0000 182106F0 		e_stwu %r1,-16(%r1)
 654              	.LCFI10:
 655              		.cfi_def_cfa_offset 16
 656              		.loc 1 324 0
 657 0004 7120E000 		e_lis %r9,rlist+24@ha
 658              		.loc 1 323 0
 659 0008 D3F1     		se_stw %r31,12(%r1)
 660              		.loc 1 324 0
 661 000a 50C90000 		e_lwz %r6,rlist+24@l(%r9)
 662              	.LVL45:
 663              		.loc 1 323 0
 664 000e 0080     		se_mflr %r0
 665 0010 D501     		se_stw %r0,20(%r1)
 666              		.cfi_offset 31, -4
 667              		.cfi_offset 65, 4
 668              		.loc 1 337 0
 669 0012 CFF6     		se_lwz %r31,60(%r6)
 670              	.LVL46:
 671              		.loc 1 340 0
 672 0014 511F0000 		e_lwz %r8,0(%r31)
 673              		.loc 1 338 0
 674 0018 513F000C 		e_lwz %r9,12(%r31)
 675              		.loc 1 340 0
 676 001c 7C88F840 		cmpl %cr1,%r8,%r31
 677              		.loc 1 338 0
 678 0020 5526003C 		e_stw %r9,60(%r6)
 679              		.loc 1 340 0
 680 0024 7A160064 		e_beq %cr1,.L48
 681              	.LBB112:
 682              		.loc 1 345 0
 683 0028 50E60040 		e_lwz %r7,64(%r6)
 684              	.LVL47:
GAS LISTING C:\Users\jean\AppData\Local\Temp\ccuX4gg6.s 			page 13


 685              		.loc 1 347 0
 686 002c 1829A800 		e_cmpi %cr1,%r9,0
 687 0030 7A160028 		e_beq %cr1,.L49
 688              	.L51:
 689              		.loc 1 351 0
 690 0034 51490000 		e_lwz %r10,0(%r9)
 691 0038 7C8A4840 		cmpl %cr1,%r10,%r9
 692 003c 7A160010 		e_beq %cr1,.L50
 693              		.loc 1 351 0 is_stmt 0 discriminator 1
 694 0040 514A0008 		e_lwz %r10,8(%r10)
 695 0044 7C075040 		cmpl %cr0,%r7,%r10
 696 0048 7CEA381E 		isel %r7,%r10,%r7,0
 697              	.LVL48:
 698              	.L50:
 699              		.loc 1 353 0 is_stmt 1
 700 004c 5129000C 		e_lwz %r9,12(%r9)
 701              	.LVL49:
 702              		.loc 1 347 0
 703 0050 1829A800 		e_cmpi %cr1,%r9,0
 704 0054 7A06FFE0 		e_bne %cr1,.L51
 705              	.L49:
 706              		.loc 1 355 0
 707 0058 D276     		se_stw %r7,8(%r6)
 708              	.LVL50:
 709              		.loc 1 360 0
 710 005a 5148003C 		e_lwz %r10,60(%r8)
 711              	.LBB113:
 712              	.LBB114:
 713              		.loc 2 62 0
 714 005e 51280000 		e_lwz %r9,0(%r8)
 715              	.LVL51:
 716              	.LBE114:
 717              	.LBE113:
 718              		.loc 1 362 0
 719 0062 0303     		se_mfar %r3,%r8
 720              	.LBB116:
 721              	.LBB115:
 722              		.loc 2 62 0
 723 0064 553F0000 		e_stw %r9,0(%r31)
 724 0068 57E90004 		e_stw %r31,4(%r9)
 725              	.LBE115:
 726              	.LBE116:
 727              		.loc 1 359 0
 728 006c 551F0008 		e_stw %r8,8(%r31)
 729              		.loc 1 360 0
 730 0070 555F000C 		e_stw %r10,12(%r31)
 731              		.loc 1 361 0
 732 0074 57E8003C 		e_stw %r31,60(%r8)
 733              		.loc 1 362 0
 734 0078 78000001 		e_bl chSchReadyI
 735              	.LVL52:
 736              	.LBE112:
 737              		.loc 1 367 0
 738 007c C501     		se_lwz %r0,20(%r1)
 739 007e 0090     		se_mtlr %r0
 740              		.cfi_remember_state
 741              		.cfi_restore 65
GAS LISTING C:\Users\jean\AppData\Local\Temp\ccuX4gg6.s 			page 14


 742 0080 01F3     		se_mr %r3,%r31
 743 0082 C3F1     		se_lwz %r31,12(%r1)
 744              	.LVL53:
 745 0084 20F1     		se_addi %r1,16
 746              	.LCFI11:
 747              		.cfi_restore 31
 748              		.cfi_def_cfa_offset 0
 749 0086 0004     		se_blr
 750              	.LVL54:
 751              	.L48:
 752              	.LCFI12:
 753              		.cfi_restore_state
 754 0088 C501     		se_lwz %r0,20(%r1)
 755 008a 0090     		se_mtlr %r0
 756              		.cfi_restore 65
 757 008c 01F3     		se_mr %r3,%r31
 758              		.loc 1 365 0
 759 008e 71200000 		e_li %r9,0
 760 0092 553F0008 		e_stw %r9,8(%r31)
 761              		.loc 1 367 0
 762 0096 C3F1     		se_lwz %r31,12(%r1)
 763              	.LVL55:
 764 0098 20F1     		se_addi %r1,16
 765              	.LCFI13:
 766              		.cfi_restore 31
 767              		.cfi_def_cfa_offset 0
 768 009a 0004     		se_blr
 769              		.cfi_endproc
 770              	.LFE21:
 771              		.size	chMtxUnlockS, .-chMtxUnlockS
 772              		.section	.text.chMtxUnlockAll,"axv",@progbits
 773              		.align 1
 774              		.p2align 4,,15
 775              		.globl chMtxUnlockAll
 776              		.type	chMtxUnlockAll, @function
 777              	chMtxUnlockAll:
 778              	.LFB22:
 779              		.loc 1 380 0
 780              		.cfi_startproc
 781 0000 182106F0 		e_stwu %r1,-16(%r1)
 782              	.LCFI14:
 783              		.cfi_def_cfa_offset 16
 784 0004 0080     		se_mflr %r0
 785 0006 1BC10908 		e_stmw %r30,8(%r1)
 786              		.loc 1 381 0
 787 000a 7120E000 		e_lis %r9,rlist+24@ha
 788              		.loc 1 380 0
 789 000e D501     		se_stw %r0,20(%r1)
 790              		.cfi_offset 65, 4
 791              		.cfi_offset 30, -8
 792              		.cfi_offset 31, -4
 793              		.loc 1 381 0
 794 0010 53E90000 		e_lwz %r31,rlist+24@l(%r9)
 795              	.LVL56:
 796              	.LBB117:
 797              	.LBB118:
 798              		.loc 3 149 0
GAS LISTING C:\Users\jean\AppData\Local\Temp\ccuX4gg6.s 			page 15


 799              	 # 149 "./components/chibios_rt_portable_kernel_component/lib/include/chsys.h" 1
 800 0014 7C000146 		wrteei  0
 801              	 # 0 "" 2
 802              	.LBE118:
 803              	.LBE117:
 804              		.loc 1 384 0
 805 0018 513F003C 		e_lwz %r9,60(%r31)
 806 001c 1829A800 		e_cmpi %cr1,%r9,0
 807 0020 7A160068 		e_beq %cr1,.L58
 808              	.LBB119:
 809              		.loc 1 396 0
 810 0024 480E     		se_li %r30,0
 811 0026 78000032 		e_b .L61
 812              	.LVL57:
 813              	.L67:
 814              	.LBB120:
 815              		.loc 1 391 0
 816 002a 50EA003C 		e_lwz %r7,60(%r10)
 817              	.LBB121:
 818              	.LBB122:
 819              		.loc 2 62 0
 820 002e 510A0000 		e_lwz %r8,0(%r10)
 821              	.LBE122:
 822              	.LBE121:
 823              		.loc 1 393 0
 824 0032 0323     		se_mfar %r3,%r10
 825              	.LBB124:
 826              	.LBB123:
 827              		.loc 2 62 0
 828 0034 55090000 		e_stw %r8,0(%r9)
 829 0038 55280004 		e_stw %r9,4(%r8)
 830              	.LBE123:
 831              	.LBE124:
 832              		.loc 1 390 0
 833 003c 55490008 		e_stw %r10,8(%r9)
 834              		.loc 1 391 0
 835 0040 54E9000C 		e_stw %r7,12(%r9)
 836              		.loc 1 392 0
 837 0044 552A003C 		e_stw %r9,60(%r10)
 838              		.loc 1 393 0
 839 0048 78000001 		e_bl chSchReadyI
 840              	.LVL58:
 841              	.LBE120:
 842              	.LBE119:
 843              		.loc 1 397 0
 844 004c 513F003C 		e_lwz %r9,60(%r31)
 845 0050 1829A800 		e_cmpi %cr1,%r9,0
 846 0054 7A160028 		e_beq %cr1,.L66
 847              	.L61:
 848              	.LVL59:
 849              	.LBB125:
 850              		.loc 1 388 0
 851 0058 51490000 		e_lwz %r10,0(%r9)
 852              	.LVL60:
 853              		.loc 1 387 0
 854 005c 5109000C 		e_lwz %r8,12(%r9)
 855              		.loc 1 388 0
GAS LISTING C:\Users\jean\AppData\Local\Temp\ccuX4gg6.s 			page 16


 856 0060 7C8A4840 		cmpl %cr1,%r10,%r9
 857              		.loc 1 387 0
 858 0064 551F003C 		e_stw %r8,60(%r31)
 859              		.loc 1 388 0
 860 0068 7A06FFC2 		e_bne %cr1,.L67
 861              		.loc 1 396 0
 862 006c 57C90008 		e_stw %r30,8(%r9)
 863              	.LBE125:
 864              		.loc 1 397 0
 865 0070 513F003C 		e_lwz %r9,60(%r31)
 866              	.LVL61:
 867 0074 1829A800 		e_cmpi %cr1,%r9,0
 868 0078 7A06FFE0 		e_bne %cr1,.L61
 869              	.LVL62:
 870              	.L66:
 871              		.loc 1 398 0
 872 007c 513F0040 		e_lwz %r9,64(%r31)
 873 0080 553F0008 		e_stw %r9,8(%r31)
 874              		.loc 1 399 0
 875 0084 78000001 		e_bl chSchRescheduleS
 876              	.LVL63:
 877              	.L58:
 878              	.LBB126:
 879              	.LBB127:
 880              		.loc 3 164 0
 881              	 # 164 "./components/chibios_rt_portable_kernel_component/lib/include/chsys.h" 1
 882 0088 7C008146 		wrteei  1
 883              	 # 0 "" 2
 884              	.LBE127:
 885              	.LBE126:
 886              		.loc 1 402 0
 887 008c C501     		se_lwz %r0,20(%r1)
 888 008e 0090     		se_mtlr %r0
 889              		.cfi_restore 65
 890 0090 1BC10808 		e_lmw %r30,8(%r1)
 891              	.LVL64:
 892 0094 20F1     		se_addi %r1,16
 893              	.LCFI15:
 894              		.cfi_restore 31
 895              		.cfi_restore 30
 896              		.cfi_def_cfa_offset 0
 897 0096 0004     		se_blr
 898              		.cfi_endproc
 899              	.LFE22:
 900              		.size	chMtxUnlockAll, .-chMtxUnlockAll
 901              		.section	".text","axv"
 902              	.Letext0:
 903              		.file 4 "c:\\spc5studio\\eclipse\\plugins\\com.st.tools.spc5.tools.gnu.gcc.ppcvle.win32_1.0.0.2016
 904              		.file 5 "c:\\spc5studio\\eclipse\\plugins\\com.st.tools.spc5.tools.gnu.gcc.ppcvle.win32_1.0.0.2016
 905              		.file 6 "./components/chibios_rt_spc560dxx_kernel_port_component/lib/include/chtypes.h"
 906              		.file 7 "./components/chibios_rt_portable_kernel_component/lib/include/chlists.h"
 907              		.file 8 "./components/chibios_rt_portable_kernel_component/lib/include/chthreads.h"
 908              		.file 9 "./components/chibios_rt_spc560dxx_kernel_port_component/lib/include/chcore.h"
 909              		.file 10 "./components/chibios_rt_portable_kernel_component/lib/include/chschd.h"
 910              		.file 11 "./components/chibios_rt_portable_kernel_component/lib/include/chmtx.h"