GAS LISTING C:\Users\jean\AppData\Local\Temp\ccWMoD13.s 			page 1


   1              		.file	"chprintf.c"
   2              		.section	".text","axv"
   3              	.Ltext0:
   4              		.cfi_sections	.debug_frame
   5              		.section	.text.long_to_string_with_divisor.constprop.0,"axv",@progbits
   6              		.align 1
   7              		.p2align 4,,15
   8              		.type	long_to_string_with_divisor.constprop.0, @function
   9              	long_to_string_with_divisor.constprop.0:
  10              	.LFB20:
  11              		.file 1 "./components/chibios_rt_portable_output_formatter_component/lib/src/chprintf.c"
  12              		.loc 1 37 0
  13              		.cfi_startproc
  14              	.LVL0:
  15              		.loc 1 52 0
  16 0000 18C3800B 		e_addi %r6,%r3,11
  17              	.LVL1:
  18 0004 0240     		se_mtar %r8,%r4
  19 0006 0262     		se_mtar %r10,%r6
  20              	.LVL2:
  21              	.L3:
  22              		.loc 1 54 0
  23 0008 7CE42B96 		divwu %r7,%r4,%r5
  24 000c 7D2729D6 		mullw %r9,%r7,%r5
  25 0010 7C892050 		subf %r4, %r9, %r4
  26              	.LVL3:
  27              		.loc 1 55 0
  28 0014 19248030 		e_addi %r9,%r4,48
  29              	.LVL4:
  30              		.loc 1 56 0
  31 0018 1829A839 		e_cmpi %cr1,%r9,57
  32 001c 7A050008 		e_ble %cr1,.L2
  33              		.loc 1 57 0
  34 0020 19248037 		e_addi %r9,%r4,55
  35              	.LVL5:
  36              	.L2:
  37              		.loc 1 60 0
  38 0024 7D082B96 		divwu %r8,%r8,%r5
  39              	.LVL6:
  40              		.loc 1 58 0
  41 0028 192A04FF 		e_stbu %r9,-1(%r10)
  42              	.LVL7:
  43              		.loc 1 59 0
  44 002c 0174     		se_mr %r4,%r7
  45              	.LVL8:
  46              		.loc 1 60 0
  47 002e 1828A800 		e_cmpi %cr1,%r8,0
  48 0032 7A06FFD6 		e_bne %cr1,.L3
  49              	.LVL9:
  50              		.loc 1 62 0
  51 0036 7CCA3050 		subf %r6, %r10, %r6
  52              	.LVL10:
  53 003a 190384FF 		e_addi %r8,%r3,-1
  54              	.LVL11:
  55 003e 00B6     		se_mtctr %r6
  56 0040 78000008 		e_b .L5
  57              	.LVL12:
GAS LISTING C:\Users\jean\AppData\Local\Temp\ccWMoD13.s 			page 2


  58              	.L10:
  59 0044 192A0001 		e_lbzu %r9,1(%r10)
  60              	.LVL13:
  61              	.L5:
  62              		.loc 1 64 0
  63 0048 19280401 		e_stbu %r9,1(%r8)
  64              	.LVL14:
  65              		.loc 1 65 0
  66 004c 7A20FFF8 		e_bdnz .L10
  67              		.loc 1 68 0
  68 0050 0463     		se_add %r3,%r6
  69 0052 0004     		se_blr
  70              		.cfi_endproc
  71              	.LFE20:
  72              		.size	long_to_string_with_divisor.constprop.0, .-long_to_string_with_divisor.constprop.0
  73              		.section	.text.chvprintf,"axv",@progbits
  74              		.align 1
  75              		.p2align 4,,15
  76              		.globl chvprintf
  77              		.type	chvprintf, @function
  78              	chvprintf:
  79              	.LFB18:
  80              		.loc 1 112 0
  81              		.cfi_startproc
  82              	.LVL15:
  83 0000 182106A8 		e_stwu %r1,-88(%r1)
  84              	.LCFI0:
  85              		.cfi_def_cfa_offset 88
  86 0004 0080     		se_mflr %r0
  87 0006 1A21091C 		e_stmw %r17,28(%r1)
  88 000a 7D800026 		mfcr %r12
  89              		.cfi_register 65, 0
  90              		.cfi_offset 17, -60
  91              		.cfi_offset 18, -56
  92              		.cfi_offset 19, -52
  93              		.cfi_offset 20, -48
  94              		.cfi_offset 21, -44
  95              		.cfi_offset 22, -40
  96              		.cfi_offset 23, -36
  97              		.cfi_offset 24, -32
  98              		.cfi_offset 25, -28
  99              		.cfi_offset 26, -24
 100              		.cfi_offset 27, -20
 101              		.cfi_offset 28, -16
 102              		.cfi_offset 29, -12
 103              		.cfi_offset 30, -8
 104              		.cfi_offset 31, -4
 105 000e 1AE18009 		e_addi %r23,%r1,9
 106 0012 1B818008 		e_addi %r28,%r1,8
 107              		.loc 1 179 0
 108 0016 7340E000 		e_lis %r26,.L32@ha
 109              		.loc 1 187 0
 110 001a 7300E000 		e_lis %r24,.LC0@ha
 111              		.loc 1 179 0
 112 001e 7360E000 		e_lis %r27,.L39@ha
 113              		.loc 1 112 0
 114 0022 5401005C 		e_stw %r0,92(%r1)
GAS LISTING C:\Users\jean\AppData\Local\Temp\ccWMoD13.s 			page 3


 115 0026 55810018 		e_stw %r12,24(%r1)
 116              		.cfi_offset 65, 4
 117              		.cfi_offset 70, -64
 118              		.loc 1 112 0
 119 002a 023D     		se_mtar %r21,%r3
 120 002c 024A     		se_mtar %r18,%r4
 121 002e 015E     		se_mr %r30,%r5
 122              		.loc 1 179 0
 123 0030 1F5A0000 		e_la %r26,.L32@l(%r26)
 124 0034 7F3CB850 		subf %r25, %r28, %r23
 125              		.loc 1 187 0
 126 0038 1E380000 		e_la %r17,.LC0@l(%r24)
 127              		.loc 1 179 0
 128 003c 1F7B0000 		e_la %r27,.L39@l(%r27)
 129              	.LVL16:
 130              	.L12:
 131              		.loc 1 125 0
 132 0040 30920000 		e_lbz %r4,0(%r18)
 133 0044 1AD28001 		e_addi %r22,%r18,1
 134              	.LVL17:
 135              		.loc 1 126 0
 136 0048 1824A800 		e_cmpi %cr1,%r4,0
 137 004c 7A160030 		e_beq %cr1,.L11
 138              	.LVL18:
 139              	.L107:
 140              		.loc 1 128 0
 141 0050 18A4A825 		e_cmpli %cr1,%r4,37
 142 0054 7A160040 		e_beq %cr1,.L14
 143              		.loc 1 129 0
 144 0058 51350000 		e_lwz %r9,0(%r21)
 145 005c 03D3     		se_mfar %r3,%r21
 146 005e 51290008 		e_lwz %r9,8(%r9)
 147 0062 7D2903A6 		mtctr %r9
 148              		.loc 1 125 0
 149 0066 7ED2B378 		mr %r18,%r22
 150 006a 1AD28001 		e_addi %r22,%r18,1
 151              	.LVL19:
 152              		.loc 1 129 0
 153 006e 0007     		se_bctrl
 154              	.LVL20:
 155              		.loc 1 125 0
 156 0070 30920000 		e_lbz %r4,0(%r18)
 157              	.LVL21:
 158              		.loc 1 126 0
 159 0074 1824A800 		e_cmpi %cr1,%r4,0
 160 0078 7A06FFD8 		e_bne %cr1,.L107
 161              	.LVL22:
 162              	.L11:
 163              		.loc 1 261 0
 164 007c 5001005C 		e_lwz %r0,92(%r1)
 165 0080 0090     		se_mtlr %r0
 166              		.cfi_remember_state
 167              		.cfi_restore 65
 168 0082 51810018 		e_lwz %r12,24(%r1)
 169              		.cfi_register 70, 12
 170 0086 1A21081C 		e_lmw %r17,28(%r1)
 171              	.LVL23:
GAS LISTING C:\Users\jean\AppData\Local\Temp\ccWMoD13.s 			page 4


 172 008a 7D810120 		mtcrf 16,%r12
 173              		.cfi_restore 70
 174 008e 18218058 		e_addi %r1,%r1,88
 175              	.LCFI1:
 176              		.cfi_restore 31
 177              		.cfi_restore 30
 178              		.cfi_restore 29
 179              		.cfi_restore 28
 180              		.cfi_restore 27
 181              		.cfi_restore 26
 182              		.cfi_restore 25
 183              		.cfi_restore 24
 184              		.cfi_restore 23
 185              		.cfi_restore 22
 186              		.cfi_restore 21
 187              		.cfi_restore 20
 188              		.cfi_restore 19
 189              		.cfi_restore 18
 190              		.cfi_restore 17
 191              		.cfi_def_cfa_offset 0
 192 0092 0004     		se_blr
 193              	.LVL24:
 194              	.L14:
 195              	.LCFI2:
 196              		.cfi_restore_state
 197              		.loc 1 135 0
 198 0094 31120001 		e_lbz %r8,1(%r18)
 199              		.loc 1 134 0
 200 0098 72800000 		e_li %r20,0
 201              		.loc 1 135 0
 202 009c 18A8A82D 		e_cmpli %cr1,%r8,45
 203 00a0 7A16035E 		e_beq %cr1,.L108
 204              	.LVL25:
 205              	.L16:
 206              		.loc 1 140 0
 207 00a4 192884D2 		e_addi %r9,%r8,-46
 208              		.loc 1 139 0
 209 00a8 4A0D     		se_li %r29,32
 210              		.loc 1 140 0
 211 00aa 7120C8FD 		e_and2i. %r9,253
 212 00ae 7A12005C 		e_beq %cr0,.L109
 213              	.LVL26:
 214              	.L17:
 215              		.loc 1 144 0
 216 00b2 480F     		se_li %r31,0
 217              	.LVL27:
 218              	.L22:
 219              		.loc 1 147 0
 220 00b4 192884D0 		e_addi %r9,%r8,-48
 221              		.loc 1 146 0
 222 00b8 1AD68001 		e_addi %r22,%r22,1
 223              	.LVL28:
 224              		.loc 1 147 0
 225 00bc 7529063F 		e_rlwinm %r9,%r9,0,0xff
 226 00c0 18A9A809 		e_cmpli %cr1,%r9,9
 227 00c4 7A050030 		e_ble %cr1,.L18
 228              		.loc 1 149 0
GAS LISTING C:\Users\jean\AppData\Local\Temp\ccWMoD13.s 			page 5


 229 00c8 18A8A82A 		e_cmpli %cr1,%r8,42
 230 00cc 7A06005C 		e_bne %cr1,.L19
 231              		.loc 1 150 0
 232 00d0 313E0000 		e_lbz %r9,0(%r30)
 233 00d4 18A9A808 		e_cmpli %cr1,%r9,8
 234 00d8 7A040040 		e_bge %cr1,.L20
 235              		.loc 1 150 0 is_stmt 0 discriminator 2
 236 00dc 19098001 		e_addi %r8,%r9,1
 237              	.LVL29:
 238 00e0 515E0008 		e_lwz %r10,8(%r30)
 239 00e4 7D291070 		e_slwi %r9,%r9,2
 240 00e8 351E0000 		e_stb %r8,0(%r30)
 241 00ec 7D2A4A14 		add %r9,%r10,%r9
 242              	.L21:
 243              		.loc 1 150 0 discriminator 4
 244 00f0 31290003 		e_lbz %r9,3(%r9)
 245              	.LVL30:
 246              	.L18:
 247              		.loc 1 153 0 is_stmt 1
 248 00f4 7FEA0870 		e_slwi %r10,%r31,1
 249 00f8 31160000 		e_lbz %r8,0(%r22)
 250 00fc 6C3F     		se_slwi %r31, 3
 251              	.LVL31:
 252 00fe 7FEAFA14 		add %r31,%r10,%r31
 253 0102 7FFF4A14 		add %r31,%r31,%r9
 254              	.LVL32:
 255              		.loc 1 154 0
 256 0106 79FFFFAE 		e_b .L22
 257              	.LVL33:
 258              	.L109:
 259 010a 31160001 		e_lbz %r8,1(%r22)
 260              		.loc 1 142 0
 261 010e 4B0D     		se_li %r29,48
 262              		.loc 1 141 0
 263 0110 1AD68001 		e_addi %r22,%r22,1
 264              	.LVL34:
 265 0114 79FFFF9E 		e_b .L17
 266              	.LVL35:
 267              	.L20:
 268              		.loc 1 150 0 discriminator 1
 269 0118 513E0004 		e_lwz %r9,4(%r30)
 270 011c 19498004 		e_addi %r10,%r9,4
 271 0120 555E0004 		e_stw %r10,4(%r30)
 272 0124 79FFFFCC 		e_b .L21
 273              	.L19:
 274              	.LVL36:
 275              		.loc 1 155 0
 276 0128 71200000 		e_li %r9,0
 277              		.loc 1 156 0
 278 012c 18A8A82E 		e_cmpli %cr1,%r8,46
 279 0130 7A16004A 		e_beq %cr1,.L27
 280              	.LVL37:
 281              	.L23:
 282              		.loc 1 170 0
 283 0134 190AC0DF 		e_andi %r10,%r8,223
 284 0138 182AA84C 		e_cmpi %cr1,%r10,76
 285 013c 7A160290 		e_beq %cr1,.L110
GAS LISTING C:\Users\jean\AppData\Local\Temp\ccWMoD13.s 			page 6


 286              		.loc 1 179 0
 287 0140 18E884BC 		e_addi %r7,%r8,-68
 288 0144 00C7     		se_extzb %r7
 289              	.LVL38:
 290 0146 18A7A834 		e_cmpli %cr1,%r7,52
 291 014a 7A15026E 		e_bgt %cr1,.L30
 292 014e 6C27     		se_slwi %r7, 2
 293 0150 7CFB382E 		lwzx %r7,%r27,%r7
 294 0154 04B7     		se_add %r7,%r27
 295 0156 00B7     		se_mtctr %r7
 296 0158 0006     		se_bctr
 297              		.section	.rodata.chvprintf,"a",@progbits
 298              		.align 2
 299              		.align 2
 300              	.L39:
 301 0000 00000000 		.long .L51-.L39
 302 0004 00000000 		.long .L30-.L39
 303 0008 00000000 		.long .L30-.L39
 304 000c 00000000 		.long .L30-.L39
 305 0010 00000000 		.long .L30-.L39
 306 0014 00000000 		.long .L51-.L39
 307 0018 00000000 		.long .L30-.L39
 308 001c 00000000 		.long .L30-.L39
 309 0020 00000000 		.long .L30-.L39
 310 0024 00000000 		.long .L30-.L39
 311 0028 00000000 		.long .L30-.L39
 312 002c 00000000 		.long .L33-.L39
 313 0030 00000000 		.long .L30-.L39
 314 0034 00000000 		.long .L30-.L39
 315 0038 00000000 		.long .L30-.L39
 316 003c 00000000 		.long .L30-.L39
 317 0040 00000000 		.long .L30-.L39
 318 0044 00000000 		.long .L34-.L39
 319 0048 00000000 		.long .L30-.L39
 320 004c 00000000 		.long .L30-.L39
 321 0050 00000000 		.long .L84-.L39
 322 0054 00000000 		.long .L30-.L39
 323 0058 00000000 		.long .L30-.L39
 324 005c 00000000 		.long .L30-.L39
 325 0060 00000000 		.long .L30-.L39
 326 0064 00000000 		.long .L30-.L39
 327 0068 00000000 		.long .L30-.L39
 328 006c 00000000 		.long .L30-.L39
 329 0070 00000000 		.long .L30-.L39
 330 0074 00000000 		.long .L30-.L39
 331 0078 00000000 		.long .L30-.L39
 332 007c 00000000 		.long .L36-.L39
 333 0080 00000000 		.long .L51-.L39
 334 0084 00000000 		.long .L30-.L39
 335 0088 00000000 		.long .L30-.L39
 336 008c 00000000 		.long .L30-.L39
 337 0090 00000000 		.long .L30-.L39
 338 0094 00000000 		.long .L51-.L39
 339 0098 00000000 		.long .L30-.L39
 340 009c 00000000 		.long .L30-.L39
 341 00a0 00000000 		.long .L30-.L39
 342 00a4 00000000 		.long .L30-.L39
GAS LISTING C:\Users\jean\AppData\Local\Temp\ccWMoD13.s 			page 7


 343 00a8 00000000 		.long .L30-.L39
 344 00ac 00000000 		.long .L33-.L39
 345 00b0 00000000 		.long .L30-.L39
 346 00b4 00000000 		.long .L30-.L39
 347 00b8 00000000 		.long .L30-.L39
 348 00bc 00000000 		.long .L37-.L39
 349 00c0 00000000 		.long .L30-.L39
 350 00c4 00000000 		.long .L34-.L39
 351 00c8 00000000 		.long .L30-.L39
 352 00cc 00000000 		.long .L30-.L39
 353 00d0 00000000 		.long .L84-.L39
 354              		.section	.text.chvprintf
 355              	.LVL39:
 356              	.L25:
 357              		.loc 1 162 0 discriminator 1
 358 015a 515E0004 		e_lwz %r10,4(%r30)
 359 015e 190A8004 		e_addi %r8,%r10,4
 360 0162 551E0004 		e_stw %r8,4(%r30)
 361              	.LVL40:
 362              	.L26:
 363              		.loc 1 162 0 is_stmt 0 discriminator 4
 364 0166 314A0003 		e_lbz %r10,3(%r10)
 365              	.LVL41:
 366              	.L24:
 367              		.loc 1 165 0 is_stmt 1
 368 016a 7D280870 		e_slwi %r8,%r9,1
 369 016e 7D291870 		e_slwi %r9,%r9,3
 370              	.LVL42:
 371 0172 7D284A14 		add %r9,%r8,%r9
 372              	.LVL43:
 373              		.loc 1 166 0
 374 0176 7D2A4A14 		add %r9,%r10,%r9
 375              	.LVL44:
 376              	.L27:
 377              		.loc 1 158 0
 378 017a 1AD68001 		e_addi %r22,%r22,1
 379              	.LVL45:
 380 017e 3116FFFF 		e_lbz %r8,-1(%r22)
 381              	.LVL46:
 382              		.loc 1 159 0
 383 0182 194884D0 		e_addi %r10,%r8,-48
 384 0186 754A063F 		e_rlwinm %r10,%r10,0,0xff
 385 018a 18AAA809 		e_cmpli %cr1,%r10,9
 386 018e 7A05FFDC 		e_ble %cr1,.L24
 387              		.loc 1 161 0
 388 0192 18A8A82A 		e_cmpli %cr1,%r8,42
 389 0196 7A06FF9E 		e_bne %cr1,.L23
 390              		.loc 1 162 0
 391 019a 315E0000 		e_lbz %r10,0(%r30)
 392 019e 18AAA808 		e_cmpli %cr1,%r10,8
 393 01a2 7A04FFB8 		e_bge %cr1,.L25
 394              		.loc 1 162 0 is_stmt 0 discriminator 2
 395 01a6 18EA8001 		e_addi %r7,%r10,1
 396 01aa 511E0008 		e_lwz %r8,8(%r30)
 397 01ae 7D4A1070 		e_slwi %r10,%r10,2
 398 01b2 907E     		se_stb %r7,0(%r30)
 399              	.LVL47:
GAS LISTING C:\Users\jean\AppData\Local\Temp\ccWMoD13.s 			page 8


 400 01b4 7D485214 		add %r10,%r8,%r10
 401 01b8 79FFFFAE 		e_b .L26
 402              	.L37:
 403              	.LVL48:
 404              		.loc 1 186 0 is_stmt 1
 405 01bc 315E0000 		e_lbz %r10,0(%r30)
 406 01c0 18AAA808 		e_cmpli %cr1,%r10,8
 407 01c4 7A040292 		e_bge %cr1,.L44
 408              		.loc 1 186 0 is_stmt 0 discriminator 2
 409 01c8 18EA8001 		e_addi %r7,%r10,1
 410 01cc 511E0008 		e_lwz %r8,8(%r30)
 411 01d0 7D4A1070 		e_slwi %r10,%r10,2
 412 01d4 907E     		se_stb %r7,0(%r30)
 413 01d6 7D485214 		add %r10,%r8,%r10
 414 01da 526A0000 		e_lwz %r19,0(%r10)
 415              	.LVL49:
 416 01de 1833A800 		e_cmpi %cr1,%r19,0
 417 01e2 7A16028C 		e_beq %cr1,.L111
 418              	.L46:
 419              		.loc 1 190 0 is_stmt 1
 420 01e6 31530000 		e_lbz %r10,0(%r19)
 421              		.loc 1 188 0
 422 01ea 1829A800 		e_cmpi %cr1,%r9,0
 423 01ee 7A060290 		e_bne %cr1,.L112
 424              	.L47:
 425              	.LVL50:
 426              		.loc 1 190 0
 427 01f2 712F07FE 		e_li %r9,32766
 428 01f6 182AA800 		e_cmpi %cr1,%r10,0
 429 01fa 7A1602C4 		e_beq %cr1,.L48
 430              	.LVL51:
 431              	.L73:
 432              		.loc 1 190 0 is_stmt 0 discriminator 4
 433 01fe 19298001 		e_addi %r9,%r9,1
 434              	.LVL52:
 435 0202 03B3     		se_mfar %r3,%r19
 436 0204 7D2903A6 		mtctr %r9
 437 0208 78000008 		e_b .L50
 438              	.LVL53:
 439              	.L113:
 440              		.loc 1 190 0 discriminator 3
 441 020c 7A300010 		e_bdz .L101
 442              	.LVL54:
 443              	.L50:
 444              		.loc 1 190 0 discriminator 4
 445 0210 19230001 		e_lbzu %r9,1(%r3)
 446              	.LVL55:
 447 0214 1829A800 		e_cmpi %cr1,%r9,0
 448 0218 7A06FFF4 		e_bne %cr1,.L113
 449              	.L101:
 450 021c 7C731850 		subf %r3, %r19, %r3
 451              	.LVL56:
 452              		.loc 1 190 0
 453 0220 7ED2B378 		mr %r18,%r22
 454 0224 18E384FF 		e_addi %r7,%r3,-1
 455 0228 7D23F851 		subf. %r9,%r3,%r31
 456              		.loc 1 185 0 is_stmt 1
GAS LISTING C:\Users\jean\AppData\Local\Temp\ccWMoD13.s 			page 9


 457 022c 4A0D     		se_li %r29,32
 458              	.LVL57:
 459 022e 0178     		se_mr %r24,%r7
 460              		.loc 1 242 0
 461 0230 1834A800 		e_cmpi %cr1,%r20,0
 462 0234 7FE0481E 		isel %r31,0,%r9,0
 463              	.LVL58:
 464 0238 7A1600DA 		e_beq %cr1,.L75
 465              	.LVL59:
 466              	.L64:
 467 023c 187FA800 		e_cmpi %cr3,%r31,0
 468              		.loc 1 253 0
 469 0240 2A08     		se_cmpi %r24,0
 470 0242 7A100028 		e_blt %cr0,.L69
 471              	.L74:
 472 0246 1A9384FF 		e_addi %r20,%r19,-1
 473              	.LVL60:
 474              	.L70:
 475              		.loc 1 254 0
 476 024a 51350000 		e_lwz %r9,0(%r21)
 477 024e 03D3     		se_mfar %r3,%r21
 478 0250 51290008 		e_lwz %r9,8(%r9)
 479 0254 18940001 		e_lbzu %r4,1(%r20)
 480              	.LVL61:
 481 0258 7D2903A6 		mtctr %r9
 482              		.loc 1 253 0
 483 025c 1B1884FF 		e_addi %r24,%r24,-1
 484              	.LVL62:
 485              		.loc 1 254 0
 486 0260 0007     		se_bctrl
 487              	.LVL63:
 488              		.loc 1 253 0
 489 0262 1838ACFF 		e_cmpi %cr1,%r24,-1
 490 0266 7A06FFE4 		e_bne %cr1,.L70
 491              	.LVL64:
 492              	.L69:
 493              		.loc 1 256 0
 494 026a 7A1EFDD6 		e_beq %cr3,.L12
 495              	.LVL65:
 496              	.L71:
 497              		.loc 1 257 0
 498 026e 51350000 		e_lwz %r9,0(%r21)
 499 0272 03D3     		se_mfar %r3,%r21
 500 0274 51290008 		e_lwz %r9,8(%r9)
 501 0278 01D4     		se_mr %r4,%r29
 502 027a 7D2903A6 		mtctr %r9
 503              		.loc 1 256 0
 504 027e 1BFF84FF 		e_addi %r31,%r31,-1
 505              	.LVL66:
 506              		.loc 1 257 0
 507 0282 0007     		se_bctrl
 508              	.LVL67:
 509              		.loc 1 256 0
 510 0284 2A0F     		se_cmpi %r31,0
 511 0286 7A02FFE8 		e_bne %cr0,.L71
 512 028a 79FFFDB6 		e_b .L12
 513              	.LVL68:
GAS LISTING C:\Users\jean\AppData\Local\Temp\ccWMoD13.s 			page 10


 514              	.L36:
 515              		.loc 1 182 0
 516 028e 313E0000 		e_lbz %r9,0(%r30)
 517              	.LVL69:
 518 0292 18A9A808 		e_cmpli %cr1,%r9,8
 519 0296 7A0401B0 		e_bge %cr1,.L41
 520              		.loc 1 182 0 is_stmt 0 discriminator 2
 521 029a 19098001 		e_addi %r8,%r9,1
 522 029e 515E0008 		e_lwz %r10,8(%r30)
 523 02a2 7D291070 		e_slwi %r9,%r9,2
 524 02a6 351E0000 		e_stb %r8,0(%r30)
 525 02aa 7D2A4A14 		add %r9,%r10,%r9
 526              	.L42:
 527              		.loc 1 182 0 discriminator 4
 528 02ae 51290000 		e_lwz %r9,0(%r9)
 529 02b2 0193     		se_mr %r3,%r25
 530 02b4 35210008 		e_stb %r9,8(%r1)
 531 02b8 18F984FF 		e_addi %r7,%r25,-1
 532              		.loc 1 183 0 is_stmt 1 discriminator 4
 533 02bc 7ED2B378 		mr %r18,%r22
 534              		.loc 1 181 0 discriminator 4
 535 02c0 4A0D     		se_li %r29,32
 536              		.loc 1 133 0 discriminator 4
 537 02c2 02CB     		se_mtar %r19,%r28
 538              		.loc 1 183 0 discriminator 4
 539 02c4 7800003C 		e_b .L43
 540              	.LVL70:
 541              	.L34:
 542              		.loc 1 224 0
 543 02c8 7ED2B378 		mr %r18,%r22
 544 02cc 48A5     		se_li %r5,10
 545              	.L40:
 546              	.LVL71:
 547              	.L58:
 548              		.loc 1 232 0
 549 02ce 313E0000 		e_lbz %r9,0(%r30)
 550              	.LVL72:
 551 02d2 18A9A808 		e_cmpli %cr1,%r9,8
 552 02d6 7A04008C 		e_bge %cr1,.L62
 553              	.L115:
 554              		.loc 1 232 0 is_stmt 0 discriminator 2
 555 02da 19098001 		e_addi %r8,%r9,1
 556 02de 515E0008 		e_lwz %r10,8(%r30)
 557 02e2 7D291070 		e_slwi %r9,%r9,2
 558 02e6 351E0000 		e_stb %r8,0(%r30)
 559 02ea 7D2A4A14 		add %r9,%r10,%r9
 560              	.L63:
 561              		.loc 1 232 0 discriminator 4
 562 02ee 50890000 		e_lwz %r4,0(%r9)
 563              	.LVL73:
 564              	.LBB6:
 565              	.LBB7:
 566              		.loc 1 72 0 is_stmt 1 discriminator 4
 567 02f2 01C3     		se_mr %r3,%r28
 568              	.LBE7:
 569              	.LBE6:
 570              		.loc 1 133 0 discriminator 4
GAS LISTING C:\Users\jean\AppData\Local\Temp\ccWMoD13.s 			page 11


 571 02f4 02CB     		se_mtar %r19,%r28
 572              	.LBB9:
 573              	.LBB8:
 574              		.loc 1 72 0 discriminator 4
 575 02f6 78000001 		e_bl long_to_string_with_divisor.constprop.0
 576              	.LVL74:
 577 02fa 06C3     		se_sub %r3, %r28
 578 02fc 18E384FF 		e_addi %r7,%r3,-1
 579              	.LVL75:
 580              	.L43:
 581 0300 7D23F851 		subf. %r9,%r3,%r31
 582              	.LVL76:
 583              	.LBE8:
 584              	.LBE9:
 585 0304 0178     		se_mr %r24,%r7
 586              		.loc 1 242 0
 587 0306 1834A800 		e_cmpi %cr1,%r20,0
 588 030a 7FE0481E 		isel %r31,0,%r9,0
 589              	.LVL77:
 590 030e 7A06FF2E 		e_bne %cr1,.L64
 591              	.LVL78:
 592              	.L75:
 593              		.loc 1 244 0
 594 0312 003F     		se_neg %r31
 595              	.LVL79:
 596 0314 187FA800 		e_cmpi %cr3,%r31,0
 597 0318 7A1E002C 		e_beq %cr3,.L65
 598              		.loc 1 245 0
 599 031c 31330000 		e_lbz %r9,0(%r19)
 600 0320 1829A82D 		e_cmpi %cr1,%r9,45
 601 0324 7A16016A 		e_beq %cr1,.L114
 602              	.LVL80:
 603              	.L67:
 604              		.loc 1 250 0 discriminator 1
 605 0328 51350000 		e_lwz %r9,0(%r21)
 606 032c 03D3     		se_mfar %r3,%r21
 607 032e 51290008 		e_lwz %r9,8(%r9)
 608 0332 01D4     		se_mr %r4,%r29
 609 0334 7D2903A6 		mtctr %r9
 610              		.loc 1 251 0 discriminator 1
 611 0338 200F     		se_addi %r31,1
 612              	.LVL81:
 613 033a 187FA800 		e_cmpi %cr3,%r31,0
 614              		.loc 1 250 0 discriminator 1
 615 033e 0007     		se_bctrl
 616              	.LVL82:
 617              		.loc 1 251 0 discriminator 1
 618 0340 7A0EFFE8 		e_bne %cr3,.L67
 619              	.L65:
 620              	.LVL83:
 621              		.loc 1 253 0
 622 0344 1838A800 		e_cmpi %cr1,%r24,0
 623 0348 7A04FEFE 		e_bge %cr1,.L74
 624 034c 79FFFCF4 		e_b .L12
 625              	.LVL84:
 626              	.L33:
 627              		.loc 1 232 0
GAS LISTING C:\Users\jean\AppData\Local\Temp\ccWMoD13.s 			page 12


 628 0350 313E0000 		e_lbz %r9,0(%r30)
 629              	.LVL85:
 630 0354 7ED2B378 		mr %r18,%r22
 631 0358 4885     		se_li %r5,8
 632 035a 18A9A808 		e_cmpli %cr1,%r9,8
 633 035e 7A14FF7C 		e_blt %cr1,.L115
 634              	.LVL86:
 635              	.L62:
 636              		.loc 1 232 0 is_stmt 0 discriminator 1
 637 0362 513E0004 		e_lwz %r9,4(%r30)
 638 0366 19498004 		e_addi %r10,%r9,4
 639 036a 555E0004 		e_stw %r10,4(%r30)
 640 036e 79FFFF80 		e_b .L63
 641              	.LVL87:
 642              	.L51:
 643              		.loc 1 200 0 is_stmt 1
 644 0372 313E0000 		e_lbz %r9,0(%r30)
 645              	.LVL88:
 646 0376 18A9A808 		e_cmpli %cr1,%r9,8
 647 037a 7A04009E 		e_bge %cr1,.L55
 648              		.loc 1 200 0 is_stmt 0 discriminator 2
 649 037e 19098001 		e_addi %r8,%r9,1
 650 0382 515E0008 		e_lwz %r10,8(%r30)
 651 0386 7D291070 		e_slwi %r9,%r9,2
 652 038a 351E0000 		e_stb %r8,0(%r30)
 653 038e 7D2A4A14 		add %r9,%r10,%r9
 654 0392 7ED2B378 		mr %r18,%r22
 655 0396 50890000 		e_lwz %r4,0(%r9)
 656              	.LVL89:
 657              		.loc 1 132 0 is_stmt 1 discriminator 2
 658 039a 01C3     		se_mr %r3,%r28
 659              		.loc 1 201 0 discriminator 2
 660 039c 1824A800 		e_cmpi %cr1,%r4,0
 661 03a0 7A140096 		e_blt %cr1,.L116
 662              	.LVL90:
 663              	.L57:
 664              	.LBB10:
 665              	.LBB11:
 666              		.loc 1 72 0
 667 03a4 48A5     		se_li %r5,10
 668              	.LBE11:
 669              	.LBE10:
 670              		.loc 1 133 0
 671 03a6 02CB     		se_mtar %r19,%r28
 672              	.LBB13:
 673              	.LBB12:
 674              		.loc 1 72 0
 675 03a8 78000001 		e_bl long_to_string_with_divisor.constprop.0
 676              	.LVL91:
 677 03ac 06C3     		se_sub %r3, %r28
 678 03ae 18E384FF 		e_addi %r7,%r3,-1
 679              	.LBE12:
 680              	.LBE13:
 681              		.loc 1 206 0
 682 03b2 79FFFF4E 		e_b .L43
 683              	.LVL92:
 684              	.L81:
GAS LISTING C:\Users\jean\AppData\Local\Temp\ccWMoD13.s 			page 13


 685              		.loc 1 179 0
 686 03b6 0270     		se_mtar %r8,%r7
 687              	.LVL93:
 688              	.L30:
 689              		.loc 1 236 0
 690 03b8 35010008 		e_stb %r8,8(%r1)
 691 03bc 0193     		se_mr %r3,%r25
 692 03be 18F984FF 		e_addi %r7,%r25,-1
 693              		.loc 1 237 0
 694 03c2 7ED2B378 		mr %r18,%r22
 695              		.loc 1 133 0
 696 03c6 02CB     		se_mtar %r19,%r28
 697              		.loc 1 237 0
 698 03c8 79FFFF38 		e_b .L43
 699              	.LVL94:
 700              	.L110:
 701              		.loc 1 172 0
 702 03cc 30F60000 		e_lbz %r7,0(%r22)
 703 03d0 1827A800 		e_cmpi %cr1,%r7,0
 704 03d4 7A16FFE4 		e_beq %cr1,.L30
 705              		.loc 1 179 0
 706 03d8 194784BC 		e_addi %r10,%r7,-68
 707              		.loc 1 173 0
 708 03dc 1AD68001 		e_addi %r22,%r22,1
 709              	.LVL95:
 710              		.loc 1 179 0
 711 03e0 754A063F 		e_rlwinm %r10,%r10,0,0xff
 712 03e4 18AAA834 		e_cmpli %cr1,%r10,52
 713 03e8 7A15FFCE 		e_bgt %cr1,.L81
 714 03ec 7D4A1070 		e_slwi %r10,%r10,2
 715 03f0 7D5A502E 		lwzx %r10,%r26,%r10
 716 03f4 7D4AD214 		add %r10,%r10,%r26
 717 03f8 7D4903A6 		mtctr %r10
 718 03fc 0006     		se_bctr
 719              		.section	.rodata.chvprintf
 720              		.align 2
 721              		.align 2
 722              	.L32:
 723 00d4 00000000 		.long .L51-.L32
 724 00d8 00000000 		.long .L81-.L32
 725 00dc 00000000 		.long .L81-.L32
 726 00e0 00000000 		.long .L81-.L32
 727 00e4 00000000 		.long .L81-.L32
 728 00e8 00000000 		.long .L51-.L32
 729 00ec 00000000 		.long .L81-.L32
 730 00f0 00000000 		.long .L81-.L32
 731 00f4 00000000 		.long .L81-.L32
 732 00f8 00000000 		.long .L81-.L32
 733 00fc 00000000 		.long .L81-.L32
 734 0100 00000000 		.long .L33-.L32
 735 0104 00000000 		.long .L81-.L32
 736 0108 00000000 		.long .L81-.L32
 737 010c 00000000 		.long .L81-.L32
 738 0110 00000000 		.long .L81-.L32
 739 0114 00000000 		.long .L81-.L32
 740 0118 00000000 		.long .L34-.L32
 741 011c 00000000 		.long .L81-.L32
GAS LISTING C:\Users\jean\AppData\Local\Temp\ccWMoD13.s 			page 14


 742 0120 00000000 		.long .L81-.L32
 743 0124 00000000 		.long .L35-.L32
 744 0128 00000000 		.long .L81-.L32
 745 012c 00000000 		.long .L81-.L32
 746 0130 00000000 		.long .L81-.L32
 747 0134 00000000 		.long .L81-.L32
 748 0138 00000000 		.long .L81-.L32
 749 013c 00000000 		.long .L81-.L32
 750 0140 00000000 		.long .L81-.L32
 751 0144 00000000 		.long .L81-.L32
 752 0148 00000000 		.long .L81-.L32
 753 014c 00000000 		.long .L81-.L32
 754 0150 00000000 		.long .L36-.L32
 755 0154 00000000 		.long .L51-.L32
 756 0158 00000000 		.long .L81-.L32
 757 015c 00000000 		.long .L81-.L32
 758 0160 00000000 		.long .L81-.L32
 759 0164 00000000 		.long .L81-.L32
 760 0168 00000000 		.long .L51-.L32
 761 016c 00000000 		.long .L81-.L32
 762 0170 00000000 		.long .L81-.L32
 763 0174 00000000 		.long .L81-.L32
 764 0178 00000000 		.long .L81-.L32
 765 017c 00000000 		.long .L81-.L32
 766 0180 00000000 		.long .L33-.L32
 767 0184 00000000 		.long .L81-.L32
 768 0188 00000000 		.long .L81-.L32
 769 018c 00000000 		.long .L81-.L32
 770 0190 00000000 		.long .L37-.L32
 771 0194 00000000 		.long .L81-.L32
 772 0198 00000000 		.long .L34-.L32
 773 019c 00000000 		.long .L81-.L32
 774 01a0 00000000 		.long .L81-.L32
 775 01a4 00000000 		.long .L35-.L32
 776              		.section	.text.chvprintf
 777              	.LVL96:
 778              	.L108:
 779              		.loc 1 136 0
 780 03fe 1AD28002 		e_addi %r22,%r18,2
 781              	.LVL97:
 782 0402 31120002 		e_lbz %r8,2(%r18)
 783              		.loc 1 137 0
 784 0406 72800001 		e_li %r20,1
 785 040a 79FFFC9A 		e_b .L16
 786              	.LVL98:
 787              	.L84:
 788              		.loc 1 179 0
 789 040e 7ED2B378 		mr %r18,%r22
 790 0412 4905     		se_li %r5,16
 791              	.LVL99:
 792 0414 79FFFEBA 		e_b .L58
 793              	.LVL100:
 794              	.L55:
 795              		.loc 1 200 0 discriminator 1
 796 0418 513E0004 		e_lwz %r9,4(%r30)
 797 041c 7ED2B378 		mr %r18,%r22
 798 0420 19498004 		e_addi %r10,%r9,4
GAS LISTING C:\Users\jean\AppData\Local\Temp\ccWMoD13.s 			page 15


 799              		.loc 1 132 0 discriminator 1
 800 0424 01C3     		se_mr %r3,%r28
 801              		.loc 1 200 0 discriminator 1
 802 0426 555E0004 		e_stw %r10,4(%r30)
 803 042a 50890000 		e_lwz %r4,0(%r9)
 804              	.LVL101:
 805              		.loc 1 201 0 discriminator 1
 806 042e 1824A800 		e_cmpi %cr1,%r4,0
 807 0432 7A04FF72 		e_bge %cr1,.L57
 808              	.LVL102:
 809              	.L116:
 810              		.loc 1 202 0
 811 0436 7120002D 		e_li %r9,45
 812              		.loc 1 203 0
 813 043a 0034     		se_neg %r4
 814              	.LVL103:
 815              		.loc 1 202 0
 816 043c 35210008 		e_stb %r9,8(%r1)
 817 0440 03F3     		se_mfar %r3,%r23
 818              	.LVL104:
 819 0442 79FFFF62 		e_b .L57
 820              	.LVL105:
 821              	.L41:
 822              		.loc 1 182 0 discriminator 1
 823 0446 513E0004 		e_lwz %r9,4(%r30)
 824 044a 19498004 		e_addi %r10,%r9,4
 825 044e 555E0004 		e_stw %r10,4(%r30)
 826 0452 79FFFE5C 		e_b .L42
 827              	.LVL106:
 828              	.L44:
 829              		.loc 1 186 0 discriminator 1
 830 0456 515E0004 		e_lwz %r10,4(%r30)
 831 045a 190A8004 		e_addi %r8,%r10,4
 832 045e 551E0004 		e_stw %r8,4(%r30)
 833 0462 526A0000 		e_lwz %r19,0(%r10)
 834              	.LVL107:
 835 0466 1833A800 		e_cmpi %cr1,%r19,0
 836 046a 7A06FD7C 		e_bne %cr1,.L46
 837              	.L111:
 838              		.loc 1 187 0
 839 046e 7E338B78 		mr %r19,%r17
 840              	.LVL108:
 841              		.loc 1 188 0
 842 0472 1829A800 		e_cmpi %cr1,%r9,0
 843              		.loc 1 190 0
 844 0476 31530000 		e_lbz %r10,0(%r19)
 845              		.loc 1 188 0
 846 047a 7A16FD78 		e_beq %cr1,.L47
 847              	.L112:
 848              	.LVL109:
 849              		.loc 1 190 0 discriminator 1
 850 047e 182AA800 		e_cmpi %cr1,%r10,0
 851 0482 7A16003C 		e_beq %cr1,.L48
 852              		.loc 1 190 0 is_stmt 0
 853 0486 192984FF 		e_addi %r9,%r9,-1
 854              	.LVL110:
 855 048a 79FFFD74 		e_b .L73
GAS LISTING C:\Users\jean\AppData\Local\Temp\ccWMoD13.s 			page 16


 856              	.LVL111:
 857              	.L114:
 858              		.loc 1 245 0 is_stmt 1 discriminator 1
 859 048e 18BDA830 		e_cmpli %cr1,%r29,48
 860 0492 7A06FE96 		e_bne %cr1,.L67
 861              		.loc 1 246 0
 862 0496 51350000 		e_lwz %r9,0(%r21)
 863 049a 03D3     		se_mfar %r3,%r21
 864 049c 51290008 		e_lwz %r9,8(%r9)
 865 04a0 4AD4     		se_li %r4,45
 866 04a2 7D2903A6 		mtctr %r9
 867 04a6 1A738001 		e_addi %r19,%r19,1
 868              	.LVL112:
 869 04aa 1B1884FF 		e_addi %r24,%r24,-1
 870 04ae 0007     		se_bctrl
 871              	.LVL113:
 872 04b0 79FFFE78 		e_b .L67
 873              	.LVL114:
 874              	.L35:
 875              		.loc 1 179 0
 876 04b4 4905     		se_li %r5,16
 877              	.LVL115:
 878              		.loc 1 173 0
 879 04b6 7ED2B378 		mr %r18,%r22
 880 04ba 79FFFE14 		e_b .L58
 881              	.LVL116:
 882              	.L48:
 883 04be 183FA800 		e_cmpi %cr1,%r31,0
 884              		.loc 1 242 0
 885 04c2 7ED2B378 		mr %r18,%r22
 886 04c6 70149800 		e_cmp16i %r20,0
 887 04ca 7FE0F91E 		isel %r31,0,%r31,4
 888              	.LVL117:
 889 04ce 7A02000C 		e_bne %cr0,.L87
 890              	.LVL118:
 891 04d2 2C08     		se_bmaski %r24,0
 892 04d4 4A0D     		se_li %r29,32
 893 04d6 79FFFE3C 		e_b .L75
 894              	.L87:
 895 04da 4A0D     		se_li %r29,32
 896 04dc 187FA800 		e_cmpi %cr3,%r31,0
 897 04e0 79FFFD8A 		e_b .L69
 898              		.cfi_endproc
 899              	.LFE18:
 900              		.size	chvprintf, .-chvprintf
 901              		.section	.text.chsnprintf,"axv",@progbits
 902              		.align 1
 903              		.p2align 4,,15
 904              		.globl chsnprintf
 905              		.type	chsnprintf, @function
 906              	chsnprintf:
 907              	.LFB19:
 908              		.loc 1 288 0
 909              		.cfi_startproc
 910              	.LVL119:
 911 0000 182106B0 		e_stwu %r1,-80(%r1)
 912              	.LCFI3:
GAS LISTING C:\Users\jean\AppData\Local\Temp\ccWMoD13.s 			page 17


 913              		.cfi_def_cfa_offset 80
 914 0004 0080     		se_mflr %r0
 915 0006 1BA10944 		e_stmw %r29,68(%r1)
 916 000a 54010054 		e_stw %r0,84(%r1)
 917              		.cfi_offset 65, 4
 918              		.cfi_offset 29, -12
 919              		.cfi_offset 30, -8
 920              		.cfi_offset 31, -4
 921              		.loc 1 288 0
 922 000e 013F     		se_mr %r31,%r3
 923 0010 015D     		se_mr %r29,%r5
 924 0012 DB61     		se_stw %r6,44(%r1)
 925 0014 DC71     		se_stw %r7,48(%r1)
 926 0016 55010034 		e_stw %r8,52(%r1)
 927 001a 55210038 		e_stw %r9,56(%r1)
 928 001e 5541003C 		e_stw %r10,60(%r1)
 929              		.loc 1 295 0
 930 0022 18A484FF 		e_addi %r5,%r4,-1
 931              	.LVL120:
 932              		.loc 1 299 0
 933 0026 480E     		se_li %r30,0
 934              		.loc 1 295 0
 935 0028 0134     		se_mr %r4,%r3
 936              	.LVL121:
 937 002a 4806     		se_li %r6,0
 938 002c 18618008 		e_addi %r3,%r1,8
 939              	.LVL122:
 940 0030 78000001 		e_bl msObjectInit
 941              	.LVL123:
 942              		.loc 1 299 0
 943 0034 0211     		se_mtar %r9,%r1
 944              		.loc 1 300 0
 945 0036 18618008 		e_addi %r3,%r1,8
 946              	.LVL124:
 947              		.loc 1 299 0
 948 003a 37C1001D 		e_stb %r30,29(%r1)
 949 003e 71400003 		e_li %r10,3
 950              		.loc 1 300 0
 951 0042 01D4     		se_mr %r4,%r29
 952              		.loc 1 299 0
 953 0044 3541001C 		e_stb %r10,28(%r1)
 954              		.loc 1 300 0
 955 0048 18A1801C 		e_addi %r5,%r1,28
 956              		.loc 1 299 0
 957 004c 19418058 		e_addi %r10,%r1,88
 958 0050 19490620 		e_stwu %r10,32(%r9)
 959 0054 55210024 		e_stw %r9,36(%r1)
 960              		.loc 1 300 0
 961 0058 78000001 		e_bl chvprintf
 962              	.LVL125:
 963              		.loc 1 304 0
 964 005c C531     		se_lwz %r3,20(%r1)
 965 005e 7FDF19AE 		stbx %r30,%r31,%r3
 966              		.loc 1 306 0
 967 0062 50010054 		e_lwz %r0,84(%r1)
 968 0066 0090     		se_mtlr %r0
 969              		.cfi_restore 65
GAS LISTING C:\Users\jean\AppData\Local\Temp\ccWMoD13.s 			page 18


 970 0068 1BA10844 		e_lmw %r29,68(%r1)
 971              	.LVL126:
 972 006c 18218050 		e_addi %r1,%r1,80
 973              	.LCFI4:
 974              		.cfi_restore 31
 975              		.cfi_restore 30
 976              		.cfi_restore 29
 977              		.cfi_def_cfa_offset 0
 978              	.LVL127:
 979 0070 0004     		se_blr
 980              		.cfi_endproc
 981              	.LFE19:
 982              		.size	chsnprintf, .-chsnprintf
 983              		.section	.rodata.str1.4,"aMS",@progbits,1
 984              		.align 2
 985              	.LC0:
 986 0000 286E756C 		.string	"(null)"
 986      6C2900
 987              		.section	".text","axv"
 988              	.Letext0:
 989              		.file 2 "c:\\spc5studio\\eclipse\\plugins\\com.st.tools.spc5.tools.gnu.gcc.ppcvle.win32_1.0.0.2016
 990              		.file 3 "c:\\spc5studio\\eclipse\\plugins\\com.st.tools.spc5.tools.gnu.gcc.ppcvle.win32_1.0.0.2016
 991              		.file 4 "c:\\spc5studio\\eclipse\\plugins\\com.st.tools.spc5.tools.gnu.gcc.ppcvle.win32_1.0.0.2016
 992              		.file 5 "./components/chibios_rt_spc560dxx_kernel_port_component/lib/include/chtypes.h"
 993              		.file 6 "./components/chibios_rt_portable_kernel_component/lib/include/chstreams.h"
 994              		.file 7 "c:\\spc5studio\\eclipse\\plugins\\com.st.tools.spc5.tools.gnu.gcc.ppcvle.win32_1.0.0.2016
 995              		.file 8 "<built-in>"
 996              		.file 9 "./components/chibios_rt_portable_output_formatter_component/lib/include/memstreams.h"