GAS LISTING C:\Users\jean\AppData\Local\Temp\ccBuBDMH.s 			page 1


   1              		.file	"chqueues.c"
   2              		.section	".text","axv"
   3              	.Ltext0:
   4              		.cfi_sections	.debug_frame
   5              		.section	.text.qwait,"axv",@progbits
   6              		.align 1
   7              		.p2align 4,,15
   8              		.type	qwait, @function
   9              	qwait:
  10              	.LFB15:
  11              		.file 1 "./components/chibios_rt_portable_kernel_component/lib/src/chqueues.c"
  12              		.loc 1 70 0
  13              		.cfi_startproc
  14              	.LVL0:
  15              		.loc 1 70 0
  16 0000 0232     		se_mtar %r10,%r3
  17              		.loc 1 72 0
  18 0002 1824A800 		e_cmpi %cr1,%r4,0
  19 0006 7A16002A 		e_beq %cr1,.L2
  20              		.loc 1 74 0
  21 000a 7120E000 		e_lis %r9,rlist+24@ha
  22              		.loc 1 76 0
  23 000e 48D3     		se_li %r3,13
  24              	.LVL1:
  25              		.loc 1 74 0
  26 0010 51290000 		e_lwz %r9,rlist+24@l(%r9)
  27 0014 55490024 		e_stw %r10,36(%r9)
  28              	.LVL2:
  29              	.LBB42:
  30              	.LBB43:
  31              		.file 2 "./components/chibios_rt_portable_kernel_component/lib/include/chinline.h"
  32              		.loc 2 54 0
  33 0018 55490000 		e_stw %r10,0(%r9)
  34              		.loc 2 55 0
  35 001c 510A0004 		e_lwz %r8,4(%r10)
  36 0020 55090004 		e_stw %r8,4(%r9)
  37              		.loc 2 56 0
  38 0024 552A0004 		e_stw %r9,4(%r10)
  39 0028 55280000 		e_stw %r9,0(%r8)
  40              	.LBE43:
  41              	.LBE42:
  42              		.loc 1 77 0
  43              		.loc 1 76 0
  44 002c 78000000 		e_b chSchGoSleepTimeoutS
  45              	.LVL3:
  46              	.L2:
  47              		.loc 1 77 0
  48 0030 2C03     		se_bmaski %r3,0
  49              	.LVL4:
  50 0032 0004     		se_blr
  51              		.cfi_endproc
  52              	.LFE15:
  53              		.size	qwait, .-qwait
  54              		.section	.text.chIQInit,"axv",@progbits
  55              		.align 1
  56              		.p2align 4,,15
  57              		.globl chIQInit
GAS LISTING C:\Users\jean\AppData\Local\Temp\ccBuBDMH.s 			page 2


  58              		.type	chIQInit, @function
  59              	chIQInit:
  60              	.LFB16:
  61              		.loc 1 96 0
  62              		.cfi_startproc
  63              	.LVL5:
  64              		.loc 1 101 0
  65 0000 7CA42A14 		add %r5,%r4,%r5
  66              	.LVL6:
  67              		.loc 1 99 0
  68 0004 71200000 		e_li %r9,0
  69              		.loc 1 98 0
  70 0008 D133     		se_stw %r3,4(%r3)
  71 000a D033     		se_stw %r3,0(%r3)
  72              		.loc 1 99 0
  73 000c 55230008 		e_stw %r9,8(%r3)
  74              		.loc 1 100 0
  75 0010 D543     		se_stw %r4,20(%r3)
  76 0012 D643     		se_stw %r4,24(%r3)
  77 0014 D343     		se_stw %r4,12(%r3)
  78              		.loc 1 101 0
  79 0016 D453     		se_stw %r5,16(%r3)
  80              		.loc 1 102 0
  81 0018 D763     		se_stw %r6,28(%r3)
  82              		.loc 1 103 0
  83 001a D873     		se_stw %r7,32(%r3)
  84 001c 0004     		se_blr
  85              		.cfi_endproc
  86              	.LFE16:
  87              		.size	chIQInit, .-chIQInit
  88              		.section	.text.chIQResetI,"axv",@progbits
  89              		.align 1
  90              		.p2align 4,,15
  91              		.globl chIQResetI
  92              		.type	chIQResetI, @function
  93              	chIQResetI:
  94              	.LFB17:
  95              		.loc 1 117 0
  96              		.cfi_startproc
  97              	.LVL7:
  98 0000 182106F0 		e_stwu %r1,-16(%r1)
  99              	.LCFI0:
 100              		.cfi_def_cfa_offset 16
 101 0004 0080     		se_mflr %r0
 102 0006 1BC10908 		e_stmw %r30,8(%r1)
 103 000a D501     		se_stw %r0,20(%r1)
 104              		.cfi_offset 65, 4
 105              		.cfi_offset 30, -8
 106              		.cfi_offset 31, -4
 107              		.loc 1 117 0
 108 000c 013F     		se_mr %r31,%r3
 109              		.loc 1 121 0
 110 000e 5123000C 		e_lwz %r9,12(%r3)
 111              		.loc 1 124 0
 112 0012 73DF7FFE 		e_li %r30,-2
 113              		.loc 1 123 0
 114 0016 C033     		se_lwz %r3,0(%r3)
GAS LISTING C:\Users\jean\AppData\Local\Temp\ccBuBDMH.s 			page 3


 115              	.LVL8:
 116              		.loc 1 121 0
 117 0018 553F0014 		e_stw %r9,20(%r31)
 118 001c 553F0018 		e_stw %r9,24(%r31)
 119              		.loc 1 123 0
 120 0020 7C83F840 		cmpl %cr1,%r3,%r31
 121              		.loc 1 122 0
 122 0024 71200000 		e_li %r9,0
 123 0028 553F0008 		e_stw %r9,8(%r31)
 124              		.loc 1 123 0
 125 002c 7A160020 		e_beq %cr1,.L5
 126              	.L9:
 127              	.LVL9:
 128              	.LBB44:
 129              	.LBB45:
 130              		.loc 2 62 0
 131 0030 51230000 		e_lwz %r9,0(%r3)
 132 0034 553F0000 		e_stw %r9,0(%r31)
 133 0038 57E90004 		e_stw %r31,4(%r9)
 134              	.LBE45:
 135              	.LBE44:
 136              		.loc 1 124 0
 137 003c 78000001 		e_bl chSchReadyI
 138              	.LVL10:
 139 0040 D9E3     		se_stw %r30,36(%r3)
 140              		.loc 1 123 0
 141 0042 C03F     		se_lwz %r3,0(%r31)
 142 0044 7C83F840 		cmpl %cr1,%r3,%r31
 143 0048 7A06FFE8 		e_bne %cr1,.L9
 144              	.LVL11:
 145              	.L5:
 146              		.loc 1 125 0
 147 004c C501     		se_lwz %r0,20(%r1)
 148 004e 0090     		se_mtlr %r0
 149              		.cfi_restore 65
 150 0050 1BC10808 		e_lmw %r30,8(%r1)
 151              	.LVL12:
 152 0054 20F1     		se_addi %r1,16
 153              	.LCFI1:
 154              		.cfi_restore 31
 155              		.cfi_restore 30
 156              		.cfi_def_cfa_offset 0
 157 0056 0004     		se_blr
 158              		.cfi_endproc
 159              	.LFE17:
 160              		.size	chIQResetI, .-chIQResetI
 161              		.section	.text.chIQPutI,"axv",@progbits
 162              		.align 1
 163              		.p2align 4,,15
 164              		.globl chIQPutI
 165              		.type	chIQPutI, @function
 166              	chIQPutI:
 167              	.LFB18:
 168              		.loc 1 140 0
 169              		.cfi_startproc
 170              	.LVL13:
 171 0000 182106F0 		e_stwu %r1,-16(%r1)
GAS LISTING C:\Users\jean\AppData\Local\Temp\ccBuBDMH.s 			page 4


 172              	.LCFI2:
 173              		.cfi_def_cfa_offset 16
 174 0004 0080     		se_mflr %r0
 175 0006 D3F1     		se_stw %r31,12(%r1)
 176 0008 D501     		se_stw %r0,20(%r1)
 177              		.cfi_offset 65, 4
 178              		.cfi_offset 31, -4
 179              		.loc 1 140 0
 180 000a 0231     		se_mtar %r9,%r3
 181              		.loc 1 144 0
 182 000c C563     		se_lwz %r6,20(%r3)
 183 000e C673     		se_lwz %r7,24(%r3)
 184 0010 0C76     		se_cmp %r6,%r7
 185 0012 7A120060 		e_beq %cr0,.L19
 186              	.L12:
 187              		.loc 1 147 0
 188 0016 51490008 		e_lwz %r10,8(%r9)
 189              		.loc 1 148 0
 190 001a 19068001 		e_addi %r8,%r6,1
 191              		.loc 1 147 0
 192 001e 194A8001 		e_addi %r10,%r10,1
 193              		.loc 1 148 0
 194 0022 55090014 		e_stw %r8,20(%r9)
 195              		.loc 1 147 0
 196 0026 55490008 		e_stw %r10,8(%r9)
 197              		.loc 1 148 0
 198 002a 9046     		se_stb %r4,0(%r6)
 199              		.loc 1 149 0
 200 002c 50E90014 		e_lwz %r7,20(%r9)
 201 0030 50C90010 		e_lwz %r6,16(%r9)
 202 0034 0D67     		se_cmpl %r7,%r6
 203 0036 7A000030 		e_bge %cr0,.L14
 204              	.L15:
 205              		.loc 1 152 0
 206 003a 50690000 		e_lwz %r3,0(%r9)
 207              	.LVL14:
 208              		.loc 1 155 0
 209 003e 480F     		se_li %r31,0
 210              		.loc 1 152 0
 211 0040 7C834840 		cmpl %cr1,%r3,%r9
 212 0044 7A160016 		e_beq %cr1,.L18
 213              	.LVL15:
 214              	.LBB46:
 215              	.LBB47:
 216              		.loc 2 62 0
 217 0048 51030000 		e_lwz %r8,0(%r3)
 218 004c 55090000 		e_stw %r8,0(%r9)
 219 0050 55280004 		e_stw %r9,4(%r8)
 220              	.LBE47:
 221              	.LBE46:
 222              		.loc 1 153 0
 223 0054 78000001 		e_bl chSchReadyI
 224              	.LVL16:
 225 0058 D9F3     		se_stw %r31,36(%r3)
 226              	.LVL17:
 227              	.L18:
 228              		.loc 1 156 0
GAS LISTING C:\Users\jean\AppData\Local\Temp\ccBuBDMH.s 			page 5


 229 005a C501     		se_lwz %r0,20(%r1)
 230 005c 0090     		se_mtlr %r0
 231              		.cfi_remember_state
 232              		.cfi_restore 65
 233 005e 01F3     		se_mr %r3,%r31
 234 0060 C3F1     		se_lwz %r31,12(%r1)
 235 0062 20F1     		se_addi %r1,16
 236              	.LCFI3:
 237              		.cfi_restore 31
 238              		.cfi_def_cfa_offset 0
 239 0064 0004     		se_blr
 240              	.LVL18:
 241              	.L14:
 242              	.LCFI4:
 243              		.cfi_restore_state
 244              		.loc 1 150 0
 245 0066 5149000C 		e_lwz %r10,12(%r9)
 246 006a 55490014 		e_stw %r10,20(%r9)
 247 006e 79FFFFCC 		e_b .L15
 248              	.L19:
 249              		.loc 1 144 0 discriminator 1
 250 0072 51430008 		e_lwz %r10,8(%r3)
 251              		.loc 1 145 0 discriminator 1
 252 0076 73FF7FFC 		e_li %r31,-4
 253              		.loc 1 144 0 discriminator 1
 254 007a 182AA800 		e_cmpi %cr1,%r10,0
 255 007e 7A06FFDC 		e_bne %cr1,.L18
 256 0082 79FFFF94 		e_b .L12
 257              		.cfi_endproc
 258              	.LFE18:
 259              		.size	chIQPutI, .-chIQPutI
 260              		.section	.text.chIQGetTimeout,"axv",@progbits
 261              		.align 1
 262              		.p2align 4,,15
 263              		.globl chIQGetTimeout
 264              		.type	chIQGetTimeout, @function
 265              	chIQGetTimeout:
 266              	.LFB19:
 267              		.loc 1 178 0
 268              		.cfi_startproc
 269              	.LVL19:
 270 0000 182106F0 		e_stwu %r1,-16(%r1)
 271              	.LCFI5:
 272              		.cfi_def_cfa_offset 16
 273 0004 0080     		se_mflr %r0
 274 0006 1BC10908 		e_stmw %r30,8(%r1)
 275 000a D501     		se_stw %r0,20(%r1)
 276              		.cfi_offset 65, 4
 277              		.cfi_offset 30, -8
 278              		.cfi_offset 31, -4
 279              		.loc 1 178 0
 280 000c 013F     		se_mr %r31,%r3
 281 000e 014E     		se_mr %r30,%r4
 282              	.LBB48:
 283              	.LBB49:
 284              		.file 3 "./components/chibios_rt_portable_kernel_component/lib/include/chsys.h"
 285              		.loc 3 149 0
GAS LISTING C:\Users\jean\AppData\Local\Temp\ccBuBDMH.s 			page 6


 286              	 # 149 "./components/chibios_rt_portable_kernel_component/lib/include/chsys.h" 1
 287 0010 7C000146 		wrteei  0
 288              	 # 0 "" 2
 289              	.LBE49:
 290              	.LBE48:
 291              		.loc 1 182 0
 292 0014 5123001C 		e_lwz %r9,28(%r3)
 293 0018 1829A800 		e_cmpi %cr1,%r9,0
 294 001c 7A16001C 		e_beq %cr1,.L22
 295              		.loc 1 183 0
 296 0020 7D2903A6 		mtctr %r9
 297 0024 0007     		se_bctrl
 298              	.LVL20:
 299 0026 78000012 		e_b .L22
 300              	.L24:
 301              	.LBB50:
 302              		.loc 1 187 0
 303 002a 01F3     		se_mr %r3,%r31
 304 002c 01E4     		se_mr %r4,%r30
 305 002e 78000001 		e_bl qwait
 306              	.LVL21:
 307 0032 2A03     		se_cmpi %r3,0
 308 0034 7A10003A 		e_blt %cr0,.L25
 309              	.LVL22:
 310              	.L22:
 311              	.LBE50:
 312              		.loc 1 185 0
 313 0038 513F0008 		e_lwz %r9,8(%r31)
 314 003c 1829A800 		e_cmpi %cr1,%r9,0
 315 0040 7A16FFEA 		e_beq %cr1,.L24
 316              		.loc 1 194 0
 317 0044 515F0018 		e_lwz %r10,24(%r31)
 318              		.loc 1 193 0
 319 0048 513F0008 		e_lwz %r9,8(%r31)
 320              		.loc 1 194 0
 321 004c 18EA8001 		e_addi %r7,%r10,1
 322              		.loc 1 193 0
 323 0050 192984FF 		e_addi %r9,%r9,-1
 324              		.loc 1 194 0
 325 0054 D67F     		se_stw %r7,24(%r31)
 326              		.loc 1 193 0
 327 0056 553F0008 		e_stw %r9,8(%r31)
 328              		.loc 1 195 0
 329 005a C46F     		se_lwz %r6,16(%r31)
 330              		.loc 1 194 0
 331 005c 306A0000 		e_lbz %r3,0(%r10)
 332              	.LVL23:
 333              		.loc 1 195 0
 334 0060 0D67     		se_cmpl %r7,%r6
 335 0062 7A10000C 		e_blt %cr0,.L25
 336              		.loc 1 196 0
 337 0066 513F000C 		e_lwz %r9,12(%r31)
 338 006a 553F0018 		e_stw %r9,24(%r31)
 339              	.LVL24:
 340              	.L25:
 341              	.LBB51:
 342              	.LBB52:
GAS LISTING C:\Users\jean\AppData\Local\Temp\ccBuBDMH.s 			page 7


 343              		.loc 3 164 0
 344              	 # 164 "./components/chibios_rt_portable_kernel_component/lib/include/chsys.h" 1
 345 006e 7C008146 		wrteei  1
 346              	 # 0 "" 2
 347              	.LBE52:
 348              	.LBE51:
 349              		.loc 1 200 0
 350 0072 C501     		se_lwz %r0,20(%r1)
 351 0074 0090     		se_mtlr %r0
 352              		.cfi_restore 65
 353 0076 1BC10808 		e_lmw %r30,8(%r1)
 354              	.LVL25:
 355 007a 20F1     		se_addi %r1,16
 356              	.LCFI6:
 357              		.cfi_restore 31
 358              		.cfi_restore 30
 359              		.cfi_def_cfa_offset 0
 360 007c 0004     		se_blr
 361              		.cfi_endproc
 362              	.LFE19:
 363              		.size	chIQGetTimeout, .-chIQGetTimeout
 364              		.section	.text.chIQReadTimeout,"axv",@progbits
 365              		.align 1
 366              		.p2align 4,,15
 367              		.globl chIQReadTimeout
 368              		.type	chIQReadTimeout, @function
 369              	chIQReadTimeout:
 370              	.LFB20:
 371              		.loc 1 227 0
 372              		.cfi_startproc
 373              	.LVL26:
 374 0000 182106D8 		e_stwu %r1,-40(%r1)
 375              	.LCFI7:
 376              		.cfi_def_cfa_offset 40
 377 0004 0080     		se_mflr %r0
 378 0006 1B410910 		e_stmw %r26,16(%r1)
 379 000a DB01     		se_stw %r0,44(%r1)
 380 000c 7D800026 		mfcr %r12
 381              		.cfi_offset 65, 4
 382              		.cfi_offset 26, -24
 383              		.cfi_offset 27, -20
 384              		.cfi_offset 28, -16
 385              		.cfi_offset 29, -12
 386              		.cfi_offset 30, -8
 387              		.cfi_offset 31, -4
 388 0010 013F     		se_mr %r31,%r3
 389 0012 5581000C 		e_stw %r12,12(%r1)
 390              		.cfi_offset 70, -28
 391              		.loc 1 227 0
 392 0016 015A     		se_mr %r26,%r5
 393 0018 016E     		se_mr %r30,%r6
 394              		.loc 1 228 0
 395 001a C7B3     		se_lwz %r27,28(%r3)
 396              	.LVL27:
 397              	.LBB53:
 398              	.LBB54:
 399              		.loc 3 149 0
GAS LISTING C:\Users\jean\AppData\Local\Temp\ccBuBDMH.s 			page 8


 400              	 # 149 "./components/chibios_rt_portable_kernel_component/lib/include/chsys.h" 1
 401 001c 7C000146 		wrteei  0
 402              	 # 0 "" 2
 403              	.LBE54:
 404              	.LBE53:
 405              		.loc 1 229 0
 406 0020 480D     		se_li %r29,0
 407 0022 1B8484FF 		e_addi %r28,%r4,-1
 408 0026 187BA800 		e_cmpi %cr3,%r27,0
 409              	.LVL28:
 410              	.L36:
 411              		.loc 1 235 0
 412 002a 7A1E001E 		e_beq %cr3,.L32
 413              		.loc 1 236 0
 414 002e 01F3     		se_mr %r3,%r31
 415 0030 00BB     		se_mtctr %r27
 416 0032 0007     		se_bctrl
 417              	.LVL29:
 418 0034 78000014 		e_b .L32
 419              	.L34:
 420              		.loc 1 239 0
 421 0038 01F3     		se_mr %r3,%r31
 422 003a 01E4     		se_mr %r4,%r30
 423 003c 78000001 		e_bl qwait
 424              	.LVL30:
 425 0040 1823A800 		e_cmpi %cr1,%r3,0
 426 0044 7A060056 		e_bne %cr1,.L40
 427              	.L32:
 428              		.loc 1 238 0
 429 0048 513F0008 		e_lwz %r9,8(%r31)
 430 004c 1829A800 		e_cmpi %cr1,%r9,0
 431 0050 7A16FFE8 		e_beq %cr1,.L34
 432              		.loc 1 246 0
 433 0054 515F0018 		e_lwz %r10,24(%r31)
 434              		.loc 1 245 0
 435 0058 513F0008 		e_lwz %r9,8(%r31)
 436              		.loc 1 246 0
 437 005c 190A8001 		e_addi %r8,%r10,1
 438              		.loc 1 245 0
 439 0060 192984FF 		e_addi %r9,%r9,-1
 440              		.loc 1 246 0
 441 0064 551F0018 		e_stw %r8,24(%r31)
 442              		.loc 1 245 0
 443 0068 553F0008 		e_stw %r9,8(%r31)
 444              	.LVL31:
 445              		.loc 1 246 0
 446 006c 312A0000 		e_lbz %r9,0(%r10)
 447 0070 193C0401 		e_stbu %r9,1(%r28)
 448              		.loc 1 247 0
 449 0074 C67F     		se_lwz %r7,24(%r31)
 450 0076 C46F     		se_lwz %r6,16(%r31)
 451 0078 0D67     		se_cmpl %r7,%r6
 452 007a 7A10000C 		e_blt %cr0,.L35
 453              		.loc 1 248 0
 454 007e 513F000C 		e_lwz %r9,12(%r31)
 455 0082 553F0018 		e_stw %r9,24(%r31)
 456              	.L35:
GAS LISTING C:\Users\jean\AppData\Local\Temp\ccBuBDMH.s 			page 9


 457              	.LBB55:
 458              	.LBB56:
 459              		.loc 3 164 0
 460              	 # 164 "./components/chibios_rt_portable_kernel_component/lib/include/chsys.h" 1
 461 0086 7C008146 		wrteei  1
 462              	 # 0 "" 2
 463              	.LBE56:
 464              	.LBE55:
 465              		.loc 1 251 0
 466 008a 200D     		se_addi %r29,1
 467              	.LVL32:
 468              		.loc 1 252 0
 469 008c 0DDA     		se_cmpl %r26,%r29
 470 008e 7A120010 		e_beq %cr0,.L33
 471              	.LBB57:
 472              	.LBB58:
 473              		.loc 3 149 0
 474              	 # 149 "./components/chibios_rt_portable_kernel_component/lib/include/chsys.h" 1
 475 0092 7C000146 		wrteei  0
 476              	 # 0 "" 2
 477 0096 79FFFF94 		e_b .L36
 478              	.LVL33:
 479              	.L40:
 480              	.LBE58:
 481              	.LBE57:
 482              	.LBB59:
 483              	.LBB60:
 484              		.loc 3 164 0
 485              	 # 164 "./components/chibios_rt_portable_kernel_component/lib/include/chsys.h" 1
 486 009a 7C008146 		wrteei  1
 487              	 # 0 "" 2
 488              	.LVL34:
 489              	.L33:
 490              	.LBE60:
 491              	.LBE59:
 492              		.loc 1 257 0
 493 009e CB01     		se_lwz %r0,44(%r1)
 494 00a0 0090     		se_mtlr %r0
 495              		.cfi_restore 65
 496 00a2 5181000C 		e_lwz %r12,12(%r1)
 497              		.cfi_register 70, 12
 498 00a6 01D3     		se_mr %r3,%r29
 499 00a8 7D810120 		mtcrf 16,%r12
 500              		.cfi_restore 70
 501 00ac 1B410810 		e_lmw %r26,16(%r1)
 502              	.LVL35:
 503 00b0 18218028 		e_addi %r1,%r1,40
 504              	.LCFI8:
 505              		.cfi_restore 31
 506              		.cfi_restore 30
 507              		.cfi_restore 29
 508              		.cfi_restore 28
 509              		.cfi_restore 27
 510              		.cfi_restore 26
 511              		.cfi_def_cfa_offset 0
 512 00b4 0004     		se_blr
 513              		.cfi_endproc
GAS LISTING C:\Users\jean\AppData\Local\Temp\ccBuBDMH.s 			page 10


 514              	.LFE20:
 515              		.size	chIQReadTimeout, .-chIQReadTimeout
 516              		.section	.text.chOQInit,"axv",@progbits
 517              		.align 1
 518              		.p2align 4,,15
 519              		.globl chOQInit
 520              		.type	chOQInit, @function
 521              	chOQInit:
 522              	.LFB21:
 523              		.loc 1 276 0
 524              		.cfi_startproc
 525              	.LVL36:
 526              		.loc 1 281 0
 527 0000 7D242A14 		add %r9,%r4,%r5
 528              		.loc 1 278 0
 529 0004 D133     		se_stw %r3,4(%r3)
 530 0006 D033     		se_stw %r3,0(%r3)
 531              		.loc 1 279 0
 532 0008 D253     		se_stw %r5,8(%r3)
 533              		.loc 1 280 0
 534 000a D543     		se_stw %r4,20(%r3)
 535 000c D643     		se_stw %r4,24(%r3)
 536 000e D343     		se_stw %r4,12(%r3)
 537              		.loc 1 281 0
 538 0010 55230010 		e_stw %r9,16(%r3)
 539              		.loc 1 282 0
 540 0014 D763     		se_stw %r6,28(%r3)
 541              		.loc 1 283 0
 542 0016 D873     		se_stw %r7,32(%r3)
 543 0018 0004     		se_blr
 544              		.cfi_endproc
 545              	.LFE21:
 546              		.size	chOQInit, .-chOQInit
 547              		.section	.text.chOQResetI,"axv",@progbits
 548              		.align 1
 549              		.p2align 4,,15
 550              		.globl chOQResetI
 551              		.type	chOQResetI, @function
 552              	chOQResetI:
 553              	.LFB22:
 554              		.loc 1 297 0
 555              		.cfi_startproc
 556              	.LVL37:
 557 0000 182106F0 		e_stwu %r1,-16(%r1)
 558              	.LCFI9:
 559              		.cfi_def_cfa_offset 16
 560 0004 0080     		se_mflr %r0
 561 0006 1BC10908 		e_stmw %r30,8(%r1)
 562 000a D501     		se_stw %r0,20(%r1)
 563              		.cfi_offset 65, 4
 564              		.cfi_offset 30, -8
 565              		.cfi_offset 31, -4
 566              		.loc 1 297 0
 567 000c 013F     		se_mr %r31,%r3
 568              		.loc 1 301 0
 569 000e 5143000C 		e_lwz %r10,12(%r3)
 570              		.loc 1 302 0
GAS LISTING C:\Users\jean\AppData\Local\Temp\ccBuBDMH.s 			page 11


 571 0012 51230010 		e_lwz %r9,16(%r3)
 572              		.loc 1 304 0
 573 0016 73DF7FFE 		e_li %r30,-2
 574              		.loc 1 303 0
 575 001a C033     		se_lwz %r3,0(%r3)
 576              	.LVL38:
 577              		.loc 1 302 0
 578 001c 7D2A4850 		subf %r9, %r10, %r9
 579              		.loc 1 301 0
 580 0020 555F0014 		e_stw %r10,20(%r31)
 581 0024 555F0018 		e_stw %r10,24(%r31)
 582              		.loc 1 302 0
 583 0028 553F0008 		e_stw %r9,8(%r31)
 584              		.loc 1 303 0
 585 002c 7C83F840 		cmpl %cr1,%r3,%r31
 586 0030 7A160020 		e_beq %cr1,.L42
 587              	.L46:
 588              	.LVL39:
 589              	.LBB61:
 590              	.LBB62:
 591              		.loc 2 62 0
 592 0034 51230000 		e_lwz %r9,0(%r3)
 593 0038 553F0000 		e_stw %r9,0(%r31)
 594 003c 57E90004 		e_stw %r31,4(%r9)
 595              	.LBE62:
 596              	.LBE61:
 597              		.loc 1 304 0
 598 0040 78000001 		e_bl chSchReadyI
 599              	.LVL40:
 600 0044 D9E3     		se_stw %r30,36(%r3)
 601              		.loc 1 303 0
 602 0046 C03F     		se_lwz %r3,0(%r31)
 603 0048 7C83F840 		cmpl %cr1,%r3,%r31
 604 004c 7A06FFE8 		e_bne %cr1,.L46
 605              	.LVL41:
 606              	.L42:
 607              		.loc 1 305 0
 608 0050 C501     		se_lwz %r0,20(%r1)
 609 0052 0090     		se_mtlr %r0
 610              		.cfi_restore 65
 611 0054 1BC10808 		e_lmw %r30,8(%r1)
 612              	.LVL42:
 613 0058 20F1     		se_addi %r1,16
 614              	.LCFI10:
 615              		.cfi_restore 31
 616              		.cfi_restore 30
 617              		.cfi_def_cfa_offset 0
 618 005a 0004     		se_blr
 619              		.cfi_endproc
 620              	.LFE22:
 621              		.size	chOQResetI, .-chOQResetI
 622              		.section	.text.chOQPutTimeout,"axv",@progbits
 623              		.align 1
 624              		.p2align 4,,15
 625              		.globl chOQPutTimeout
 626              		.type	chOQPutTimeout, @function
 627              	chOQPutTimeout:
GAS LISTING C:\Users\jean\AppData\Local\Temp\ccBuBDMH.s 			page 12


 628              	.LFB23:
 629              		.loc 1 329 0
 630              		.cfi_startproc
 631              	.LVL43:
 632 0000 182106E8 		e_stwu %r1,-24(%r1)
 633              	.LCFI11:
 634              		.cfi_def_cfa_offset 24
 635 0004 0080     		se_mflr %r0
 636 0006 1BA1090C 		e_stmw %r29,12(%r1)
 637 000a D701     		se_stw %r0,28(%r1)
 638              		.cfi_offset 65, 4
 639              		.cfi_offset 29, -12
 640              		.cfi_offset 30, -8
 641              		.cfi_offset 31, -4
 642              		.loc 1 329 0
 643 000c 013F     		se_mr %r31,%r3
 644 000e 014D     		se_mr %r29,%r4
 645 0010 015E     		se_mr %r30,%r5
 646              	.LBB63:
 647              	.LBB64:
 648              		.loc 3 149 0
 649              	 # 149 "./components/chibios_rt_portable_kernel_component/lib/include/chsys.h" 1
 650 0012 7C000146 		wrteei  0
 651              	 # 0 "" 2
 652 0016 78000012 		e_b .L49
 653              	.LVL44:
 654              	.L51:
 655              	.LBE64:
 656              	.LBE63:
 657              	.LBB65:
 658              		.loc 1 335 0
 659 001a 01F3     		se_mr %r3,%r31
 660 001c 01E4     		se_mr %r4,%r30
 661 001e 78000001 		e_bl qwait
 662              	.LVL45:
 663 0022 2A03     		se_cmpi %r3,0
 664 0024 7A100064 		e_blt %cr0,.L58
 665              	.LVL46:
 666              	.L49:
 667              	.LBE65:
 668              		.loc 1 332 0
 669 0028 513F0008 		e_lwz %r9,8(%r31)
 670 002c 1829A800 		e_cmpi %cr1,%r9,0
 671 0030 7A16FFEA 		e_beq %cr1,.L51
 672              		.loc 1 341 0
 673 0034 513F0008 		e_lwz %r9,8(%r31)
 674              		.loc 1 342 0
 675 0038 515F0014 		e_lwz %r10,20(%r31)
 676              		.loc 1 341 0
 677 003c 192984FF 		e_addi %r9,%r9,-1
 678              		.loc 1 342 0
 679 0040 190A8001 		e_addi %r8,%r10,1
 680              		.loc 1 341 0
 681 0044 553F0008 		e_stw %r9,8(%r31)
 682              		.loc 1 342 0
 683 0048 551F0014 		e_stw %r8,20(%r31)
 684 004c 37AA0000 		e_stb %r29,0(%r10)
GAS LISTING C:\Users\jean\AppData\Local\Temp\ccBuBDMH.s 			page 13


 685              		.loc 1 343 0
 686 0050 C57F     		se_lwz %r7,20(%r31)
 687 0052 C46F     		se_lwz %r6,16(%r31)
 688 0054 0D67     		se_cmpl %r7,%r6
 689 0056 7A10000C 		e_blt %cr0,.L52
 690              		.loc 1 344 0
 691 005a 513F000C 		e_lwz %r9,12(%r31)
 692 005e 553F0014 		e_stw %r9,20(%r31)
 693              	.L52:
 694              		.loc 1 346 0
 695 0062 513F001C 		e_lwz %r9,28(%r31)
 696 0066 1829A800 		e_cmpi %cr1,%r9,0
 697 006a 7A16000C 		e_beq %cr1,.L53
 698              		.loc 1 347 0
 699 006e 01F3     		se_mr %r3,%r31
 700 0070 7D2903A6 		mtctr %r9
 701 0074 0007     		se_bctrl
 702              	.LVL47:
 703              	.L53:
 704              	.LBB68:
 705              	.LBB69:
 706              		.loc 3 164 0
 707              	 # 164 "./components/chibios_rt_portable_kernel_component/lib/include/chsys.h" 1
 708 0076 7C008146 		wrteei  1
 709              	 # 0 "" 2
 710              	.LBE69:
 711              	.LBE68:
 712              		.loc 1 351 0
 713 007a C701     		se_lwz %r0,28(%r1)
 714 007c 0090     		se_mtlr %r0
 715              		.cfi_remember_state
 716              		.cfi_restore 65
 717 007e 1BA1080C 		e_lmw %r29,12(%r1)
 718              	.LVL48:
 719              		.loc 1 350 0
 720 0082 4803     		se_li %r3,0
 721              		.loc 1 351 0
 722 0084 2171     		se_addi %r1,24
 723              	.LCFI12:
 724              		.cfi_restore 31
 725              		.cfi_restore 30
 726              		.cfi_restore 29
 727              		.cfi_def_cfa_offset 0
 728 0086 0004     		se_blr
 729              	.LVL49:
 730              	.L58:
 731              	.LCFI13:
 732              		.cfi_restore_state
 733              	.LBB70:
 734              	.LBB66:
 735              	.LBB67:
 736              		.loc 3 164 0
 737              	 # 164 "./components/chibios_rt_portable_kernel_component/lib/include/chsys.h" 1
 738 0088 7C008146 		wrteei  1
 739              	 # 0 "" 2
 740              	.LBE67:
 741              	.LBE66:
GAS LISTING C:\Users\jean\AppData\Local\Temp\ccBuBDMH.s 			page 14


 742              	.LBE70:
 743              		.loc 1 351 0
 744 008c C701     		se_lwz %r0,28(%r1)
 745 008e 0090     		se_mtlr %r0
 746              		.cfi_restore 65
 747 0090 1BA1080C 		e_lmw %r29,12(%r1)
 748              	.LVL50:
 749 0094 2171     		se_addi %r1,24
 750              	.LCFI14:
 751              		.cfi_restore 29
 752              		.cfi_restore 30
 753              		.cfi_restore 31
 754              		.cfi_def_cfa_offset 0
 755 0096 0004     		se_blr
 756              		.cfi_endproc
 757              	.LFE23:
 758              		.size	chOQPutTimeout, .-chOQPutTimeout
 759              		.section	.text.chOQGetI,"axv",@progbits
 760              		.align 1
 761              		.p2align 4,,15
 762              		.globl chOQGetI
 763              		.type	chOQGetI, @function
 764              	chOQGetI:
 765              	.LFB24:
 766              		.loc 1 363 0
 767              		.cfi_startproc
 768              	.LVL51:
 769 0000 182106F0 		e_stwu %r1,-16(%r1)
 770              	.LCFI15:
 771              		.cfi_def_cfa_offset 16
 772 0004 0080     		se_mflr %r0
 773 0006 D3F1     		se_stw %r31,12(%r1)
 774 0008 D501     		se_stw %r0,20(%r1)
 775              		.cfi_offset 65, 4
 776              		.cfi_offset 31, -4
 777              		.loc 1 363 0
 778 000a 0231     		se_mtar %r9,%r3
 779              		.loc 1 368 0
 780 000c C663     		se_lwz %r6,24(%r3)
 781 000e C573     		se_lwz %r7,20(%r3)
 782 0010 0C67     		se_cmp %r7,%r6
 783 0012 7A120060 		e_beq %cr0,.L67
 784              	.LVL52:
 785              	.L60:
 786              		.loc 1 371 0
 787 0016 51490008 		e_lwz %r10,8(%r9)
 788              		.loc 1 372 0
 789 001a 18E68001 		e_addi %r7,%r6,1
 790              		.loc 1 371 0
 791 001e 194A8001 		e_addi %r10,%r10,1
 792              		.loc 1 372 0
 793 0022 54E90018 		e_stw %r7,24(%r9)
 794              		.loc 1 371 0
 795 0026 55490008 		e_stw %r10,8(%r9)
 796              		.loc 1 373 0
 797 002a 50A90010 		e_lwz %r5,16(%r9)
 798              		.loc 1 372 0
GAS LISTING C:\Users\jean\AppData\Local\Temp\ccBuBDMH.s 			page 15


 799 002e 80F6     		se_lbz %r31,0(%r6)
 800              	.LVL53:
 801              		.loc 1 373 0
 802 0030 0D57     		se_cmpl %r7,%r5
 803 0032 7A000034 		e_bge %cr0,.L63
 804              	.LVL54:
 805              	.L64:
 806              		.loc 1 376 0
 807 0036 50690000 		e_lwz %r3,0(%r9)
 808 003a 7C834840 		cmpl %cr1,%r3,%r9
 809 003e 7A16001C 		e_beq %cr1,.L62
 810              	.LVL55:
 811              	.LBB71:
 812              	.LBB72:
 813              		.loc 2 62 0
 814 0042 51430000 		e_lwz %r10,0(%r3)
 815 0046 55490000 		e_stw %r10,0(%r9)
 816 004a 552A0004 		e_stw %r9,4(%r10)
 817              	.LBE72:
 818              	.LBE71:
 819              		.loc 1 377 0
 820 004e 78000001 		e_bl chSchReadyI
 821              	.LVL56:
 822 0052 71200000 		e_li %r9,0
 823 0056 55230024 		e_stw %r9,36(%r3)
 824              	.LVL57:
 825              	.L62:
 826              		.loc 1 379 0
 827 005a 01F3     		se_mr %r3,%r31
 828              	.LVL58:
 829              	.L66:
 830              		.loc 1 380 0
 831 005c C501     		se_lwz %r0,20(%r1)
 832 005e 0090     		se_mtlr %r0
 833              		.cfi_remember_state
 834              		.cfi_restore 65
 835 0060 C3F1     		se_lwz %r31,12(%r1)
 836 0062 20F1     		se_addi %r1,16
 837              	.LCFI16:
 838              		.cfi_restore 31
 839              		.cfi_def_cfa_offset 0
 840 0064 0004     		se_blr
 841              	.LVL59:
 842              	.L63:
 843              	.LCFI17:
 844              		.cfi_restore_state
 845              		.loc 1 374 0
 846 0066 5149000C 		e_lwz %r10,12(%r9)
 847 006a 55490018 		e_stw %r10,24(%r9)
 848              	.LVL60:
 849 006e 79FFFFC8 		e_b .L64
 850              	.LVL61:
 851              	.L67:
 852              		.loc 1 368 0 discriminator 1
 853 0072 51430008 		e_lwz %r10,8(%r3)
 854              		.loc 1 369 0 discriminator 1
 855 0076 707F7FFD 		e_li %r3,-3
GAS LISTING C:\Users\jean\AppData\Local\Temp\ccBuBDMH.s 			page 16


 856              	.LVL62:
 857              		.loc 1 368 0 discriminator 1
 858 007a 182AA800 		e_cmpi %cr1,%r10,0
 859 007e 7A06FFDE 		e_bne %cr1,.L66
 860 0082 79FFFF94 		e_b .L60
 861              		.cfi_endproc
 862              	.LFE24:
 863              		.size	chOQGetI, .-chOQGetI
 864              		.section	.text.chOQWriteTimeout,"axv",@progbits
 865              		.align 1
 866              		.p2align 4,,15
 867              		.globl chOQWriteTimeout
 868              		.type	chOQWriteTimeout, @function
 869              	chOQWriteTimeout:
 870              	.LFB25:
 871              		.loc 1 407 0
 872              		.cfi_startproc
 873              	.LVL63:
 874 0000 182106D8 		e_stwu %r1,-40(%r1)
 875              	.LCFI18:
 876              		.cfi_def_cfa_offset 40
 877 0004 0080     		se_mflr %r0
 878 0006 1B21090C 		e_stmw %r25,12(%r1)
 879 000a DB01     		se_stw %r0,44(%r1)
 880 000c 7D800026 		mfcr %r12
 881              		.cfi_offset 65, 4
 882              		.cfi_offset 25, -28
 883              		.cfi_offset 26, -24
 884              		.cfi_offset 27, -20
 885              		.cfi_offset 28, -16
 886              		.cfi_offset 29, -12
 887              		.cfi_offset 30, -8
 888              		.cfi_offset 31, -4
 889 0010 013F     		se_mr %r31,%r3
 890 0012 55810008 		e_stw %r12,8(%r1)
 891              		.cfi_offset 70, -32
 892              		.loc 1 407 0
 893 0016 014C     		se_mr %r28,%r4
 894 0018 015E     		se_mr %r30,%r5
 895 001a 0169     		se_mr %r25,%r6
 896              		.loc 1 408 0
 897 001c C7D3     		se_lwz %r29,28(%r3)
 898              	.LVL64:
 899              	.LBB73:
 900              	.LBB74:
 901              		.loc 3 149 0
 902              	 # 149 "./components/chibios_rt_portable_kernel_component/lib/include/chsys.h" 1
 903 001e 7C000146 		wrteei  0
 904              	 # 0 "" 2
 905              	.LBE74:
 906              	.LBE73:
 907              		.loc 1 409 0
 908 0022 480B     		se_li %r27,0
 909              		.loc 1 426 0
 910 0024 187DA800 		e_cmpi %cr3,%r29,0
 911              	.LVL65:
 912              	.L69:
GAS LISTING C:\Users\jean\AppData\Local\Temp\ccBuBDMH.s 			page 17


 913              		.loc 1 415 0
 914 0028 513F0008 		e_lwz %r9,8(%r31)
 915              		.loc 1 427 0
 916 002c 01F3     		se_mr %r3,%r31
 917              		.loc 1 415 0
 918 002e 1829A800 		e_cmpi %cr1,%r9,0
 919 0032 7A160066 		e_beq %cr1,.L72
 920              	.LVL66:
 921              	.L83:
 922              		.loc 1 421 0
 923 0036 513F0008 		e_lwz %r9,8(%r31)
 924              		.loc 1 422 0
 925 003a 515F0014 		e_lwz %r10,20(%r31)
 926              		.loc 1 421 0
 927 003e 192984FF 		e_addi %r9,%r9,-1
 928              		.loc 1 422 0
 929 0042 190A8001 		e_addi %r8,%r10,1
 930              		.loc 1 421 0
 931 0046 553F0008 		e_stw %r9,8(%r31)
 932              		.loc 1 422 0
 933 004a 551F0014 		e_stw %r8,20(%r31)
 934 004e 1B5C8001 		e_addi %r26,%r28,1
 935              	.LVL67:
 936 0052 313C0000 		e_lbz %r9,0(%r28)
 937 0056 352A0000 		e_stb %r9,0(%r10)
 938              		.loc 1 423 0
 939 005a C57F     		se_lwz %r7,20(%r31)
 940 005c C45F     		se_lwz %r5,16(%r31)
 941 005e 0D57     		se_cmpl %r7,%r5
 942 0060 7A10000C 		e_blt %cr0,.L73
 943              		.loc 1 424 0
 944 0064 513F000C 		e_lwz %r9,12(%r31)
 945 0068 553F0014 		e_stw %r9,20(%r31)
 946              	.L73:
 947              		.loc 1 426 0
 948 006c 7A1E0008 		e_beq %cr3,.L74
 949              		.loc 1 427 0
 950 0070 00BD     		se_mtctr %r29
 951 0072 0007     		se_bctrl
 952              	.LVL68:
 953              	.L74:
 954              	.LBB75:
 955              	.LBB76:
 956              		.loc 3 164 0
 957              	 # 164 "./components/chibios_rt_portable_kernel_component/lib/include/chsys.h" 1
 958 0074 7C008146 		wrteei  1
 959              	 # 0 "" 2
 960              	.LBE76:
 961              	.LBE75:
 962              		.loc 1 431 0
 963 0078 1BDE84FF 		e_addi %r30,%r30,-1
 964              	.LVL69:
 965              		.loc 1 430 0
 966 007c 200B     		se_addi %r27,1
 967              	.LVL70:
 968              		.loc 1 431 0
 969 007e 2A0E     		se_cmpi %r30,0
GAS LISTING C:\Users\jean\AppData\Local\Temp\ccBuBDMH.s 			page 18


 970 0080 7A12002C 		e_beq %cr0,.L71
 971              	.LBB77:
 972              	.LBB78:
 973              		.loc 3 149 0
 974              	 # 149 "./components/chibios_rt_portable_kernel_component/lib/include/chsys.h" 1
 975 0084 7C000146 		wrteei  0
 976              	 # 0 "" 2
 977              	.LBE78:
 978              	.LBE77:
 979              		.loc 1 415 0
 980 0088 513F0008 		e_lwz %r9,8(%r31)
 981              		.loc 1 422 0
 982 008c 01AC     		se_mr %r28,%r26
 983              	.LVL71:
 984              		.loc 1 427 0
 985 008e 01F3     		se_mr %r3,%r31
 986              		.loc 1 415 0
 987 0090 1829A800 		e_cmpi %cr1,%r9,0
 988 0094 7A06FFA2 		e_bne %cr1,.L83
 989              	.LVL72:
 990              	.L72:
 991              		.loc 1 416 0
 992 0098 01F3     		se_mr %r3,%r31
 993              	.LVL73:
 994 009a 0194     		se_mr %r4,%r25
 995 009c 78000001 		e_bl qwait
 996              	.LVL74:
 997 00a0 1823A800 		e_cmpi %cr1,%r3,0
 998 00a4 7A16FF84 		e_beq %cr1,.L69
 999              	.LBB79:
 1000              	.LBB80:
 1001              		.loc 3 164 0
 1002              	 # 164 "./components/chibios_rt_portable_kernel_component/lib/include/chsys.h" 1
 1003 00a8 7C008146 		wrteei  1
 1004              	 # 0 "" 2
 1005              	.LVL75:
 1006              	.L71:
 1007              	.LBE80:
 1008              	.LBE79:
 1009              		.loc 1 435 0
 1010 00ac CB01     		se_lwz %r0,44(%r1)
 1011 00ae 0090     		se_mtlr %r0
 1012              		.cfi_restore 65
 1013 00b0 51810008 		e_lwz %r12,8(%r1)
 1014              		.cfi_register 70, 12
 1015 00b4 01B3     		se_mr %r3,%r27
 1016 00b6 7D810120 		mtcrf 16,%r12
 1017              		.cfi_restore 70
 1018 00ba 1B21080C 		e_lmw %r25,12(%r1)
 1019              	.LVL76:
 1020 00be 18218028 		e_addi %r1,%r1,40
 1021              	.LCFI19:
 1022              		.cfi_restore 31
 1023              		.cfi_restore 30
 1024              		.cfi_restore 29
 1025              		.cfi_restore 28
 1026              		.cfi_restore 27
GAS LISTING C:\Users\jean\AppData\Local\Temp\ccBuBDMH.s 			page 19


 1027              		.cfi_restore 26
 1028              		.cfi_restore 25
 1029              		.cfi_def_cfa_offset 0
 1030 00c2 0004     		se_blr
 1031              		.cfi_endproc
 1032              	.LFE25:
 1033              		.size	chOQWriteTimeout, .-chOQWriteTimeout
 1034              		.section	".text","axv"
 1035              	.Letext0:
 1036              		.file 4 "c:\\spc5studio\\eclipse\\plugins\\com.st.tools.spc5.tools.gnu.gcc.ppcvle.win32_1.0.0.2016
 1037              		.file 5 "c:\\spc5studio\\eclipse\\plugins\\com.st.tools.spc5.tools.gnu.gcc.ppcvle.win32_1.0.0.2016
 1038              		.file 6 "c:\\spc5studio\\eclipse\\plugins\\com.st.tools.spc5.tools.gnu.gcc.ppcvle.win32_1.0.0.2016
 1039              		.file 7 "./components/chibios_rt_spc560dxx_kernel_port_component/lib/include/chtypes.h"
 1040              		.file 8 "./components/chibios_rt_portable_kernel_component/lib/include/chlists.h"
 1041              		.file 9 "./components/chibios_rt_portable_kernel_component/lib/include/chthreads.h"
 1042              		.file 10 "./components/chibios_rt_spc560dxx_kernel_port_component/lib/include/chcore.h"
 1043              		.file 11 "./components/chibios_rt_portable_kernel_component/lib/include/chschd.h"
 1044              		.file 12 "./components/chibios_rt_portable_kernel_component/lib/include/chmtx.h"
 1045              		.file 13 "./components/chibios_rt_portable_kernel_component/lib/include/chqueues.h"