GAS LISTING C:\Users\jean\AppData\Local\Temp\ccQy585P.s 			page 1


   1              		.file	"chregistry.c"
   2              		.section	".text","axv"
   3              	.Ltext0:
   4              		.cfi_sections	.debug_frame
   5              		.section	.text.chRegFirstThread,"axv",@progbits
   6              		.align 1
   7              		.p2align 4,,15
   8              		.globl chRegFirstThread
   9              		.type	chRegFirstThread, @function
  10              	chRegFirstThread:
  11              	.LFB15:
  12              		.file 1 "./components/chibios_rt_portable_kernel_component/lib/src/chregistry.c"
  13              		.loc 1 117 0
  14              		.cfi_startproc
  15              	.LBB10:
  16              	.LBB11:
  17              		.file 2 "./components/chibios_rt_portable_kernel_component/lib/include/chsys.h"
  18              		.loc 2 149 0
  19              	 # 149 "./components/chibios_rt_portable_kernel_component/lib/include/chsys.h" 1
  20 0000 7C000146 		wrteei  0
  21              	 # 0 "" 2
  22              	.LBE11:
  23              	.LBE10:
  24              		.loc 1 121 0
  25 0004 7120E000 		e_lis %r9,rlist+16@ha
  26 0008 50690000 		e_lwz %r3,rlist+16@l(%r9)
  27              	.LVL0:
  28              		.loc 1 123 0
  29 000c 3123001E 		e_lbz %r9,30(%r3)
  30 0010 19298001 		e_addi %r9,%r9,1
  31 0014 3523001E 		e_stb %r9,30(%r3)
  32              	.LBB12:
  33              	.LBB13:
  34              		.loc 2 164 0
  35              	 # 164 "./components/chibios_rt_portable_kernel_component/lib/include/chsys.h" 1
  36 0018 7C008146 		wrteei  1
  37              	 # 0 "" 2
  38              	.LBE13:
  39              	.LBE12:
  40              		.loc 1 127 0
  41 001c 0004     		se_blr
  42              		.cfi_endproc
  43              	.LFE15:
  44              		.size	chRegFirstThread, .-chRegFirstThread
  45              		.section	.text.chRegNextThread,"axv",@progbits
  46              		.align 1
  47              		.p2align 4,,15
  48              		.globl chRegNextThread
  49              		.type	chRegNextThread, @function
  50              	chRegNextThread:
  51              	.LFB16:
  52              		.loc 1 140 0
  53              		.cfi_startproc
  54              	.LVL1:
  55 0000 182106F0 		e_stwu %r1,-16(%r1)
  56              	.LCFI0:
  57              		.cfi_def_cfa_offset 16
GAS LISTING C:\Users\jean\AppData\Local\Temp\ccQy585P.s 			page 2


  58 0004 0080     		se_mflr %r0
  59 0006 D3F1     		se_stw %r31,12(%r1)
  60 0008 D501     		se_stw %r0,20(%r1)
  61              		.cfi_offset 65, 4
  62              		.cfi_offset 31, -4
  63              	.LBB14:
  64              	.LBB15:
  65              		.loc 2 149 0
  66              	 # 149 "./components/chibios_rt_portable_kernel_component/lib/include/chsys.h" 1
  67 000a 7C000146 		wrteei  0
  68              	 # 0 "" 2
  69              	.LBE15:
  70              	.LBE14:
  71              		.loc 1 145 0
  72 000e 7120E000 		e_lis %r9,rlist@ha
  73              		.loc 1 144 0
  74 0012 C4F3     		se_lwz %r31,16(%r3)
  75              	.LVL2:
  76              		.loc 1 145 0
  77 0014 1D290000 		e_la %r9,rlist@l(%r9)
  78 0018 7C9F4800 		cmp %cr1,%r31,%r9
  79 001c 7A160024 		e_beq %cr1,.L4
  80              		.loc 1 151 0
  81 0020 313F001E 		e_lbz %r9,30(%r31)
  82 0024 19298001 		e_addi %r9,%r9,1
  83 0028 353F001E 		e_stb %r9,30(%r31)
  84              	.LVL3:
  85              	.L3:
  86              	.LBB16:
  87              	.LBB17:
  88              		.loc 2 164 0
  89              	 # 164 "./components/chibios_rt_portable_kernel_component/lib/include/chsys.h" 1
  90 002c 7C008146 		wrteei  1
  91              	 # 0 "" 2
  92              	.LBE17:
  93              	.LBE16:
  94              		.loc 1 156 0
  95 0030 78000001 		e_bl chThdRelease
  96              	.LVL4:
  97              		.loc 1 159 0
  98 0034 C501     		se_lwz %r0,20(%r1)
  99 0036 0090     		se_mtlr %r0
 100              		.cfi_remember_state
 101              		.cfi_restore 65
 102 0038 01F3     		se_mr %r3,%r31
 103 003a C3F1     		se_lwz %r31,12(%r1)
 104              	.LVL5:
 105 003c 20F1     		se_addi %r1,16
 106              	.LCFI1:
 107              		.cfi_restore 31
 108              		.cfi_def_cfa_offset 0
 109 003e 0004     		se_blr
 110              	.LVL6:
 111              	.L4:
 112              	.LCFI2:
 113              		.cfi_restore_state
 114              		.loc 1 146 0
GAS LISTING C:\Users\jean\AppData\Local\Temp\ccQy585P.s 			page 3


 115 0040 480F     		se_li %r31,0
 116              	.LVL7:
 117 0042 79FFFFEA 		e_b .L3
 118              		.cfi_endproc
 119              	.LFE16:
 120              		.size	chRegNextThread, .-chRegNextThread
 121              		.globl ch_debug
 122              		.section	.rodata.ch_debug,"a",@progbits
 123              		.align 1
 124              		.type	ch_debug, @object
 125              		.size	ch_debug, 22
 126              	ch_debug:
 127 0000 6D61696E 		.ascii	"main"
 128 0004 00       		.byte	0
 129 0005 16       		.byte	22
 130 0006 118A     		.short	4490
 131 0008 04       		.byte	4
 132 0009 04       		.byte	4
 133 000a 48       		.byte	72
 134 000b 08       		.byte	8
 135 000c 0C       		.byte	12
 136 000d 10       		.byte	16
 137 000e 14       		.byte	20
 138 000f 18       		.byte	24
 139 0010 00       		.byte	0
 140 0011 1C       		.byte	28
 141 0012 1D       		.byte	29
 142 0013 1E       		.byte	30
 143 0014 1F       		.byte	31
 144 0015 20       		.byte	32
 145              		.section	".text","axv"
 146              	.Letext0:
 147              		.file 3 "c:\\spc5studio\\eclipse\\plugins\\com.st.tools.spc5.tools.gnu.gcc.ppcvle.win32_1.0.0.2016
 148              		.file 4 "c:\\spc5studio\\eclipse\\plugins\\com.st.tools.spc5.tools.gnu.gcc.ppcvle.win32_1.0.0.2016
 149              		.file 5 "c:\\spc5studio\\eclipse\\plugins\\com.st.tools.spc5.tools.gnu.gcc.ppcvle.win32_1.0.0.2016
 150              		.file 6 "./components/chibios_rt_spc560dxx_kernel_port_component/lib/include/chtypes.h"
 151              		.file 7 "./components/chibios_rt_portable_kernel_component/lib/include/chlists.h"
 152              		.file 8 "./components/chibios_rt_portable_kernel_component/lib/include/chthreads.h"
 153              		.file 9 "./components/chibios_rt_spc560dxx_kernel_port_component/lib/include/chcore.h"
 154              		.file 10 "./components/chibios_rt_portable_kernel_component/lib/include/chschd.h"
 155              		.file 11 "./components/chibios_rt_portable_kernel_component/lib/include/chmtx.h"
 156              		.file 12 "./components/chibios_rt_portable_kernel_component/lib/include/chregistry.h"
 157              		.file 13 "./components/chibios_rt_portable_kernel_component/lib/include/chdynamic.h"