GAS LISTING C:\Users\jean\AppData\Local\Temp\cc2yrEok.s 			page 1


   1              		.file	"chschd.c"
   2              		.section	".text","axv"
   3              	.Ltext0:
   4              		.cfi_sections	.debug_frame
   5              		.section	.text.wakeup,"axv",@progbits
   6              		.align 1
   7              		.p2align 4,,15
   8              		.type	wakeup, @function
   9              	wakeup:
  10              	.LFB18:
  11              		.file 1 "./components/chibios_rt_portable_kernel_component/lib/src/chschd.c"
  12              		.loc 1 136 0
  13              		.cfi_startproc
  14              	.LVL0:
  15              		.loc 1 140 0
  16 0000 3123001C 		e_lbz %r9,28(%r3)
  17 0004 18A9A80D 		e_cmpli %cr1,%r9,13
  18 0008 7A150042 		e_bgt %cr1,.L2
  19 000c 7D291070 		e_slwi %r9,%r9,2
  20 0010 7140E000 		e_lis %r10,.L4@ha
  21 0014 1D4A0000 		e_la %r10,.L4@l(%r10)
  22 0018 7D2A482E 		lwzx %r9,%r10,%r9
  23 001c 7D495214 		add %r10,%r9,%r10
  24 0020 7D4903A6 		mtctr %r10
  25 0024 0006     		se_bctr
  26              		.section	.rodata.wakeup,"a",@progbits
  27              		.align 2
  28              		.align 2
  29              	.L4:
  30 0000 00000000 		.long .L1-.L4
  31 0004 00000000 		.long .L2-.L4
  32 0008 00000000 		.long .L2-.L4
  33 000c 00000000 		.long .L5-.L4
  34 0010 00000000 		.long .L2-.L4
  35 0014 00000000 		.long .L6-.L4
  36 0018 00000000 		.long .L2-.L4
  37 001c 00000000 		.long .L2-.L4
  38 0020 00000000 		.long .L2-.L4
  39 0024 00000000 		.long .L2-.L4
  40 0028 00000000 		.long .L2-.L4
  41 002c 00000000 		.long .L2-.L4
  42 0030 00000000 		.long .L2-.L4
  43 0034 00000000 		.long .L6-.L4
  44              		.section	.text.wakeup
  45              	.L5:
  46              		.loc 1 150 0
  47 0026 51430024 		e_lwz %r10,36(%r3)
  48 002a 512A0008 		e_lwz %r9,8(%r10)
  49 002e 19298001 		e_addi %r9,%r9,1
  50 0032 552A0008 		e_stw %r9,8(%r10)
  51              	.L6:
  52              	.LVL1:
  53              	.LBB39:
  54              	.LBB40:
  55              		.file 2 "./components/chibios_rt_portable_kernel_component/lib/include/chinline.h"
  56              		.loc 2 75 0
  57 0036 51430000 		e_lwz %r10,0(%r3)
GAS LISTING C:\Users\jean\AppData\Local\Temp\cc2yrEok.s 			page 2


  58 003a 51230004 		e_lwz %r9,4(%r3)
  59 003e 55490000 		e_stw %r10,0(%r9)
  60              		.loc 2 76 0
  61 0042 51430000 		e_lwz %r10,0(%r3)
  62 0046 552A0004 		e_stw %r9,4(%r10)
  63              	.LVL2:
  64              	.L2:
  65              	.LBE40:
  66              	.LBE39:
  67              		.loc 1 163 0
  68 004a 713F7FFF 		e_li %r9,-1
  69 004e C263     		se_lwz %r6,8(%r3)
  70 0050 55230024 		e_stw %r9,36(%r3)
  71              	.LVL3:
  72              	.LBB41:
  73              	.LBB42:
  74              		.loc 1 92 0
  75 0054 71200000 		e_li %r9,0
  76 0058 3523001C 		e_stb %r9,28(%r3)
  77              	.LVL4:
  78              	.LBE42:
  79              	.LBE41:
  80              	.LBB43:
  81              	.LBB44:
  82              	.LBB45:
  83              	.LBB46:
  84              		.loc 1 93 0
  85 005c 7120E000 		e_lis %r9,.LANCHOR0@ha
  86 0060 1D290000 		e_la %r9,.LANCHOR0@l(%r9)
  87              	.L7:
  88              	.LVL5:
  89              		.loc 1 95 0
  90 0064 51290000 		e_lwz %r9,0(%r9)
  91              	.LVL6:
  92              		.loc 1 96 0
  93 0068 50E90008 		e_lwz %r7,8(%r9)
  94 006c 0D67     		se_cmpl %r7,%r6
  95 006e 7A00FFF6 		e_bge %cr0,.L7
  96              		.loc 1 99 0
  97 0072 51490004 		e_lwz %r10,4(%r9)
  98              		.loc 1 98 0
  99 0076 55230000 		e_stw %r9,0(%r3)
 100              		.loc 1 99 0
 101 007a 55430004 		e_stw %r10,4(%r3)
 102              		.loc 1 100 0
 103 007e 54690004 		e_stw %r3,4(%r9)
 104 0082 546A0000 		e_stw %r3,0(%r10)
 105              	.LVL7:
 106              	.L1:
 107 0086 0004     		se_blr
 108              	.LBE46:
 109              	.LBE45:
 110              	.LBE44:
 111              	.LBE43:
 112              		.cfi_endproc
 113              	.LFE18:
 114              		.size	wakeup, .-wakeup
GAS LISTING C:\Users\jean\AppData\Local\Temp\cc2yrEok.s 			page 3


 115              		.section	.text._scheduler_init,"axv",@progbits
 116              		.align 1
 117              		.p2align 4,,15
 118              		.globl _scheduler_init
 119              		.type	_scheduler_init, @function
 120              	_scheduler_init:
 121              	.LFB15:
 122              		.loc 1 55 0
 123              		.cfi_startproc
 124              		.loc 1 57 0
 125 0000 7140E000 		e_lis %r10,.LANCHOR0@ha
 126 0004 1D2A0000 		e_la %r9,.LANCHOR0@l(%r10)
 127 0008 552A0000 		e_stw %r9,.LANCHOR0@l(%r10)
 128 000c 55290004 		e_stw %r9,4(%r9)
 129              		.loc 1 58 0
 130 0010 71400000 		e_li %r10,0
 131              		.loc 1 60 0
 132 0014 55290014 		e_stw %r9,20(%r9)
 133              		.loc 1 58 0
 134 0018 55490008 		e_stw %r10,8(%r9)
 135              		.loc 1 60 0
 136 001c 55290010 		e_stw %r9,16(%r9)
 137 0020 0004     		se_blr
 138              		.cfi_endproc
 139              	.LFE15:
 140              		.size	_scheduler_init, .-_scheduler_init
 141              		.section	.text.chSchReadyI,"axv",@progbits
 142              		.align 1
 143              		.p2align 4,,15
 144              		.globl chSchReadyI
 145              		.type	chSchReadyI, @function
 146              	chSchReadyI:
 147              	.LFB16:
 148              		.loc 1 81 0
 149              		.cfi_startproc
 150              	.LVL8:
 151              		.loc 1 92 0
 152 0000 71200000 		e_li %r9,0
 153              		.loc 1 81 0
 154 0004 0232     		se_mtar %r10,%r3
 155              		.loc 1 92 0
 156 0006 3523001C 		e_stb %r9,28(%r3)
 157              	.LVL9:
 158 000a C263     		se_lwz %r6,8(%r3)
 159              		.loc 1 93 0
 160 000c 7120E000 		e_lis %r9,.LANCHOR0@ha
 161 0010 1D290000 		e_la %r9,.LANCHOR0@l(%r9)
 162              	.LVL10:
 163              	.L12:
 164              		.loc 1 95 0 discriminator 1
 165 0014 51290000 		e_lwz %r9,0(%r9)
 166              	.LVL11:
 167              		.loc 1 96 0 discriminator 1
 168 0018 50E90008 		e_lwz %r7,8(%r9)
 169 001c 0D67     		se_cmpl %r7,%r6
 170 001e 7A00FFF6 		e_bge %cr0,.L12
 171              		.loc 1 99 0
GAS LISTING C:\Users\jean\AppData\Local\Temp\cc2yrEok.s 			page 4


 172 0022 51090004 		e_lwz %r8,4(%r9)
 173              		.loc 1 102 0
 174 0026 0323     		se_mfar %r3,%r10
 175              	.LVL12:
 176              		.loc 1 98 0
 177 0028 552A0000 		e_stw %r9,0(%r10)
 178              		.loc 1 99 0
 179 002c 550A0004 		e_stw %r8,4(%r10)
 180              		.loc 1 100 0
 181 0030 55490004 		e_stw %r10,4(%r9)
 182 0034 55480000 		e_stw %r10,0(%r8)
 183              		.loc 1 102 0
 184 0038 0004     		se_blr
 185              		.cfi_endproc
 186              	.LFE16:
 187              		.size	chSchReadyI, .-chSchReadyI
 188              		.section	.text.chSchGoSleepS,"axv",@progbits
 189              		.align 1
 190              		.p2align 4,,15
 191              		.globl chSchGoSleepS
 192              		.type	chSchGoSleepS, @function
 193              	chSchGoSleepS:
 194              	.LFB17:
 195              		.loc 1 115 0
 196              		.cfi_startproc
 197              	.LVL13:
 198              		.loc 1 120 0
 199 0000 7100E000 		e_lis %r8,.LANCHOR0@ha
 200              		.loc 1 124 0
 201 0004 4946     		se_li %r6,20
 202              	.LBB47:
 203              	.LBB48:
 204              		.loc 2 60 0
 205 0006 51280000 		e_lwz %r9,.LANCHOR0@l(%r8)
 206              	.LBE48:
 207              	.LBE47:
 208              		.loc 1 120 0
 209 000a 1D480000 		e_la %r10,.LANCHOR0@l(%r8)
 210              	.LBB52:
 211              	.LBB49:
 212              		.loc 2 62 0
 213 000e 50E90000 		e_lwz %r7,0(%r9)
 214              	.LBE49:
 215              	.LBE52:
 216              		.loc 1 120 0
 217 0012 508A0018 		e_lwz %r4,24(%r10)
 218              	.LVL14:
 219              	.LBB53:
 220              	.LBB50:
 221              		.loc 2 62 0
 222 0016 54E80000 		e_stw %r7,.LANCHOR0@l(%r8)
 223              	.LBE50:
 224              	.LBE53:
 225              		.loc 1 120 0
 226 001a 3464001C 		e_stb %r3,28(%r4)
 227              		.loc 1 124 0
 228 001e 34C4001F 		e_stb %r6,31(%r4)
GAS LISTING C:\Users\jean\AppData\Local\Temp\cc2yrEok.s 			page 5


 229              	.LVL15:
 230              		.loc 1 128 0
 231 0022 0313     		se_mfar %r3,%r9
 232              	.LVL16:
 233              	.LBB54:
 234              	.LBB51:
 235              		.loc 2 62 0
 236 0024 55470004 		e_stw %r10,4(%r7)
 237              	.LBE51:
 238              	.LBE54:
 239              		.loc 1 126 0
 240 0028 552A0018 		e_stw %r9,24(%r10)
 241              		.loc 1 127 0
 242 002c 71400001 		e_li %r10,1
 243 0030 3549001C 		e_stb %r10,28(%r9)
 244              	.LVL17:
 245              		.loc 1 129 0
 246              		.loc 1 128 0
 247 0034 78000000 		e_b _port_switch
 248              	.LVL18:
 249              		.cfi_endproc
 250              	.LFE17:
 251              		.size	chSchGoSleepS, .-chSchGoSleepS
 252              		.section	.text.chSchGoSleepTimeoutS,"axv",@progbits
 253              		.align 1
 254              		.p2align 4,,15
 255              		.globl chSchGoSleepTimeoutS
 256              		.type	chSchGoSleepTimeoutS, @function
 257              	chSchGoSleepTimeoutS:
 258              	.LFB19:
 259              		.loc 1 189 0
 260              		.cfi_startproc
 261              	.LVL19:
 262 0000 182106D0 		e_stwu %r1,-48(%r1)
 263              	.LCFI0:
 264              		.cfi_def_cfa_offset 48
 265 0004 0080     		se_mflr %r0
 266 0006 1BC10928 		e_stmw %r30,40(%r1)
 267 000a DD01     		se_stw %r0,52(%r1)
 268              		.cfi_offset 65, 4
 269              		.cfi_offset 30, -8
 270              		.cfi_offset 31, -4
 271              		.loc 1 189 0
 272 000c 013E     		se_mr %r30,%r3
 273              		.loc 1 193 0
 274 000e 1824ACFF 		e_cmpi %cr1,%r4,-1
 275 0012 7A16004E 		e_beq %cr1,.L16
 276              	.LBB55:
 277              		.loc 1 196 0
 278 0016 18618008 		e_addi %r3,%r1,8
 279              	.LVL20:
 280 001a 70A0E000 		e_lis %r5,wakeup@ha
 281 001e 73E0E000 		e_lis %r31,.LANCHOR0@ha
 282 0022 1CA50000 		e_la %r5,wakeup@l(%r5)
 283 0026 1FFF0000 		e_la %r31,.LANCHOR0@l(%r31)
 284 002a C66F     		se_lwz %r6,24(%r31)
 285 002c 78000001 		e_bl chVTSetI
GAS LISTING C:\Users\jean\AppData\Local\Temp\cc2yrEok.s 			page 6


 286              	.LVL21:
 287              		.loc 1 197 0
 288 0030 01E3     		se_mr %r3,%r30
 289 0032 78000001 		e_bl chSchGoSleepS
 290              	.LVL22:
 291              		.loc 1 198 0
 292 0036 51210014 		e_lwz %r9,20(%r1)
 293 003a 1829A800 		e_cmpi %cr1,%r9,0
 294 003e 7A16000C 		e_beq %cr1,.L18
 295              		.loc 1 199 0
 296 0042 18618008 		e_addi %r3,%r1,8
 297 0046 78000001 		e_bl chVTResetI
 298              	.LVL23:
 299              	.L18:
 300              	.LBE55:
 301              		.loc 1 204 0
 302 004a CD01     		se_lwz %r0,52(%r1)
 303 004c 0090     		se_mtlr %r0
 304              		.cfi_remember_state
 305              		.cfi_restore 65
 306              		.loc 1 203 0
 307 004e 513F0018 		e_lwz %r9,24(%r31)
 308              		.loc 1 204 0
 309 0052 1BC10828 		e_lmw %r30,40(%r1)
 310 0056 50690024 		e_lwz %r3,36(%r9)
 311 005a 18218030 		e_addi %r1,%r1,48
 312              	.LCFI1:
 313              		.cfi_restore 31
 314              		.cfi_restore 30
 315              		.cfi_def_cfa_offset 0
 316 005e 0004     		se_blr
 317              	.LVL24:
 318              	.L16:
 319              	.LCFI2:
 320              		.cfi_restore_state
 321              		.loc 1 202 0
 322 0060 78000001 		e_bl chSchGoSleepS
 323              	.LVL25:
 324              		.loc 1 204 0
 325 0064 CD01     		se_lwz %r0,52(%r1)
 326 0066 0090     		se_mtlr %r0
 327              		.cfi_restore 65
 328 0068 73E0E000 		e_lis %r31,.LANCHOR0@ha
 329 006c 1FFF0000 		e_la %r31,.LANCHOR0@l(%r31)
 330              		.loc 1 203 0
 331 0070 513F0018 		e_lwz %r9,24(%r31)
 332              		.loc 1 204 0
 333 0074 1BC10828 		e_lmw %r30,40(%r1)
 334 0078 50690024 		e_lwz %r3,36(%r9)
 335 007c 18218030 		e_addi %r1,%r1,48
 336              	.LCFI3:
 337              		.cfi_restore 30
 338              		.cfi_restore 31
 339              		.cfi_def_cfa_offset 0
 340 0080 0004     		se_blr
 341              		.cfi_endproc
 342              	.LFE19:
GAS LISTING C:\Users\jean\AppData\Local\Temp\cc2yrEok.s 			page 7


 343              		.size	chSchGoSleepTimeoutS, .-chSchGoSleepTimeoutS
 344              		.section	.text.chSchWakeupS,"axv",@progbits
 345              		.align 1
 346              		.p2align 4,,15
 347              		.globl chSchWakeupS
 348              		.type	chSchWakeupS, @function
 349              	chSchWakeupS:
 350              	.LFB20:
 351              		.loc 1 225 0
 352              		.cfi_startproc
 353              	.LVL26:
 354              		.loc 1 234 0
 355 0000 C253     		se_lwz %r5,8(%r3)
 356 0002 7120E000 		e_lis %r9,.LANCHOR0@ha
 357              		.loc 1 229 0
 358 0006 D943     		se_stw %r4,36(%r3)
 359              		.loc 1 234 0
 360 0008 1D290000 		e_la %r9,.LANCHOR0@l(%r9)
 361              		.loc 1 225 0
 362 000c 0230     		se_mtar %r8,%r3
 363              		.loc 1 234 0
 364 000e 50890018 		e_lwz %r4,24(%r9)
 365              	.LVL27:
 366 0012 C264     		se_lwz %r6,8(%r4)
 367 0014 0D65     		se_cmpl %r5,%r6
 368 0016 7A110030 		e_bgt %cr0,.L23
 369              	.LVL28:
 370              	.LBB56:
 371              	.LBB57:
 372              		.loc 1 92 0
 373 001a 71400000 		e_li %r10,0
 374 001e 3543001C 		e_stb %r10,28(%r3)
 375              	.LVL29:
 376              	.L24:
 377              		.loc 1 95 0
 378 0022 51290000 		e_lwz %r9,0(%r9)
 379              	.LVL30:
 380              		.loc 1 96 0
 381 0026 50E90008 		e_lwz %r7,8(%r9)
 382 002a 0D75     		se_cmpl %r5,%r7
 383 002c 7A01FFF6 		e_ble %cr0,.L24
 384              		.loc 1 99 0
 385 0030 51490004 		e_lwz %r10,4(%r9)
 386              		.loc 1 98 0
 387 0034 55280000 		e_stw %r9,0(%r8)
 388              		.loc 1 99 0
 389 0038 55480004 		e_stw %r10,4(%r8)
 390              		.loc 1 100 0
 391 003c 55090004 		e_stw %r8,4(%r9)
 392 0040 550A0000 		e_stw %r8,0(%r10)
 393 0044 0004     		se_blr
 394              	.LVL31:
 395              	.L23:
 396              	.LBE57:
 397              	.LBE56:
 398              	.LBB58:
 399              	.LBB59:
GAS LISTING C:\Users\jean\AppData\Local\Temp\cc2yrEok.s 			page 8


 400              	.LBB60:
 401              		.loc 1 92 0
 402 0046 4807     		se_li %r7,0
 403              		.loc 1 93 0
 404 0048 7D2A4B78 		mr %r10,%r9
 405              		.loc 1 92 0
 406 004c 34E4001C 		e_stb %r7,28(%r4)
 407              	.LVL32:
 408              	.L26:
 409              		.loc 1 95 0
 410 0050 514A0000 		e_lwz %r10,0(%r10)
 411              	.LVL33:
 412              		.loc 1 96 0
 413 0054 50EA0008 		e_lwz %r7,8(%r10)
 414 0058 0D76     		se_cmpl %r6,%r7
 415 005a 7A01FFF6 		e_ble %cr0,.L26
 416              		.loc 1 99 0
 417 005e 50EA0004 		e_lwz %r7,4(%r10)
 418              	.LBE60:
 419              	.LBE59:
 420              		.loc 1 240 0
 421 0062 0303     		se_mfar %r3,%r8
 422              	.LVL34:
 423              	.LBB62:
 424              	.LBB61:
 425              		.loc 1 98 0
 426 0064 55440000 		e_stw %r10,0(%r4)
 427              		.loc 1 99 0
 428 0068 D174     		se_stw %r7,4(%r4)
 429              		.loc 1 100 0
 430 006a 548A0004 		e_stw %r4,4(%r10)
 431 006e D047     		se_stw %r4,0(%r7)
 432              	.LBE61:
 433              	.LBE62:
 434              		.loc 1 238 0
 435 0070 55090018 		e_stw %r8,24(%r9)
 436              		.loc 1 239 0
 437 0074 71200001 		e_li %r9,1
 438 0078 3528001C 		e_stb %r9,28(%r8)
 439              	.LBE58:
 440              		.loc 1 242 0
 441              	.LBB63:
 442              		.loc 1 240 0
 443 007c 78000000 		e_b _port_switch
 444              	.LVL35:
 445              	.LBE63:
 446              		.cfi_endproc
 447              	.LFE20:
 448              		.size	chSchWakeupS, .-chSchWakeupS
 449              		.section	.text.chSchIsPreemptionRequired,"axv",@progbits
 450              		.align 1
 451              		.p2align 4,,15
 452              		.globl chSchIsPreemptionRequired
 453              		.type	chSchIsPreemptionRequired, @function
 454              	chSchIsPreemptionRequired:
 455              	.LFB22:
 456              		.loc 1 276 0
GAS LISTING C:\Users\jean\AppData\Local\Temp\cc2yrEok.s 			page 9


 457              		.cfi_startproc
 458              		.loc 1 277 0
 459 0000 7120E000 		e_lis %r9,.LANCHOR0@ha
 460 0004 51490000 		e_lwz %r10,.LANCHOR0@l(%r9)
 461 0008 1D090000 		e_la %r8,.LANCHOR0@l(%r9)
 462              		.loc 1 278 0
 463 000c 51280018 		e_lwz %r9,24(%r8)
 464              		.loc 1 277 0
 465 0010 510A0008 		e_lwz %r8,8(%r10)
 466              	.LVL36:
 467              		.loc 1 278 0
 468 0014 51490008 		e_lwz %r10,8(%r9)
 469              	.LVL37:
 470              		.loc 1 284 0
 471 0018 3129001F 		e_lbz %r9,31(%r9)
 472 001c 7C6A4010 		subfc %r3,%r10,%r8
 473 0020 70600000 		e_li %r3,0
 474 0024 7C631914 		adde %r3,%r3,%r3
 475 0028 1829A800 		e_cmpi %cr1,%r9,0
 476 002c 7A060006 		e_bne %cr1,.L33
 477              		.loc 1 290 0 discriminator 4
 478 0030 0004     		se_blr
 479              	.L33:
 480              		.loc 1 284 0 discriminator 1
 481 0032 7C685010 		subfc %r3,%r8,%r10
 482 0036 7C631910 		subfe %r3,%r3,%r3
 483 003a 0033     		se_neg %r3
 484              		.loc 1 290 0 discriminator 1
 485 003c 0004     		se_blr
 486              		.cfi_endproc
 487              	.LFE22:
 488              		.size	chSchIsPreemptionRequired, .-chSchIsPreemptionRequired
 489              		.section	.text.chSchDoRescheduleBehind,"axv",@progbits
 490              		.align 1
 491              		.p2align 4,,15
 492              		.globl chSchDoRescheduleBehind
 493              		.type	chSchDoRescheduleBehind, @function
 494              	chSchDoRescheduleBehind:
 495              	.LFB23:
 496              		.loc 1 304 0
 497              		.cfi_startproc
 498              		.loc 1 307 0
 499 0000 7100E000 		e_lis %r8,.LANCHOR0@ha
 500              		.loc 1 310 0
 501 0004 4816     		se_li %r6,1
 502              	.LBB64:
 503              	.LBB65:
 504              		.loc 2 60 0
 505 0006 50680000 		e_lwz %r3,.LANCHOR0@l(%r8)
 506              	.LBE65:
 507              	.LBE64:
 508              		.loc 1 307 0
 509 000a 1D280000 		e_la %r9,.LANCHOR0@l(%r8)
 510              	.LBB68:
 511              	.LBB66:
 512              		.loc 2 62 0
 513 000e C073     		se_lwz %r7,0(%r3)
GAS LISTING C:\Users\jean\AppData\Local\Temp\cc2yrEok.s 			page 10


 514              	.LBE66:
 515              	.LBE68:
 516              		.loc 1 307 0
 517 0010 51490018 		e_lwz %r10,24(%r9)
 518              	.LVL38:
 519              	.LBB69:
 520              	.LBB67:
 521              		.loc 2 62 0
 522 0014 54E80000 		e_stw %r7,.LANCHOR0@l(%r8)
 523 0018 55270004 		e_stw %r9,4(%r7)
 524              	.LBE67:
 525              	.LBE69:
 526              		.loc 1 310 0
 527 001c 34C3001C 		e_stb %r6,28(%r3)
 528              		.loc 1 309 0
 529 0020 54690018 		e_stw %r3,24(%r9)
 530 0024 50CA0008 		e_lwz %r6,8(%r10)
 531              		.loc 1 312 0
 532 0028 71200014 		e_li %r9,20
 533 002c 352A001F 		e_stb %r9,31(%r10)
 534              	.LVL39:
 535              	.LBB70:
 536              	.LBB71:
 537              		.loc 1 92 0
 538 0030 71200000 		e_li %r9,0
 539 0034 352A001C 		e_stb %r9,28(%r10)
 540              	.LVL40:
 541 0038 0231     		se_mtar %r9,%r3
 542 003a 78000008 		e_b .L36
 543              	.LVL41:
 544              	.L37:
 545 003e 51290000 		e_lwz %r9,0(%r9)
 546              	.LVL42:
 547              	.L36:
 548              		.loc 1 96 0
 549 0042 50E90008 		e_lwz %r7,8(%r9)
 550 0046 0D67     		se_cmpl %r7,%r6
 551 0048 7A00FFF6 		e_bge %cr0,.L37
 552              		.loc 1 99 0
 553 004c 51090004 		e_lwz %r8,4(%r9)
 554              	.LBE71:
 555              	.LBE70:
 556              		.loc 1 315 0
 557 0050 0324     		se_mfar %r4,%r10
 558              	.LBB73:
 559              	.LBB72:
 560              		.loc 1 98 0
 561 0052 552A0000 		e_stw %r9,0(%r10)
 562              		.loc 1 99 0
 563 0056 550A0004 		e_stw %r8,4(%r10)
 564              		.loc 1 100 0
 565 005a 55490004 		e_stw %r10,4(%r9)
 566 005e 55480000 		e_stw %r10,0(%r8)
 567              	.LBE72:
 568              	.LBE73:
 569              		.loc 1 316 0
 570              		.loc 1 315 0
GAS LISTING C:\Users\jean\AppData\Local\Temp\cc2yrEok.s 			page 11


 571 0062 78000000 		e_b _port_switch
 572              	.LVL43:
 573              		.cfi_endproc
 574              	.LFE23:
 575              		.size	chSchDoRescheduleBehind, .-chSchDoRescheduleBehind
 576              		.section	.text.chSchDoRescheduleAhead,"axv",@progbits
 577              		.align 1
 578              		.p2align 4,,15
 579              		.globl chSchDoRescheduleAhead
 580              		.type	chSchDoRescheduleAhead, @function
 581              	chSchDoRescheduleAhead:
 582              	.LFB24:
 583              		.loc 1 329 0
 584              		.cfi_startproc
 585              		.loc 1 332 0
 586 0000 7100E000 		e_lis %r8,.LANCHOR0@ha
 587              	.LBB74:
 588              	.LBB75:
 589              		.loc 2 60 0
 590 0004 50680000 		e_lwz %r3,.LANCHOR0@l(%r8)
 591              	.LBE75:
 592              	.LBE74:
 593              		.loc 1 332 0
 594 0008 1D280000 		e_la %r9,.LANCHOR0@l(%r8)
 595              	.LBB78:
 596              	.LBB76:
 597              		.loc 2 62 0
 598 000c C073     		se_lwz %r7,0(%r3)
 599              	.LBE76:
 600              	.LBE78:
 601              		.loc 1 332 0
 602 000e 51490018 		e_lwz %r10,24(%r9)
 603              	.LVL44:
 604              	.LBB79:
 605              	.LBB77:
 606              		.loc 2 62 0
 607 0012 54E80000 		e_stw %r7,.LANCHOR0@l(%r8)
 608 0016 55270004 		e_stw %r9,4(%r7)
 609              	.LBE77:
 610              	.LBE79:
 611              		.loc 1 335 0
 612 001a 71000001 		e_li %r8,1
 613              		.loc 1 334 0
 614 001e 54690018 		e_stw %r3,24(%r9)
 615              		.loc 1 335 0
 616 0022 3503001C 		e_stb %r8,28(%r3)
 617              		.loc 1 337 0
 618 0026 71200000 		e_li %r9,0
 619 002a 50CA0008 		e_lwz %r6,8(%r10)
 620 002e 352A001C 		e_stb %r9,28(%r10)
 621              	.LVL45:
 622 0032 0231     		se_mtar %r9,%r3
 623 0034 78000008 		e_b .L40
 624              	.LVL46:
 625              	.L41:
 626 0038 51290000 		e_lwz %r9,0(%r9)
 627              	.LVL47:
GAS LISTING C:\Users\jean\AppData\Local\Temp\cc2yrEok.s 			page 12


 628              	.L40:
 629              		.loc 1 341 0 discriminator 1
 630 003c 50E90008 		e_lwz %r7,8(%r9)
 631 0040 0D67     		se_cmpl %r7,%r6
 632 0042 7A11FFF6 		e_bgt %cr0,.L41
 633              		.loc 1 344 0
 634 0046 51090004 		e_lwz %r8,4(%r9)
 635              		.loc 1 347 0
 636 004a 0324     		se_mfar %r4,%r10
 637              		.loc 1 343 0
 638 004c 552A0000 		e_stw %r9,0(%r10)
 639              		.loc 1 344 0
 640 0050 550A0004 		e_stw %r8,4(%r10)
 641              		.loc 1 345 0
 642 0054 55490004 		e_stw %r10,4(%r9)
 643 0058 55480000 		e_stw %r10,0(%r8)
 644              		.loc 1 348 0
 645              		.loc 1 347 0
 646 005c 78000000 		e_b _port_switch
 647              	.LVL48:
 648              		.cfi_endproc
 649              	.LFE24:
 650              		.size	chSchDoRescheduleAhead, .-chSchDoRescheduleAhead
 651              		.section	.text.chSchRescheduleS,"axv",@progbits
 652              		.align 1
 653              		.p2align 4,,15
 654              		.globl chSchRescheduleS
 655              		.type	chSchRescheduleS, @function
 656              	chSchRescheduleS:
 657              	.LFB21:
 658              		.loc 1 253 0
 659              		.cfi_startproc
 660              		.loc 1 257 0
 661 0000 7120E000 		e_lis %r9,.LANCHOR0@ha
 662 0004 51490000 		e_lwz %r10,.LANCHOR0@l(%r9)
 663 0008 1D090000 		e_la %r8,.LANCHOR0@l(%r9)
 664 000c 50EA0008 		e_lwz %r7,8(%r10)
 665 0010 51280018 		e_lwz %r9,24(%r8)
 666 0014 50C90008 		e_lwz %r6,8(%r9)
 667 0018 0D67     		se_cmpl %r7,%r6
 668 001a 7A110006 		e_bgt %cr0,.L44
 669 001e 0004     		se_blr
 670              	.L44:
 671              		.loc 1 259 0
 672              		.loc 1 258 0
 673 0020 78000000 		e_b chSchDoRescheduleAhead
 674              	.LVL49:
 675              		.cfi_endproc
 676              	.LFE21:
 677              		.size	chSchRescheduleS, .-chSchRescheduleS
 678              		.section	.text.chSchDoReschedule,"axv",@progbits
 679              		.align 1
 680              		.p2align 4,,15
 681              		.globl chSchDoReschedule
 682              		.type	chSchDoReschedule, @function
 683              	chSchDoReschedule:
 684              	.LFB25:
GAS LISTING C:\Users\jean\AppData\Local\Temp\cc2yrEok.s 			page 13


 685              		.loc 1 362 0
 686              		.cfi_startproc
 687              		.loc 1 367 0
 688 0000 7120E000 		e_lis %r9,.LANCHOR0+24@ha
 689 0004 51290000 		e_lwz %r9,.LANCHOR0+24@l(%r9)
 690 0008 3129001F 		e_lbz %r9,31(%r9)
 691 000c 1829A800 		e_cmpi %cr1,%r9,0
 692 0010 7A160008 		e_beq %cr1,.L47
 693              		.loc 1 382 0
 694              		.loc 1 375 0
 695 0014 78000000 		e_b chSchDoRescheduleAhead
 696              	.LVL50:
 697              	.L47:
 698              		.loc 1 382 0
 699              		.loc 1 370 0
 700 0018 78000000 		e_b chSchDoRescheduleBehind
 701              	.LVL51:
 702              		.cfi_endproc
 703              	.LFE25:
 704              		.size	chSchDoReschedule, .-chSchDoReschedule
 705              		.globl rlist
 706              		.section	.bss.rlist,"aw",@nobits
 707              		.align 2
 708              		.set	.LANCHOR0,. + 0
 709              		.type	rlist, @object
 710              		.size	rlist, 28
 711              	rlist:
 712 0000 00000000 		.zero	28
 712      00000000 
 712      00000000 
 712      00000000 
 712      00000000 
 713              		.section	".text","axv"
 714              	.Letext0:
 715              		.file 3 "c:\\spc5studio\\eclipse\\plugins\\com.st.tools.spc5.tools.gnu.gcc.ppcvle.win32_1.0.0.2016
 716              		.file 4 "c:\\spc5studio\\eclipse\\plugins\\com.st.tools.spc5.tools.gnu.gcc.ppcvle.win32_1.0.0.2016
 717              		.file 5 "./components/chibios_rt_spc560dxx_kernel_port_component/lib/include/chtypes.h"
 718              		.file 6 "./components/chibios_rt_portable_kernel_component/lib/include/chlists.h"
 719              		.file 7 "./components/chibios_rt_portable_kernel_component/lib/include/chthreads.h"
 720              		.file 8 "./components/chibios_rt_spc560dxx_kernel_port_component/lib/include/chcore.h"
 721              		.file 9 "./components/chibios_rt_portable_kernel_component/lib/include/chvt.h"
 722              		.file 10 "./components/chibios_rt_portable_kernel_component/lib/include/chschd.h"
 723              		.file 11 "./components/chibios_rt_portable_kernel_component/lib/include/chsem.h"
 724              		.file 12 "./components/chibios_rt_portable_kernel_component/lib/include/chmtx.h"
 725              		.file 13 "./components/chibios_rt_portable_kernel_component/lib/include/chsys.h"