GAS LISTING C:\Users\jean\AppData\Local\Temp\cccKbEKS.s 			page 1


   1              		.file	"chsem.c"
   2              		.section	".text","axv"
   3              	.Ltext0:
   4              		.cfi_sections	.debug_frame
   5              		.section	.text.chSemInit,"axv",@progbits
   6              		.align 1
   7              		.p2align 4,,15
   8              		.globl chSemInit
   9              		.type	chSemInit, @function
  10              	chSemInit:
  11              	.LFB15:
  12              		.file 1 "./components/chibios_rt_portable_kernel_component/lib/src/chsem.c"
  13              		.loc 1 86 0
  14              		.cfi_startproc
  15              	.LVL0:
  16              		.loc 1 90 0
  17 0000 D133     		se_stw %r3,4(%r3)
  18 0002 D033     		se_stw %r3,0(%r3)
  19              		.loc 1 91 0
  20 0004 D243     		se_stw %r4,8(%r3)
  21 0006 0004     		se_blr
  22              		.cfi_endproc
  23              	.LFE15:
  24              		.size	chSemInit, .-chSemInit
  25              		.section	.text.chSemResetI,"axv",@progbits
  26              		.align 1
  27              		.p2align 4,,15
  28              		.globl chSemResetI
  29              		.type	chSemResetI, @function
  30              	chSemResetI:
  31              	.LFB17:
  32              		.loc 1 136 0
  33              		.cfi_startproc
  34              	.LVL1:
  35 0000 182106E8 		e_stwu %r1,-24(%r1)
  36              	.LCFI0:
  37              		.cfi_def_cfa_offset 24
  38 0004 0080     		se_mflr %r0
  39 0006 1BA1090C 		e_stmw %r29,12(%r1)
  40 000a D701     		se_stw %r0,28(%r1)
  41              		.cfi_offset 65, 4
  42              		.cfi_offset 29, -12
  43              		.cfi_offset 30, -8
  44              		.cfi_offset 31, -4
  45              		.loc 1 136 0
  46 000c 013E     		se_mr %r30,%r3
  47              		.loc 1 141 0
  48 000e C2F3     		se_lwz %r31,8(%r3)
  49              	.LVL2:
  50              		.loc 1 149 0
  51 0010 73BF7FFE 		e_li %r29,-2
  52              		.loc 1 148 0
  53 0014 200F     		se_addi %r31,1
  54              	.LVL3:
  55              		.loc 1 147 0
  56 0016 D243     		se_stw %r4,8(%r3)
  57              	.LVL4:
GAS LISTING C:\Users\jean\AppData\Local\Temp\cccKbEKS.s 			page 2


  58              		.loc 1 148 0
  59 0018 2A0F     		se_cmpi %r31,0
  60 001a 7A110022 		e_bgt %cr0,.L2
  61              	.LVL5:
  62              	.L6:
  63              	.LBB46:
  64              	.LBB47:
  65              		.file 2 "./components/chibios_rt_portable_kernel_component/lib/include/chinline.h"
  66              		.loc 2 67 0
  67 001e C13E     		se_lwz %r3,4(%r30)
  68              	.LVL6:
  69              	.LBE47:
  70              	.LBE46:
  71              		.loc 1 148 0
  72 0020 200F     		se_addi %r31,1
  73              	.LVL7:
  74              	.LBB49:
  75              	.LBB48:
  76              		.loc 2 69 0
  77 0022 51230004 		e_lwz %r9,4(%r3)
  78 0026 553E0004 		e_stw %r9,4(%r30)
  79 002a 57C90000 		e_stw %r30,0(%r9)
  80              	.LBE48:
  81              	.LBE49:
  82              		.loc 1 149 0
  83 002e 78000001 		e_bl chSchReadyI
  84              	.LVL8:
  85              		.loc 1 148 0
  86 0032 183FA801 		e_cmpi %cr1,%r31,1
  87              		.loc 1 149 0
  88 0036 D9D3     		se_stw %r29,36(%r3)
  89              	.LVL9:
  90              		.loc 1 148 0
  91 0038 7A06FFE6 		e_bne %cr1,.L6
  92              	.LVL10:
  93              	.L2:
  94              		.loc 1 150 0
  95 003c C701     		se_lwz %r0,28(%r1)
  96 003e 0090     		se_mtlr %r0
  97              		.cfi_restore 65
  98 0040 1BA1080C 		e_lmw %r29,12(%r1)
  99              	.LVL11:
 100 0044 2171     		se_addi %r1,24
 101              	.LCFI1:
 102              		.cfi_restore 31
 103              		.cfi_restore 30
 104              		.cfi_restore 29
 105              		.cfi_def_cfa_offset 0
 106 0046 0004     		se_blr
 107              		.cfi_endproc
 108              	.LFE17:
 109              		.size	chSemResetI, .-chSemResetI
 110              		.section	.text.chSemReset,"axv",@progbits
 111              		.align 1
 112              		.p2align 4,,15
 113              		.globl chSemReset
 114              		.type	chSemReset, @function
GAS LISTING C:\Users\jean\AppData\Local\Temp\cccKbEKS.s 			page 3


 115              	chSemReset:
 116              	.LFB16:
 117              		.loc 1 109 0
 118              		.cfi_startproc
 119              	.LVL12:
 120 0000 182106F8 		e_stwu %r1,-8(%r1)
 121              	.LCFI2:
 122              		.cfi_def_cfa_offset 8
 123 0004 0080     		se_mflr %r0
 124 0006 D301     		se_stw %r0,12(%r1)
 125              		.cfi_offset 65, 4
 126              	.LBB50:
 127              	.LBB51:
 128              		.file 3 "./components/chibios_rt_portable_kernel_component/lib/include/chsys.h"
 129              		.loc 3 149 0
 130              	 # 149 "./components/chibios_rt_portable_kernel_component/lib/include/chsys.h" 1
 131 0008 7C000146 		wrteei  0
 132              	 # 0 "" 2
 133              	.LBE51:
 134              	.LBE50:
 135              		.loc 1 112 0
 136 000c 78000001 		e_bl chSemResetI
 137              	.LVL13:
 138              		.loc 1 113 0
 139 0010 78000001 		e_bl chSchRescheduleS
 140              	.LVL14:
 141              	.LBB52:
 142              	.LBB53:
 143              		.loc 3 164 0
 144              	 # 164 "./components/chibios_rt_portable_kernel_component/lib/include/chsys.h" 1
 145 0014 7C008146 		wrteei  1
 146              	 # 0 "" 2
 147              	.LBE53:
 148              	.LBE52:
 149              		.loc 1 115 0
 150 0018 C301     		se_lwz %r0,12(%r1)
 151 001a 0090     		se_mtlr %r0
 152              		.cfi_restore 65
 153 001c 2071     		se_addi %r1,8
 154              	.LCFI3:
 155              		.cfi_def_cfa_offset 0
 156 001e 0004     		se_blr
 157              		.cfi_endproc
 158              	.LFE16:
 159              		.size	chSemReset, .-chSemReset
 160              		.section	.text.chSemWait,"axv",@progbits
 161              		.align 1
 162              		.p2align 4,,15
 163              		.globl chSemWait
 164              		.type	chSemWait, @function
 165              	chSemWait:
 166              	.LFB18:
 167              		.loc 1 164 0
 168              		.cfi_startproc
 169              	.LVL15:
 170 0000 182106F0 		e_stwu %r1,-16(%r1)
 171              	.LCFI4:
GAS LISTING C:\Users\jean\AppData\Local\Temp\cccKbEKS.s 			page 4


 172              		.cfi_def_cfa_offset 16
 173 0004 0080     		se_mflr %r0
 174 0006 D3F1     		se_stw %r31,12(%r1)
 175 0008 D501     		se_stw %r0,20(%r1)
 176              		.cfi_offset 65, 4
 177              		.cfi_offset 31, -4
 178              	.LBB64:
 179              	.LBB65:
 180              		.loc 3 149 0
 181              	 # 149 "./components/chibios_rt_portable_kernel_component/lib/include/chsys.h" 1
 182 000a 7C000146 		wrteei  0
 183              	 # 0 "" 2
 184              	.LVL16:
 185              	.LBE65:
 186              	.LBE64:
 187              	.LBB66:
 188              	.LBB67:
 189              		.loc 1 200 0
 190 000e 71400000 		e_li %r10,0
 191              		.loc 1 194 0
 192 0012 51230008 		e_lwz %r9,8(%r3)
 193 0016 192984FF 		e_addi %r9,%r9,-1
 194 001a 55230008 		e_stw %r9,8(%r3)
 195 001e 1829A800 		e_cmpi %cr1,%r9,0
 196 0022 7A140014 		e_blt %cr1,.L13
 197              	.LBE67:
 198              	.LBE66:
 199              	.LBB73:
 200              	.LBB74:
 201              		.loc 3 164 0
 202              	 # 164 "./components/chibios_rt_portable_kernel_component/lib/include/chsys.h" 1
 203 0026 7C008146 		wrteei  1
 204              	 # 0 "" 2
 205              	.LBE74:
 206              	.LBE73:
 207              		.loc 1 171 0
 208 002a C501     		se_lwz %r0,20(%r1)
 209 002c 0090     		se_mtlr %r0
 210              		.cfi_remember_state
 211              		.cfi_restore 65
 212 002e C3F1     		se_lwz %r31,12(%r1)
 213 0030 0323     		se_mfar %r3,%r10
 214              	.LVL17:
 215 0032 20F1     		se_addi %r1,16
 216              	.LCFI5:
 217              		.cfi_restore 31
 218              		.cfi_def_cfa_offset 0
 219 0034 0004     		se_blr
 220              	.LVL18:
 221              	.L13:
 222              	.LCFI6:
 223              		.cfi_restore_state
 224 0036 0231     		se_mtar %r9,%r3
 225              	.LVL19:
 226              	.LBB76:
 227              	.LBB72:
 228              	.LBB68:
GAS LISTING C:\Users\jean\AppData\Local\Temp\cccKbEKS.s 			page 5


 229              	.LBB69:
 230              		.loc 1 195 0
 231 0038 73E0E000 		e_lis %r31,rlist@ha
 232              		.loc 1 197 0
 233 003c 4833     		se_li %r3,3
 234              	.LVL20:
 235              		.loc 1 195 0
 236 003e 1FFF0000 		e_la %r31,rlist@l(%r31)
 237 0042 515F0018 		e_lwz %r10,24(%r31)
 238 0046 552A0024 		e_stw %r9,36(%r10)
 239              	.LVL21:
 240              	.LBB70:
 241              	.LBB71:
 242              		.loc 2 54 0
 243 004a 552A0000 		e_stw %r9,0(%r10)
 244              		.loc 2 55 0
 245 004e 51090004 		e_lwz %r8,4(%r9)
 246 0052 550A0004 		e_stw %r8,4(%r10)
 247              		.loc 2 56 0
 248 0056 55490004 		e_stw %r10,4(%r9)
 249 005a 55480000 		e_stw %r10,0(%r8)
 250              	.LBE71:
 251              	.LBE70:
 252              		.loc 1 197 0
 253 005e 78000001 		e_bl chSchGoSleepS
 254              	.LVL22:
 255              		.loc 1 198 0
 256 0062 513F0018 		e_lwz %r9,24(%r31)
 257 0066 51490024 		e_lwz %r10,36(%r9)
 258              	.LBE69:
 259              	.LBE68:
 260              	.LBE72:
 261              	.LBE76:
 262              	.LBB77:
 263              	.LBB75:
 264              		.loc 3 164 0
 265              	 # 164 "./components/chibios_rt_portable_kernel_component/lib/include/chsys.h" 1
 266 006a 7C008146 		wrteei  1
 267              	 # 0 "" 2
 268              	.LBE75:
 269              	.LBE77:
 270              		.loc 1 171 0
 271 006e C501     		se_lwz %r0,20(%r1)
 272 0070 0090     		se_mtlr %r0
 273              		.cfi_restore 65
 274 0072 C3F1     		se_lwz %r31,12(%r1)
 275 0074 0323     		se_mfar %r3,%r10
 276 0076 20F1     		se_addi %r1,16
 277              	.LCFI7:
 278              		.cfi_restore 31
 279              		.cfi_def_cfa_offset 0
 280 0078 0004     		se_blr
 281              		.cfi_endproc
 282              	.LFE18:
 283              		.size	chSemWait, .-chSemWait
 284              		.section	.text.chSemWaitS,"axv",@progbits
 285              		.align 1
GAS LISTING C:\Users\jean\AppData\Local\Temp\cccKbEKS.s 			page 6


 286              		.p2align 4,,15
 287              		.globl chSemWaitS
 288              		.type	chSemWaitS, @function
 289              	chSemWaitS:
 290              	.LFB19:
 291              		.loc 1 185 0
 292              		.cfi_startproc
 293              	.LVL23:
 294 0000 182106F0 		e_stwu %r1,-16(%r1)
 295              	.LCFI8:
 296              		.cfi_def_cfa_offset 16
 297 0004 0080     		se_mflr %r0
 298 0006 D3F1     		se_stw %r31,12(%r1)
 299 0008 D501     		se_stw %r0,20(%r1)
 300              		.cfi_offset 65, 4
 301              		.cfi_offset 31, -4
 302              		.loc 1 200 0
 303 000a 71400000 		e_li %r10,0
 304              		.loc 1 194 0
 305 000e 51230008 		e_lwz %r9,8(%r3)
 306 0012 192984FF 		e_addi %r9,%r9,-1
 307 0016 55230008 		e_stw %r9,8(%r3)
 308 001a 1829A800 		e_cmpi %cr1,%r9,0
 309 001e 7A140010 		e_blt %cr1,.L17
 310              		.loc 1 201 0
 311 0022 C501     		se_lwz %r0,20(%r1)
 312 0024 0090     		se_mtlr %r0
 313              		.cfi_remember_state
 314              		.cfi_restore 65
 315 0026 C3F1     		se_lwz %r31,12(%r1)
 316 0028 0323     		se_mfar %r3,%r10
 317              	.LVL24:
 318 002a 20F1     		se_addi %r1,16
 319              	.LCFI9:
 320              		.cfi_restore 31
 321              		.cfi_def_cfa_offset 0
 322 002c 0004     		se_blr
 323              	.LVL25:
 324              	.L17:
 325              	.LCFI10:
 326              		.cfi_restore_state
 327 002e 0231     		se_mtar %r9,%r3
 328              	.LVL26:
 329              	.LBB82:
 330              	.LBB83:
 331              		.loc 1 195 0
 332 0030 73E0E000 		e_lis %r31,rlist@ha
 333              		.loc 1 197 0
 334 0034 4833     		se_li %r3,3
 335              	.LVL27:
 336              		.loc 1 195 0
 337 0036 1FFF0000 		e_la %r31,rlist@l(%r31)
 338 003a 515F0018 		e_lwz %r10,24(%r31)
 339 003e 552A0024 		e_stw %r9,36(%r10)
 340              	.LVL28:
 341              	.LBB84:
 342              	.LBB85:
GAS LISTING C:\Users\jean\AppData\Local\Temp\cccKbEKS.s 			page 7


 343              		.loc 2 54 0
 344 0042 552A0000 		e_stw %r9,0(%r10)
 345              		.loc 2 55 0
 346 0046 51090004 		e_lwz %r8,4(%r9)
 347 004a 550A0004 		e_stw %r8,4(%r10)
 348              		.loc 2 56 0
 349 004e 55490004 		e_stw %r10,4(%r9)
 350 0052 55480000 		e_stw %r10,0(%r8)
 351              	.LBE85:
 352              	.LBE84:
 353              		.loc 1 197 0
 354 0056 78000001 		e_bl chSchGoSleepS
 355              	.LVL29:
 356              	.LBE83:
 357              	.LBE82:
 358              		.loc 1 201 0
 359 005a C501     		se_lwz %r0,20(%r1)
 360 005c 0090     		se_mtlr %r0
 361              		.cfi_restore 65
 362              	.LBB88:
 363              	.LBB86:
 364              		.loc 1 198 0
 365 005e 513F0018 		e_lwz %r9,24(%r31)
 366              	.LBE86:
 367              	.LBE88:
 368              		.loc 1 201 0
 369 0062 C3F1     		se_lwz %r31,12(%r1)
 370              	.LBB89:
 371              	.LBB87:
 372              		.loc 1 198 0
 373 0064 51490024 		e_lwz %r10,36(%r9)
 374              	.LBE87:
 375              	.LBE89:
 376              		.loc 1 201 0
 377 0068 0323     		se_mfar %r3,%r10
 378 006a 20F1     		se_addi %r1,16
 379              	.LCFI11:
 380              		.cfi_restore 31
 381              		.cfi_def_cfa_offset 0
 382 006c 0004     		se_blr
 383              		.cfi_endproc
 384              	.LFE19:
 385              		.size	chSemWaitS, .-chSemWaitS
 386              		.section	.text.chSemWaitTimeoutS,"axv",@progbits
 387              		.align 1
 388              		.p2align 4,,15
 389              		.globl chSemWaitTimeoutS
 390              		.type	chSemWaitTimeoutS, @function
 391              	chSemWaitTimeoutS:
 392              	.LFB21:
 393              		.loc 1 250 0
 394              		.cfi_startproc
 395              	.LVL30:
 396              		.loc 1 254 0
 397 0000 C273     		se_lwz %r7,8(%r3)
 398              		.loc 1 250 0
 399 0002 0232     		se_mtar %r10,%r3
GAS LISTING C:\Users\jean\AppData\Local\Temp\cccKbEKS.s 			page 8


 400              		.loc 1 259 0
 401 0004 192784FF 		e_addi %r9,%r7,-1
 402              		.loc 1 268 0
 403 0008 4803     		se_li %r3,0
 404              	.LVL31:
 405              		.loc 1 259 0
 406 000a 552A0008 		e_stw %r9,8(%r10)
 407 000e 1829A800 		e_cmpi %cr1,%r9,0
 408 0012 7A140006 		e_blt %cr1,.L22
 409              		.loc 1 269 0
 410 0016 0004     		se_blr
 411              	.L22:
 412              		.loc 1 260 0
 413 0018 1824A800 		e_cmpi %cr1,%r4,0
 414 001c 7A16002A 		e_beq %cr1,.L23
 415              	.LVL32:
 416              	.LBB94:
 417              	.LBB95:
 418              		.loc 1 264 0
 419 0020 7120E000 		e_lis %r9,rlist+24@ha
 420              		.loc 1 266 0
 421 0024 4833     		se_li %r3,3
 422              		.loc 1 264 0
 423 0026 51290000 		e_lwz %r9,rlist+24@l(%r9)
 424 002a 55490024 		e_stw %r10,36(%r9)
 425              	.LVL33:
 426              	.LBB96:
 427              	.LBB97:
 428              		.loc 2 54 0
 429 002e 55490000 		e_stw %r10,0(%r9)
 430              		.loc 2 55 0
 431 0032 510A0004 		e_lwz %r8,4(%r10)
 432 0036 55090004 		e_stw %r8,4(%r9)
 433              		.loc 2 56 0
 434 003a 552A0004 		e_stw %r9,4(%r10)
 435 003e 55280000 		e_stw %r9,0(%r8)
 436              	.LBE97:
 437              	.LBE96:
 438              	.LBE95:
 439              	.LBE94:
 440              		.loc 1 269 0
 441              	.LBB99:
 442              	.LBB98:
 443              		.loc 1 266 0
 444 0042 78000000 		e_b chSchGoSleepTimeoutS
 445              	.LVL34:
 446              	.L23:
 447              	.LBE98:
 448              	.LBE99:
 449              		.loc 1 261 0
 450 0046 54EA0008 		e_stw %r7,8(%r10)
 451              		.loc 1 262 0
 452 004a 2C03     		se_bmaski %r3,0
 453 004c 0004     		se_blr
 454              		.cfi_endproc
 455              	.LFE21:
 456              		.size	chSemWaitTimeoutS, .-chSemWaitTimeoutS
GAS LISTING C:\Users\jean\AppData\Local\Temp\cccKbEKS.s 			page 9


 457              		.section	.text.chSemWaitTimeout,"axv",@progbits
 458              		.align 1
 459              		.p2align 4,,15
 460              		.globl chSemWaitTimeout
 461              		.type	chSemWaitTimeout, @function
 462              	chSemWaitTimeout:
 463              	.LFB20:
 464              		.loc 1 222 0
 465              		.cfi_startproc
 466              	.LVL35:
 467 0000 182106F8 		e_stwu %r1,-8(%r1)
 468              	.LCFI12:
 469              		.cfi_def_cfa_offset 8
 470 0004 0080     		se_mflr %r0
 471 0006 D301     		se_stw %r0,12(%r1)
 472              		.cfi_offset 65, 4
 473              	.LBB100:
 474              	.LBB101:
 475              		.loc 3 149 0
 476              	 # 149 "./components/chibios_rt_portable_kernel_component/lib/include/chsys.h" 1
 477 0008 7C000146 		wrteei  0
 478              	 # 0 "" 2
 479              	.LBE101:
 480              	.LBE100:
 481              		.loc 1 226 0
 482 000c 78000001 		e_bl chSemWaitTimeoutS
 483              	.LVL36:
 484              	.LBB102:
 485              	.LBB103:
 486              		.loc 3 164 0
 487              	 # 164 "./components/chibios_rt_portable_kernel_component/lib/include/chsys.h" 1
 488 0010 7C008146 		wrteei  1
 489              	 # 0 "" 2
 490              	.LBE103:
 491              	.LBE102:
 492              		.loc 1 229 0
 493 0014 C301     		se_lwz %r0,12(%r1)
 494 0016 0090     		se_mtlr %r0
 495              		.cfi_restore 65
 496 0018 2071     		se_addi %r1,8
 497              	.LCFI13:
 498              		.cfi_def_cfa_offset 0
 499 001a 0004     		se_blr
 500              		.cfi_endproc
 501              	.LFE20:
 502              		.size	chSemWaitTimeout, .-chSemWaitTimeout
 503              		.section	.text.chSemSignal,"axv",@progbits
 504              		.align 1
 505              		.p2align 4,,15
 506              		.globl chSemSignal
 507              		.type	chSemSignal, @function
 508              	chSemSignal:
 509              	.LFB22:
 510              		.loc 1 278 0
 511              		.cfi_startproc
 512              	.LVL37:
 513 0000 182106F8 		e_stwu %r1,-8(%r1)
GAS LISTING C:\Users\jean\AppData\Local\Temp\cccKbEKS.s 			page 10


 514              	.LCFI14:
 515              		.cfi_def_cfa_offset 8
 516 0004 0080     		se_mflr %r0
 517 0006 D301     		se_stw %r0,12(%r1)
 518              		.cfi_offset 65, 4
 519              	.LBB104:
 520              	.LBB105:
 521              		.loc 3 149 0
 522              	 # 149 "./components/chibios_rt_portable_kernel_component/lib/include/chsys.h" 1
 523 0008 7C000146 		wrteei  0
 524              	 # 0 "" 2
 525              	.LBE105:
 526              	.LBE104:
 527              		.loc 1 287 0
 528 000c 51230008 		e_lwz %r9,8(%r3)
 529 0010 19298001 		e_addi %r9,%r9,1
 530 0014 55230008 		e_stw %r9,8(%r3)
 531 0018 1829A800 		e_cmpi %cr1,%r9,0
 532 001c 7A050010 		e_ble %cr1,.L27
 533              	.LBB106:
 534              	.LBB107:
 535              		.loc 3 164 0
 536              	 # 164 "./components/chibios_rt_portable_kernel_component/lib/include/chsys.h" 1
 537 0020 7C008146 		wrteei  1
 538              	 # 0 "" 2
 539              	.LBE107:
 540              	.LBE106:
 541              		.loc 1 290 0
 542 0024 C301     		se_lwz %r0,12(%r1)
 543 0026 0090     		se_mtlr %r0
 544              		.cfi_remember_state
 545              		.cfi_restore 65
 546 0028 2071     		se_addi %r1,8
 547              	.LCFI15:
 548              		.cfi_def_cfa_offset 0
 549 002a 0004     		se_blr
 550              	.L27:
 551              	.LCFI16:
 552              		.cfi_restore_state
 553 002c 0231     		se_mtar %r9,%r3
 554              	.LVL38:
 555              		.loc 1 288 0
 556 002e 4804     		se_li %r4,0
 557              	.LBB109:
 558              	.LBB110:
 559              		.loc 2 60 0
 560 0030 C033     		se_lwz %r3,0(%r3)
 561              	.LVL39:
 562              		.loc 2 62 0
 563 0032 51430000 		e_lwz %r10,0(%r3)
 564 0036 55490000 		e_stw %r10,0(%r9)
 565 003a 552A0004 		e_stw %r9,4(%r10)
 566              	.LBE110:
 567              	.LBE109:
 568              		.loc 1 288 0
 569 003e 78000001 		e_bl chSchWakeupS
 570              	.LVL40:
GAS LISTING C:\Users\jean\AppData\Local\Temp\cccKbEKS.s 			page 11


 571              	.LBB111:
 572              	.LBB108:
 573              		.loc 3 164 0
 574              	 # 164 "./components/chibios_rt_portable_kernel_component/lib/include/chsys.h" 1
 575 0042 7C008146 		wrteei  1
 576              	 # 0 "" 2
 577              	.LBE108:
 578              	.LBE111:
 579              		.loc 1 290 0
 580 0046 C301     		se_lwz %r0,12(%r1)
 581 0048 0090     		se_mtlr %r0
 582              		.cfi_restore 65
 583 004a 2071     		se_addi %r1,8
 584              	.LCFI17:
 585              		.cfi_def_cfa_offset 0
 586 004c 0004     		se_blr
 587              		.cfi_endproc
 588              	.LFE22:
 589              		.size	chSemSignal, .-chSemSignal
 590              		.section	.text.chSemSignalI,"axv",@progbits
 591              		.align 1
 592              		.p2align 4,,15
 593              		.globl chSemSignalI
 594              		.type	chSemSignalI, @function
 595              	chSemSignalI:
 596              	.LFB23:
 597              		.loc 1 303 0
 598              		.cfi_startproc
 599              	.LVL41:
 600              		.loc 1 312 0
 601 0000 51230008 		e_lwz %r9,8(%r3)
 602              		.loc 1 303 0
 603 0004 0232     		se_mtar %r10,%r3
 604              		.loc 1 312 0
 605 0006 19298001 		e_addi %r9,%r9,1
 606 000a 55230008 		e_stw %r9,8(%r3)
 607 000e 1829A800 		e_cmpi %cr1,%r9,0
 608 0012 7A050006 		e_ble %cr1,.L30
 609 0016 0004     		se_blr
 610              	.L30:
 611              	.LVL42:
 612              	.LBB112:
 613              	.LBB113:
 614              	.LBB114:
 615              		.loc 2 60 0
 616 0018 51230000 		e_lwz %r9,0(%r3)
 617              	.LVL43:
 618              		.loc 2 62 0
 619 001c 51090000 		e_lwz %r8,0(%r9)
 620              	.LBE114:
 621              	.LBE113:
 622              		.loc 1 317 0
 623 0020 0313     		se_mfar %r3,%r9
 624              	.LVL44:
 625              	.LBB116:
 626              	.LBB115:
 627              		.loc 2 62 0
GAS LISTING C:\Users\jean\AppData\Local\Temp\cccKbEKS.s 			page 12


 628 0022 550A0000 		e_stw %r8,0(%r10)
 629 0026 55480004 		e_stw %r10,4(%r8)
 630              	.LBE115:
 631              	.LBE116:
 632              		.loc 1 316 0
 633 002a 71400000 		e_li %r10,0
 634              	.LVL45:
 635 002e 55490024 		e_stw %r10,36(%r9)
 636              	.LBE112:
 637              		.loc 1 319 0
 638              	.LBB117:
 639              		.loc 1 317 0
 640 0032 78000000 		e_b chSchReadyI
 641              	.LVL46:
 642              	.LBE117:
 643              		.cfi_endproc
 644              	.LFE23:
 645              		.size	chSemSignalI, .-chSemSignalI
 646              		.section	.text.chSemAddCounterI,"axv",@progbits
 647              		.align 1
 648              		.p2align 4,,15
 649              		.globl chSemAddCounterI
 650              		.type	chSemAddCounterI, @function
 651              	chSemAddCounterI:
 652              	.LFB24:
 653              		.loc 1 334 0
 654              		.cfi_startproc
 655              	.LVL47:
 656 0000 182106E8 		e_stwu %r1,-24(%r1)
 657              	.LCFI18:
 658              		.cfi_def_cfa_offset 24
 659 0004 0080     		se_mflr %r0
 660 0006 1BA1090C 		e_stmw %r29,12(%r1)
 661 000a D701     		se_stw %r0,28(%r1)
 662              		.cfi_offset 65, 4
 663              		.cfi_offset 29, -12
 664              		.cfi_offset 30, -8
 665              		.cfi_offset 31, -4
 666              		.loc 1 343 0
 667 000c 014F     		se_mr %r31,%r4
 668              		.loc 1 334 0
 669 000e 013E     		se_mr %r30,%r3
 670              		.loc 1 345 0
 671 0010 480D     		se_li %r29,0
 672              		.loc 1 343 0
 673 0012 2A0F     		se_cmpi %r31,0
 674 0014 7A110012 		e_bgt %cr0,.L36
 675 0018 78000040 		e_b .L31
 676              	.LVL48:
 677              	.L33:
 678 001c 1BFF84FF 		e_addi %r31,%r31,-1
 679              	.LVL49:
 680 0020 2A0F     		se_cmpi %r31,0
 681 0022 7A120036 		e_beq %cr0,.L31
 682              	.LVL50:
 683              	.L36:
 684              		.loc 1 344 0
GAS LISTING C:\Users\jean\AppData\Local\Temp\cccKbEKS.s 			page 13


 685 0026 513E0008 		e_lwz %r9,8(%r30)
 686 002a 19298001 		e_addi %r9,%r9,1
 687 002e 553E0008 		e_stw %r9,8(%r30)
 688 0032 1829A800 		e_cmpi %cr1,%r9,0
 689 0036 7A15FFE6 		e_bgt %cr1,.L33
 690              	.LVL51:
 691              	.LBB118:
 692              	.LBB119:
 693              		.loc 2 60 0
 694 003a C03E     		se_lwz %r3,0(%r30)
 695              	.LVL52:
 696              	.LBE119:
 697              	.LBE118:
 698              		.loc 1 343 0
 699 003c 1BFF84FF 		e_addi %r31,%r31,-1
 700              	.LVL53:
 701              	.LBB121:
 702              	.LBB120:
 703              		.loc 2 62 0
 704 0040 51230000 		e_lwz %r9,0(%r3)
 705 0044 553E0000 		e_stw %r9,0(%r30)
 706 0048 57C90004 		e_stw %r30,4(%r9)
 707              	.LBE120:
 708              	.LBE121:
 709              		.loc 1 345 0
 710 004c 78000001 		e_bl chSchReadyI
 711              	.LVL54:
 712              		.loc 1 343 0
 713 0050 2A0F     		se_cmpi %r31,0
 714              		.loc 1 345 0
 715 0052 D9D3     		se_stw %r29,36(%r3)
 716              	.LVL55:
 717              		.loc 1 343 0
 718 0054 7A02FFD2 		e_bne %cr0,.L36
 719              	.LVL56:
 720              	.L31:
 721              		.loc 1 348 0
 722 0058 C701     		se_lwz %r0,28(%r1)
 723 005a 0090     		se_mtlr %r0
 724              		.cfi_restore 65
 725 005c 1BA1080C 		e_lmw %r29,12(%r1)
 726              	.LVL57:
 727 0060 2171     		se_addi %r1,24
 728              	.LCFI19:
 729              		.cfi_restore 31
 730              		.cfi_restore 30
 731              		.cfi_restore 29
 732              		.cfi_def_cfa_offset 0
 733 0062 0004     		se_blr
 734              		.cfi_endproc
 735              	.LFE24:
 736              		.size	chSemAddCounterI, .-chSemAddCounterI
 737              		.section	.text.chSemSignalWait,"axv",@progbits
 738              		.align 1
 739              		.p2align 4,,15
 740              		.globl chSemSignalWait
 741              		.type	chSemSignalWait, @function
GAS LISTING C:\Users\jean\AppData\Local\Temp\cccKbEKS.s 			page 14


 742              	chSemSignalWait:
 743              	.LFB25:
 744              		.loc 1 366 0
 745              		.cfi_startproc
 746              	.LVL58:
 747 0000 182106E8 		e_stwu %r1,-24(%r1)
 748              	.LCFI20:
 749              		.cfi_def_cfa_offset 24
 750 0004 0080     		se_mflr %r0
 751 0006 D5F1     		se_stw %r31,20(%r1)
 752 0008 D701     		se_stw %r0,28(%r1)
 753              		.cfi_offset 65, 4
 754              		.cfi_offset 31, -4
 755              		.loc 1 366 0
 756 000a 0232     		se_mtar %r10,%r3
 757              	.LBB122:
 758              	.LBB123:
 759              		.loc 3 149 0
 760              	 # 149 "./components/chibios_rt_portable_kernel_component/lib/include/chsys.h" 1
 761 000c 7C000146 		wrteei  0
 762              	 # 0 "" 2
 763              	.LBE123:
 764              	.LBE122:
 765              		.loc 1 380 0
 766 0010 51230008 		e_lwz %r9,8(%r3)
 767 0014 19298001 		e_addi %r9,%r9,1
 768 0018 55230008 		e_stw %r9,8(%r3)
 769 001c 1829A800 		e_cmpi %cr1,%r9,0
 770 0020 7A05005C 		e_ble %cr1,.L42
 771              	.LVL59:
 772              	.L39:
 773              		.loc 1 382 0
 774 0024 51240008 		e_lwz %r9,8(%r4)
 775 0028 192984FF 		e_addi %r9,%r9,-1
 776 002c 55240008 		e_stw %r9,8(%r4)
 777 0030 1829A800 		e_cmpi %cr1,%r9,0
 778 0034 7A140018 		e_blt %cr1,.L43
 779              		.loc 1 390 0
 780 0038 78000001 		e_bl chSchRescheduleS
 781              	.LVL60:
 782              		.loc 1 391 0
 783 003c 4803     		se_li %r3,0
 784              	.LVL61:
 785              	.LBB124:
 786              	.LBB125:
 787              		.loc 3 164 0
 788              	 # 164 "./components/chibios_rt_portable_kernel_component/lib/include/chsys.h" 1
 789 003e 7C008146 		wrteei  1
 790              	 # 0 "" 2
 791              	.LBE125:
 792              	.LBE124:
 793              		.loc 1 395 0
 794 0042 C701     		se_lwz %r0,28(%r1)
 795 0044 0090     		se_mtlr %r0
 796              		.cfi_remember_state
 797              		.cfi_restore 65
 798 0046 C5F1     		se_lwz %r31,20(%r1)
GAS LISTING C:\Users\jean\AppData\Local\Temp\cccKbEKS.s 			page 15


 799 0048 2171     		se_addi %r1,24
 800              	.LCFI21:
 801              		.cfi_restore 31
 802              		.cfi_def_cfa_offset 0
 803 004a 0004     		se_blr
 804              	.LVL62:
 805              	.L43:
 806              	.LCFI22:
 807              		.cfi_restore_state
 808              	.LBB127:
 809              	.LBB128:
 810              	.LBB129:
 811              		.loc 2 55 0
 812 004c 51240004 		e_lwz %r9,4(%r4)
 813              	.LBE129:
 814              	.LBE128:
 815              		.loc 1 383 0
 816 0050 7140E000 		e_lis %r10,rlist+24@ha
 817              		.loc 1 386 0
 818 0054 4833     		se_li %r3,3
 819              		.loc 1 383 0
 820 0056 53EA0000 		e_lwz %r31,rlist+24@l(%r10)
 821              	.LVL63:
 822              	.LBB131:
 823              	.LBB130:
 824              		.loc 2 54 0
 825 005a D04F     		se_stw %r4,0(%r31)
 826              		.loc 2 55 0
 827 005c 553F0004 		e_stw %r9,4(%r31)
 828              		.loc 2 56 0
 829 0060 D1F4     		se_stw %r31,4(%r4)
 830 0062 57E90000 		e_stw %r31,0(%r9)
 831              	.LBE130:
 832              	.LBE131:
 833              		.loc 1 385 0
 834 0066 D94F     		se_stw %r4,36(%r31)
 835              		.loc 1 386 0
 836 0068 78000001 		e_bl chSchGoSleepS
 837              	.LVL64:
 838              		.loc 1 387 0
 839 006c C93F     		se_lwz %r3,36(%r31)
 840              	.LVL65:
 841              	.LBE127:
 842              	.LBB132:
 843              	.LBB126:
 844              		.loc 3 164 0
 845              	 # 164 "./components/chibios_rt_portable_kernel_component/lib/include/chsys.h" 1
 846 006e 7C008146 		wrteei  1
 847              	 # 0 "" 2
 848              	.LBE126:
 849              	.LBE132:
 850              		.loc 1 395 0
 851 0072 C701     		se_lwz %r0,28(%r1)
 852 0074 0090     		se_mtlr %r0
 853              		.cfi_remember_state
 854              		.cfi_restore 65
 855 0076 C5F1     		se_lwz %r31,20(%r1)
GAS LISTING C:\Users\jean\AppData\Local\Temp\cccKbEKS.s 			page 16


 856              	.LVL66:
 857 0078 2171     		se_addi %r1,24
 858              	.LCFI23:
 859              		.cfi_restore 31
 860              		.cfi_def_cfa_offset 0
 861 007a 0004     		se_blr
 862              	.LVL67:
 863              	.L42:
 864              	.LCFI24:
 865              		.cfi_restore_state
 866              	.LBB133:
 867              	.LBB134:
 868              		.loc 2 60 0
 869 007c C033     		se_lwz %r3,0(%r3)
 870              	.LVL68:
 871              		.loc 2 62 0
 872 007e 51230000 		e_lwz %r9,0(%r3)
 873 0082 552A0000 		e_stw %r9,0(%r10)
 874 0086 55490004 		e_stw %r10,4(%r9)
 875              	.LBE134:
 876              	.LBE133:
 877              		.loc 1 381 0
 878 008a D241     		se_stw %r4,8(%r1)
 879 008c 78000001 		e_bl chSchReadyI
 880              	.LVL69:
 881 0090 71200000 		e_li %r9,0
 882 0094 55230024 		e_stw %r9,36(%r3)
 883 0098 C241     		se_lwz %r4,8(%r1)
 884 009a 79FFFF8A 		e_b .L39
 885              		.cfi_endproc
 886              	.LFE25:
 887              		.size	chSemSignalWait, .-chSemSignalWait
 888              		.section	".text","axv"
 889              	.Letext0:
 890              		.file 4 "c:\\spc5studio\\eclipse\\plugins\\com.st.tools.spc5.tools.gnu.gcc.ppcvle.win32_1.0.0.2016
 891              		.file 5 "c:\\spc5studio\\eclipse\\plugins\\com.st.tools.spc5.tools.gnu.gcc.ppcvle.win32_1.0.0.2016
 892              		.file 6 "./components/chibios_rt_spc560dxx_kernel_port_component/lib/include/chtypes.h"
 893              		.file 7 "./components/chibios_rt_portable_kernel_component/lib/include/chlists.h"
 894              		.file 8 "./components/chibios_rt_portable_kernel_component/lib/include/chthreads.h"
 895              		.file 9 "./components/chibios_rt_spc560dxx_kernel_port_component/lib/include/chcore.h"
 896              		.file 10 "./components/chibios_rt_portable_kernel_component/lib/include/chschd.h"
 897              		.file 11 "./components/chibios_rt_portable_kernel_component/lib/include/chsem.h"
 898              		.file 12 "./components/chibios_rt_portable_kernel_component/lib/include/chmtx.h"