GAS LISTING C:\Users\jean\AppData\Local\Temp\ccwPHaxW.s 			page 1


   1              		.file	"memstreams.c"
   2              		.section	".text","axv"
   3              	.Ltext0:
   4              		.cfi_sections	.debug_frame
   5              		.section	.text.put,"axv",@progbits
   6              		.align 1
   7              		.p2align 4,,15
   8              		.type	put, @function
   9              	put:
  10              	.LFB17:
  11              		.file 1 "./components/chibios_rt_portable_output_formatter_component/lib/src/memstreams.c"
  12              		.loc 1 66 0
  13              		.cfi_startproc
  14              	.LVL0:
  15              		.loc 1 69 0
  16 0000 C363     		se_lwz %r6,12(%r3)
  17 0002 C273     		se_lwz %r7,8(%r3)
  18              		.loc 1 66 0
  19 0004 0231     		se_mtar %r9,%r3
  20              	.LVL1:
  21              		.loc 1 69 0
  22 0006 0C67     		se_cmp %r7,%r6
  23 0008 7A12001C 		e_beq %cr0,.L3
  24              		.loc 1 71 0
  25 000c 51430004 		e_lwz %r10,4(%r3)
  26              		.loc 1 73 0
  27 0010 4803     		se_li %r3,0
  28              	.LVL2:
  29              		.loc 1 71 0
  30 0012 7C8A31AE 		stbx %r4,%r10,%r6
  31              		.loc 1 72 0
  32 0016 5149000C 		e_lwz %r10,12(%r9)
  33 001a 194A8001 		e_addi %r10,%r10,1
  34 001e 5549000C 		e_stw %r10,12(%r9)
  35              		.loc 1 73 0
  36 0022 0004     		se_blr
  37              	.LVL3:
  38              	.L3:
  39              		.loc 1 70 0
  40 0024 707F7FFE 		e_li %r3,-2
  41              	.LVL4:
  42              		.loc 1 74 0
  43 0028 0004     		se_blr
  44              		.cfi_endproc
  45              	.LFE17:
  46              		.size	put, .-put
  47              		.section	.text.get,"axv",@progbits
  48              		.align 1
  49              		.p2align 4,,15
  50              		.type	get, @function
  51              	get:
  52              	.LFB18:
  53              		.loc 1 76 0
  54              		.cfi_startproc
  55              	.LVL5:
  56              		.loc 1 80 0
  57 0000 C463     		se_lwz %r6,16(%r3)
GAS LISTING C:\Users\jean\AppData\Local\Temp\ccwPHaxW.s 			page 2


  58 0002 C373     		se_lwz %r7,12(%r3)
  59 0004 0C67     		se_cmp %r7,%r6
  60 0006 7A120018 		e_beq %cr0,.L7
  61              		.loc 1 82 0
  62 000a 51230004 		e_lwz %r9,4(%r3)
  63              		.loc 1 83 0
  64 000e 19468001 		e_addi %r10,%r6,1
  65              		.loc 1 82 0
  66 0012 7D2930AE 		lbzx %r9,%r9,%r6
  67              	.LVL6:
  68              		.loc 1 83 0
  69 0016 55430010 		e_stw %r10,16(%r3)
  70              	.LVL7:
  71              		.loc 1 84 0
  72 001a 0313     		se_mfar %r3,%r9
  73              	.LVL8:
  74 001c 0004     		se_blr
  75              	.LVL9:
  76              	.L7:
  77              		.loc 1 81 0
  78 001e 707F7FFE 		e_li %r3,-2
  79              	.LVL10:
  80              		.loc 1 85 0
  81 0022 0004     		se_blr
  82              		.cfi_endproc
  83              	.LFE18:
  84              		.size	get, .-get
  85              		.section	.text.reads,"axv",@progbits
  86              		.align 1
  87              		.p2align 4,,15
  88              		.type	reads, @function
  89              	reads:
  90              	.LFB16:
  91              		.loc 1 56 0
  92              		.cfi_startproc
  93              	.LVL11:
  94 0000 182106F0 		e_stwu %r1,-16(%r1)
  95              	.LCFI0:
  96              		.cfi_def_cfa_offset 16
  97 0004 0080     		se_mflr %r0
  98 0006 1BC10908 		e_stmw %r30,8(%r1)
  99 000a D501     		se_stw %r0,20(%r1)
 100              		.cfi_offset 65, 4
 101              		.cfi_offset 30, -8
 102              		.cfi_offset 31, -4
 103              		.loc 1 56 0
 104 000c 013E     		se_mr %r30,%r3
 105              	.LVL12:
 106              		.loc 1 59 0
 107 000e 51230010 		e_lwz %r9,16(%r3)
 108 0012 C3F3     		se_lwz %r31,12(%r3)
 109              		.loc 1 61 0
 110 0014 51430004 		e_lwz %r10,4(%r3)
 111              		.loc 1 59 0
 112 0018 7CE9F850 		subf %r7, %r9, %r31
 113              		.loc 1 61 0
 114 001c 0143     		se_mr %r3,%r4
GAS LISTING C:\Users\jean\AppData\Local\Temp\ccwPHaxW.s 			page 3


 115              	.LVL13:
 116 001e 0D75     		se_cmpl %r5,%r7
 117 0020 7C8A4A14 		add %r4,%r10,%r9
 118              	.LVL14:
 119 0024 7FE5381E 		isel %r31,%r5,%r7,0
 120              	.LVL15:
 121 0028 01F5     		se_mr %r5,%r31
 122 002a 78000001 		e_bl memcpy
 123              	.LVL16:
 124              		.loc 1 64 0
 125 002e C501     		se_lwz %r0,20(%r1)
 126 0030 0090     		se_mtlr %r0
 127              		.cfi_restore 65
 128              		.loc 1 62 0
 129 0032 C45E     		se_lwz %r5,16(%r30)
 130              		.loc 1 64 0
 131 0034 01F3     		se_mr %r3,%r31
 132              		.loc 1 62 0
 133 0036 04F5     		se_add %r5,%r31
 134 0038 D45E     		se_stw %r5,16(%r30)
 135              		.loc 1 64 0
 136 003a 1BC10808 		e_lmw %r30,8(%r1)
 137              	.LVL17:
 138 003e 20F1     		se_addi %r1,16
 139              	.LCFI1:
 140              		.cfi_restore 31
 141              		.cfi_restore 30
 142              		.cfi_def_cfa_offset 0
 143 0040 0004     		se_blr
 144              		.cfi_endproc
 145              	.LFE16:
 146              		.size	reads, .-reads
 147              		.section	.text.writes,"axv",@progbits
 148              		.align 1
 149              		.p2align 4,,15
 150              		.type	writes, @function
 151              	writes:
 152              	.LFB15:
 153              		.loc 1 46 0
 154              		.cfi_startproc
 155              	.LVL18:
 156 0000 182106F0 		e_stwu %r1,-16(%r1)
 157              	.LCFI2:
 158              		.cfi_def_cfa_offset 16
 159 0004 0080     		se_mflr %r0
 160 0006 1BC10908 		e_stmw %r30,8(%r1)
 161 000a D501     		se_stw %r0,20(%r1)
 162              		.cfi_offset 65, 4
 163              		.cfi_offset 30, -8
 164              		.cfi_offset 31, -4
 165              		.loc 1 46 0
 166 000c 013E     		se_mr %r30,%r3
 167              	.LVL19:
 168              		.loc 1 49 0
 169 000e 5123000C 		e_lwz %r9,12(%r3)
 170 0012 C2F3     		se_lwz %r31,8(%r3)
 171              		.loc 1 51 0
GAS LISTING C:\Users\jean\AppData\Local\Temp\ccwPHaxW.s 			page 4


 172 0014 C133     		se_lwz %r3,4(%r3)
 173              	.LVL20:
 174              		.loc 1 49 0
 175 0016 7CE9F850 		subf %r7, %r9, %r31
 176              		.loc 1 51 0
 177 001a 7C634A14 		add %r3,%r3,%r9
 178 001e 0D75     		se_cmpl %r5,%r7
 179 0020 7FE5381E 		isel %r31,%r5,%r7,0
 180              	.LVL21:
 181 0024 01F5     		se_mr %r5,%r31
 182 0026 78000001 		e_bl memcpy
 183              	.LVL22:
 184              		.loc 1 54 0
 185 002a C501     		se_lwz %r0,20(%r1)
 186 002c 0090     		se_mtlr %r0
 187              		.cfi_restore 65
 188              		.loc 1 52 0
 189 002e C35E     		se_lwz %r5,12(%r30)
 190              		.loc 1 54 0
 191 0030 01F3     		se_mr %r3,%r31
 192              		.loc 1 52 0
 193 0032 04F5     		se_add %r5,%r31
 194 0034 D35E     		se_stw %r5,12(%r30)
 195              		.loc 1 54 0
 196 0036 1BC10808 		e_lmw %r30,8(%r1)
 197              	.LVL23:
 198 003a 20F1     		se_addi %r1,16
 199              	.LCFI3:
 200              		.cfi_restore 31
 201              		.cfi_restore 30
 202              		.cfi_def_cfa_offset 0
 203 003c 0004     		se_blr
 204              		.cfi_endproc
 205              	.LFE15:
 206              		.size	writes, .-writes
 207              		.section	.text.msObjectInit,"axv",@progbits
 208              		.align 1
 209              		.p2align 4,,15
 210              		.globl msObjectInit
 211              		.type	msObjectInit, @function
 212              	msObjectInit:
 213              	.LFB19:
 214              		.loc 1 104 0
 215              		.cfi_startproc
 216              	.LVL24:
 217              		.loc 1 106 0
 218 0000 7120E000 		e_lis %r9,.LANCHOR0@ha
 219              		.loc 1 107 0
 220 0004 D143     		se_stw %r4,4(%r3)
 221              		.loc 1 106 0
 222 0006 1D290000 		e_la %r9,.LANCHOR0@l(%r9)
 223              		.loc 1 108 0
 224 000a D253     		se_stw %r5,8(%r3)
 225              		.loc 1 106 0
 226 000c 55230000 		e_stw %r9,0(%r3)
 227              		.loc 1 109 0
 228 0010 D363     		se_stw %r6,12(%r3)
GAS LISTING C:\Users\jean\AppData\Local\Temp\ccwPHaxW.s 			page 5


 229              		.loc 1 110 0
 230 0012 71200000 		e_li %r9,0
 231 0016 55230010 		e_stw %r9,16(%r3)
 232 001a 0004     		se_blr
 233              		.cfi_endproc
 234              	.LFE19:
 235              		.size	msObjectInit, .-msObjectInit
 236              		.section	.rodata.vmt,"a",@progbits
 237              		.align 2
 238              		.set	.LANCHOR0,. + 0
 239              		.type	vmt, @object
 240              		.size	vmt, 16
 241              	vmt:
 242 0000 00000000 		.long	writes
 243 0004 00000000 		.long	reads
 244 0008 00000000 		.long	put
 245 000c 00000000 		.long	get
 246              		.section	".text","axv"
 247              	.Letext0:
 248              		.file 2 "c:\\spc5studio\\eclipse\\plugins\\com.st.tools.spc5.tools.gnu.gcc.ppcvle.win32_1.0.0.2016
 249              		.file 3 "c:\\spc5studio\\eclipse\\plugins\\com.st.tools.spc5.tools.gnu.gcc.ppcvle.win32_1.0.0.2016
 250              		.file 4 "c:\\spc5studio\\eclipse\\plugins\\com.st.tools.spc5.tools.gnu.gcc.ppcvle.win32_1.0.0.2016
 251              		.file 5 "./components/chibios_rt_spc560dxx_kernel_port_component/lib/include/chtypes.h"
 252              		.file 6 "./components/chibios_rt_portable_output_formatter_component/lib/include/memstreams.h"