GAS LISTING C:\Users\jean\AppData\Local\Temp\ccnWa3Er.s 			page 1


   1              		.file	"pal_lld.c"
   2              		.section	".text","axv"
   3              	.Ltext0:
   4              		.cfi_sections	.debug_frame
   5              		.section	.text._pal_lld_init,"axv",@progbits
   6              		.align 1
   7              		.p2align 4,,15
   8              		.globl _pal_lld_init
   9              		.type	_pal_lld_init, @function
  10              	_pal_lld_init:
  11              	.LFB44:
  12              		.file 1 "./components/spc560dxx_hal_drivers_component/lib/src/pal_lld.c"
  13              		.loc 1 64 0
  14              		.cfi_startproc
  15              	.LVL0:
  16 0000 182106F0 		e_stwu %r1,-16(%r1)
  17              	.LCFI0:
  18              		.cfi_def_cfa_offset 16
  19 0004 0080     		se_mflr %r0
  20 0006 D3F1     		se_stw %r31,12(%r1)
  21 0008 D501     		se_stw %r0,20(%r1)
  22              		.cfi_offset 65, 4
  23              		.cfi_offset 31, -4
  24              		.loc 1 64 0
  25 000a 013F     		se_mr %r31,%r3
  26              		.loc 1 69 0
  27 000c 4924     		se_li %r4,18
  28 000e 4C43     		se_li %r3,68
  29              	.LVL1:
  30 0010 78000001 		e_bl halSPCSetPeripheralClockMode
  31              	.LVL2:
  32 0014 71000001 		e_li %r8,1
  33 0018 71400000 		e_li %r10,0
  34 001c 7800000C 		e_b .L2
  35              	.LVL3:
  36              	.L3:
  37 0020 19088001 		e_addi %r8,%r8,1
  38 0024 194A8001 		e_addi %r10,%r10,1
  39              	.LVL4:
  40              	.L2:
  41              	.LBB2:
  42              		.loc 1 81 0
  43 0028 18AAA820 		e_cmpli %cr1,%r10,32
  44 002c 7A16FFF4 		e_beq %cr1,.L3
  45 0030 18AAA821 		e_cmpli %cr1,%r10,33
  46 0034 7A16FFEC 		e_beq %cr1,.L3
  47              		.loc 1 87 0
  48 0038 192A8020 		e_addi %r9,%r10,32
  49 003c A07F     		se_lhz %r7,0(%r31)
  50 003e 7D290870 		e_slwi %r9,%r9,1
  51              	.LBE2:
  52              		.loc 1 74 0
  53 0042 18A8A84D 		e_cmpli %cr1,%r8,77
  54              	.LBB3:
  55              		.loc 1 87 0
  56 0046 730993F9 		e_add2is %r9,0xc3f9
  57 004a 5CE90000 		e_sth %r7,0(%r9)
GAS LISTING C:\Users\jean\AppData\Local\Temp\ccnWa3Er.s 			page 2


  58              	.LVL5:
  59              	.LBE3:
  60              		.loc 1 74 0
  61 004e 7A06FFD2 		e_bne %cr1,.L3
  62 0052 4BF7     		se_li %r7,63
  63 0054 71200000 		e_li %r9,0
  64 0058 00B7     		se_mtctr %r7
  65              	.LVL6:
  66              	.L5:
  67              		.loc 1 96 0 discriminator 3
  68 005a 515F0008 		e_lwz %r10,8(%r31)
  69 005e 7D0A48AE 		lbzx %r8,%r10,%r9
  70 0062 7D2A4B78 		mr %r10,%r9
  71 0066 19298001 		e_addi %r9,%r9,1
  72              	.LVL7:
  73 006a 730A93F9 		e_add2is %r10,0xc3f9
  74              	.LVL8:
  75 006e 350A0500 		e_stb %r8,1280(%r10)
  76              		.loc 1 95 0 discriminator 3
  77 0072 7A20FFE8 		e_bdnz .L5
  78              	.LVL9:
  79              		.loc 1 100 0
  80 0076 511F0004 		e_lwz %r8,4(%r31)
  81 007a 71400000 		e_li %r10,0
  82 007e 51280000 		e_lwz %r9,0(%r8)
  83 0082 1829ACFF 		e_cmpi %cr1,%r9,-1
  84 0086 7A160048 		e_beq %cr1,.L1
  85              	.LVL10:
  86              	.L13:
  87              		.loc 1 101 0
  88 008a 31080004 		e_lbz %r8,4(%r8)
  89 008e 730993F9 		e_add2is %r9,0xc3f9
  90 0092 35090600 		e_stb %r8,1536(%r9)
  91              		.loc 1 102 0
  92 0096 511F0004 		e_lwz %r8,4(%r31)
  93 009a 7D28502E 		lwzx %r9,%r8,%r10
  94 009e 7D085214 		add %r8,%r8,%r10
  95 00a2 19298020 		e_addi %r9,%r9,32
  96              		.loc 1 100 0
  97 00a6 194A8008 		e_addi %r10,%r10,8
  98              		.loc 1 102 0
  99 00aa 59080006 		e_lhz %r8,6(%r8)
 100 00ae 7D290870 		e_slwi %r9,%r9,1
 101 00b2 730993F9 		e_add2is %r9,0xc3f9
 102 00b6 5D090000 		e_sth %r8,0(%r9)
 103              		.loc 1 100 0
 104 00ba 511F0004 		e_lwz %r8,4(%r31)
 105 00be 7D28502E 		lwzx %r9,%r8,%r10
 106 00c2 7D085214 		add %r8,%r8,%r10
 107 00c6 1829ACFF 		e_cmpi %cr1,%r9,-1
 108 00ca 7A06FFC0 		e_bne %cr1,.L13
 109              	.L1:
 110              		.loc 1 105 0
 111 00ce C501     		se_lwz %r0,20(%r1)
 112 00d0 0090     		se_mtlr %r0
 113              		.cfi_restore 65
 114 00d2 C3F1     		se_lwz %r31,12(%r1)
GAS LISTING C:\Users\jean\AppData\Local\Temp\ccnWa3Er.s 			page 3


 115              	.LVL11:
 116 00d4 20F1     		se_addi %r1,16
 117              	.LCFI1:
 118              		.cfi_restore 31
 119              		.cfi_def_cfa_offset 0
 120 00d6 0004     		se_blr
 121              		.cfi_endproc
 122              	.LFE44:
 123              		.size	_pal_lld_init, .-_pal_lld_init
 124              		.section	.text._pal_lld_readgroup,"axv",@progbits
 125              		.align 1
 126              		.p2align 4,,15
 127              		.globl _pal_lld_readgroup
 128              		.type	_pal_lld_readgroup, @function
 129              	_pal_lld_readgroup:
 130              	.LFB45:
 131              		.loc 1 119 0
 132              		.cfi_startproc
 133              	.LVL12:
 134              		.loc 1 125 0
 135 0000 4803     		se_li %r3,0
 136              	.LVL13:
 137 0002 0004     		se_blr
 138              		.cfi_endproc
 139              	.LFE45:
 140              		.size	_pal_lld_readgroup, .-_pal_lld_readgroup
 141              		.section	.text._pal_lld_writegroup,"axv",@progbits
 142              		.align 1
 143              		.p2align 4,,15
 144              		.globl _pal_lld_writegroup
 145              		.type	_pal_lld_writegroup, @function
 146              	_pal_lld_writegroup:
 147              	.LFB46:
 148              		.loc 1 141 0
 149              		.cfi_startproc
 150              	.LVL14:
 151 0000 0004     		se_blr
 152              		.cfi_endproc
 153              	.LFE46:
 154              		.size	_pal_lld_writegroup, .-_pal_lld_writegroup
 155              		.section	.text._pal_lld_setgroupmode,"axv",@progbits
 156              		.align 1
 157              		.p2align 4,,15
 158              		.globl _pal_lld_setgroupmode
 159              		.type	_pal_lld_setgroupmode, @function
 160              	_pal_lld_setgroupmode:
 161              	.LFB47:
 162              		.loc 1 162 0
 163              		.cfi_startproc
 164              	.LVL15:
 165              		.loc 1 164 0
 166 0000 71200000 		e_li %r9,0
 167 0004 4907     		se_li %r7,16
 168              		.loc 1 163 0
 169 0006 6C43     		se_slwi %r3, 4
 170              	.LVL16:
 171              		.loc 1 164 0
GAS LISTING C:\Users\jean\AppData\Local\Temp\ccnWa3Er.s 			page 4


 172 0008 1929D180 		e_ori %r9,%r9,32768
 173 000c 00B7     		se_mtctr %r7
 174              	.LVL17:
 175              	.L24:
 176              		.loc 1 166 0
 177 000e 7D2A2039 		and. %r10,%r9,%r4
 178 0012 7A120014 		e_beq %cr0,.L23
 179              		.loc 1 167 0
 180 0016 19438020 		e_addi %r10,%r3,32
 181 001a 7D4A0870 		e_slwi %r10,%r10,1
 182 001e 730A93F9 		e_add2is %r10,0xc3f9
 183 0022 5CAA0000 		e_sth %r5,0(%r10)
 184              	.L23:
 185              		.loc 1 168 0
 186 0026 7D290C70 		e_srwi %r9,%r9,1
 187              	.LVL18:
 188              		.loc 1 169 0
 189 002a 2003     		se_addi %r3,1
 190              	.LVL19:
 191              		.loc 1 165 0
 192 002c 7A20FFE2 		e_bdnz .L24
 193              		.loc 1 171 0
 194 0030 0004     		se_blr
 195              		.cfi_endproc
 196              	.LFE47:
 197              		.size	_pal_lld_setgroupmode, .-_pal_lld_setgroupmode
 198              		.section	".text","axv"
 199              	.Letext0:
 200              		.file 2 "c:\\spc5studio\\eclipse\\plugins\\com.st.tools.spc5.tools.gnu.gcc.ppcvle.win32_1.0.0.2016
 201              		.file 3 "c:\\spc5studio\\eclipse\\plugins\\com.st.tools.spc5.tools.gnu.gcc.ppcvle.win32_1.0.0.2016
 202              		.file 4 "./components/chibios_rt_spc560dxx_kernel_port_component/lib/include/chtypes.h"
 203              		.file 5 "./components/chibios_rt_portable_kernel_component/lib/include/chvt.h"
 204              		.file 6 "./components/spc560dxx_hal_drivers_component/lib/include/xpc560d.h"
 205              		.file 7 "./components/spc560dxx_hal_drivers_component/lib/include/pal_lld.h"
 206              		.file 8 "./components/spc560dxx_hal_drivers_component/lib/include/hal_lld.h"