GAS LISTING C:\Users\jean\AppData\Local\Temp\cc8UUL6z.s 			page 1


   1              		.file	"pwm.c"
   2              		.section	".text","axv"
   3              	.Ltext0:
   4              		.cfi_sections	.debug_frame
   5              		.section	.text.pwmInit,"axv",@progbits
   6              		.align 1
   7              		.p2align 4,,15
   8              		.globl pwmInit
   9              		.type	pwmInit, @function
  10              	pwmInit:
  11              	.LFB44:
  12              		.file 1 "./components/portable_spc5_hal_component/lib/src/pwm.c"
  13              		.loc 1 56 0
  14              		.cfi_startproc
  15              		.loc 1 59 0
  16              		.loc 1 58 0
  17 0000 78000000 		e_b pwm_lld_init
  18              	.LVL0:
  19              		.cfi_endproc
  20              	.LFE44:
  21              		.size	pwmInit, .-pwmInit
  22              		.section	.text.pwmObjectInit,"axv",@progbits
  23              		.align 1
  24              		.p2align 4,,15
  25              		.globl pwmObjectInit
  26              		.type	pwmObjectInit, @function
  27              	pwmObjectInit:
  28              	.LFB45:
  29              		.loc 1 68 0
  30              		.cfi_startproc
  31              	.LVL1:
  32              		.loc 1 70 0
  33 0000 71200001 		e_li %r9,1
  34 0004 55230000 		e_stw %r9,0(%r3)
  35              		.loc 1 71 0
  36 0008 71200000 		e_li %r9,0
  37 000c 55230004 		e_stw %r9,4(%r3)
  38 0010 0004     		se_blr
  39              		.cfi_endproc
  40              	.LFE45:
  41              		.size	pwmObjectInit, .-pwmObjectInit
  42              		.section	.text.pwmStart,"axv",@progbits
  43              		.align 1
  44              		.p2align 4,,15
  45              		.globl pwmStart
  46              		.type	pwmStart, @function
  47              	pwmStart:
  48              	.LFB46:
  49              		.loc 1 87 0
  50              		.cfi_startproc
  51              	.LVL2:
  52 0000 182106F0 		e_stwu %r1,-16(%r1)
  53              	.LCFI0:
  54              		.cfi_def_cfa_offset 16
  55 0004 0080     		se_mflr %r0
  56 0006 D3F1     		se_stw %r31,12(%r1)
  57 0008 D501     		se_stw %r0,20(%r1)
GAS LISTING C:\Users\jean\AppData\Local\Temp\cc8UUL6z.s 			page 2


  58              		.cfi_offset 65, 4
  59              		.cfi_offset 31, -4
  60              		.loc 1 87 0
  61 000a 013F     		se_mr %r31,%r3
  62              	.LBB46:
  63              	.LBB47:
  64              	.LBB48:
  65              		.file 2 "./components/chibios_rt_portable_kernel_component/lib/include/chsys.h"
  66              		.loc 2 149 0
  67              	 # 149 "./components/chibios_rt_portable_kernel_component/lib/include/chsys.h" 1
  68 000c 7C000146 		wrteei  0
  69              	 # 0 "" 2
  70              	.LBE48:
  71              	.LBE47:
  72              	.LBE46:
  73              		.loc 1 92 0
  74 0010 51230000 		e_lwz %r9,0(%r3)
  75 0014 18A9A801 		e_cmpli %cr1,%r9,1
  76 0018 7A160008 		e_beq %cr1,.L4
  77              		.loc 1 92 0 is_stmt 0 discriminator 2
  78 001c 51230000 		e_lwz %r9,0(%r3)
  79              	.L4:
  80              		.loc 1 95 0 is_stmt 1
  81 0020 51240004 		e_lwz %r9,4(%r4)
  82              		.loc 1 96 0
  83 0024 01F3     		se_mr %r3,%r31
  84              	.LVL3:
  85              		.loc 1 95 0
  86 0026 553F0008 		e_stw %r9,8(%r31)
  87              		.loc 1 94 0
  88 002a D14F     		se_stw %r4,4(%r31)
  89              		.loc 1 96 0
  90 002c 78000001 		e_bl pwm_lld_start
  91              	.LVL4:
  92              		.loc 1 97 0
  93 0030 71200002 		e_li %r9,2
  94 0034 553F0000 		e_stw %r9,0(%r31)
  95              	.LBB49:
  96              	.LBB50:
  97              	.LBB51:
  98              		.loc 2 164 0
  99              	 # 164 "./components/chibios_rt_portable_kernel_component/lib/include/chsys.h" 1
 100 0038 7C008146 		wrteei  1
 101              	 # 0 "" 2
 102              	.LBE51:
 103              	.LBE50:
 104              	.LBE49:
 105              		.loc 1 99 0
 106 003c C501     		se_lwz %r0,20(%r1)
 107 003e 0090     		se_mtlr %r0
 108              		.cfi_restore 65
 109 0040 C3F1     		se_lwz %r31,12(%r1)
 110              	.LVL5:
 111 0042 20F1     		se_addi %r1,16
 112              	.LCFI1:
 113              		.cfi_restore 31
 114              		.cfi_def_cfa_offset 0
GAS LISTING C:\Users\jean\AppData\Local\Temp\cc8UUL6z.s 			page 3


 115 0044 0004     		se_blr
 116              		.cfi_endproc
 117              	.LFE46:
 118              		.size	pwmStart, .-pwmStart
 119              		.section	.text.pwmStop,"axv",@progbits
 120              		.align 1
 121              		.p2align 4,,15
 122              		.globl pwmStop
 123              		.type	pwmStop, @function
 124              	pwmStop:
 125              	.LFB47:
 126              		.loc 1 108 0
 127              		.cfi_startproc
 128              	.LVL6:
 129 0000 182106F0 		e_stwu %r1,-16(%r1)
 130              	.LCFI2:
 131              		.cfi_def_cfa_offset 16
 132 0004 0080     		se_mflr %r0
 133 0006 D3F1     		se_stw %r31,12(%r1)
 134 0008 D501     		se_stw %r0,20(%r1)
 135              		.cfi_offset 65, 4
 136              		.cfi_offset 31, -4
 137              		.loc 1 108 0
 138 000a 013F     		se_mr %r31,%r3
 139              	.LBB52:
 140              	.LBB53:
 141              	.LBB54:
 142              		.loc 2 149 0
 143              	 # 149 "./components/chibios_rt_portable_kernel_component/lib/include/chsys.h" 1
 144 000c 7C000146 		wrteei  0
 145              	 # 0 "" 2
 146              	.LBE54:
 147              	.LBE53:
 148              	.LBE52:
 149              		.loc 1 113 0
 150 0010 51230000 		e_lwz %r9,0(%r3)
 151 0014 18A9A801 		e_cmpli %cr1,%r9,1
 152 0018 7A160008 		e_beq %cr1,.L10
 153              		.loc 1 113 0 is_stmt 0 discriminator 2
 154 001c 51230000 		e_lwz %r9,0(%r3)
 155              	.L10:
 156              		.loc 1 115 0 is_stmt 1
 157 0020 01F3     		se_mr %r3,%r31
 158              	.LVL7:
 159 0022 78000001 		e_bl pwm_lld_stop
 160              	.LVL8:
 161              		.loc 1 116 0
 162 0026 71200001 		e_li %r9,1
 163 002a 553F0000 		e_stw %r9,0(%r31)
 164              	.LBB55:
 165              	.LBB56:
 166              	.LBB57:
 167              		.loc 2 164 0
 168              	 # 164 "./components/chibios_rt_portable_kernel_component/lib/include/chsys.h" 1
 169 002e 7C008146 		wrteei  1
 170              	 # 0 "" 2
 171              	.LBE57:
GAS LISTING C:\Users\jean\AppData\Local\Temp\cc8UUL6z.s 			page 4


 172              	.LBE56:
 173              	.LBE55:
 174              		.loc 1 118 0
 175 0032 C501     		se_lwz %r0,20(%r1)
 176 0034 0090     		se_mtlr %r0
 177              		.cfi_restore 65
 178 0036 C3F1     		se_lwz %r31,12(%r1)
 179              	.LVL9:
 180 0038 20F1     		se_addi %r1,16
 181              	.LCFI3:
 182              		.cfi_restore 31
 183              		.cfi_def_cfa_offset 0
 184 003a 0004     		se_blr
 185              		.cfi_endproc
 186              	.LFE47:
 187              		.size	pwmStop, .-pwmStop
 188              		.section	.text.pwmChangePeriod,"axv",@progbits
 189              		.align 1
 190              		.p2align 4,,15
 191              		.globl pwmChangePeriod
 192              		.type	pwmChangePeriod, @function
 193              	pwmChangePeriod:
 194              	.LFB48:
 195              		.loc 1 135 0
 196              		.cfi_startproc
 197              	.LVL10:
 198 0000 182106F8 		e_stwu %r1,-8(%r1)
 199              	.LCFI4:
 200              		.cfi_def_cfa_offset 8
 201 0004 0080     		se_mflr %r0
 202 0006 0231     		se_mtar %r9,%r3
 203 0008 D301     		se_stw %r0,12(%r1)
 204              		.cfi_offset 65, 4
 205              	.LBB58:
 206              	.LBB59:
 207              	.LBB60:
 208              		.loc 2 149 0
 209              	 # 149 "./components/chibios_rt_portable_kernel_component/lib/include/chsys.h" 1
 210 000a 7C000146 		wrteei  0
 211              	 # 0 "" 2
 212              	.LBE60:
 213              	.LBE59:
 214              	.LBE58:
 215              		.loc 1 140 0
 216 000e 51030000 		e_lwz %r8,0(%r3)
 217              		.loc 1 142 0
 218 0012 54890008 		e_stw %r4,8(%r9)
 219 0016 78000001 		e_bl pwm_lld_change_period
 220              	.LVL11:
 221              	.LBB61:
 222              	.LBB62:
 223              	.LBB63:
 224              		.loc 2 164 0
 225              	 # 164 "./components/chibios_rt_portable_kernel_component/lib/include/chsys.h" 1
 226 001a 7C008146 		wrteei  1
 227              	 # 0 "" 2
 228              	.LBE63:
GAS LISTING C:\Users\jean\AppData\Local\Temp\cc8UUL6z.s 			page 5


 229              	.LBE62:
 230              	.LBE61:
 231              		.loc 1 144 0
 232 001e C301     		se_lwz %r0,12(%r1)
 233 0020 0090     		se_mtlr %r0
 234              		.cfi_restore 65
 235 0022 2071     		se_addi %r1,8
 236              	.LCFI5:
 237              		.cfi_def_cfa_offset 0
 238 0024 0004     		se_blr
 239              		.cfi_endproc
 240              	.LFE48:
 241              		.size	pwmChangePeriod, .-pwmChangePeriod
 242              		.section	.text.pwmEnableChannel,"axv",@progbits
 243              		.align 1
 244              		.p2align 4,,15
 245              		.globl pwmEnableChannel
 246              		.type	pwmEnableChannel, @function
 247              	pwmEnableChannel:
 248              	.LFB49:
 249              		.loc 1 162 0
 250              		.cfi_startproc
 251              	.LVL12:
 252 0000 182106F8 		e_stwu %r1,-8(%r1)
 253              	.LCFI6:
 254              		.cfi_def_cfa_offset 8
 255 0004 0080     		se_mflr %r0
 256 0006 0231     		se_mtar %r9,%r3
 257 0008 D301     		se_stw %r0,12(%r1)
 258              		.cfi_offset 65, 4
 259              	.LBB64:
 260              	.LBB65:
 261              	.LBB66:
 262              		.loc 2 149 0
 263              	 # 149 "./components/chibios_rt_portable_kernel_component/lib/include/chsys.h" 1
 264 000a 7C000146 		wrteei  0
 265              	 # 0 "" 2
 266              	.LBE66:
 267              	.LBE65:
 268              	.LBE64:
 269              		.loc 1 167 0
 270 000e 51290000 		e_lwz %r9,0(%r9)
 271              		.loc 1 168 0
 272 0012 78000001 		e_bl pwm_lld_enable_channel
 273              	.LVL13:
 274              	.LBB67:
 275              	.LBB68:
 276              	.LBB69:
 277              		.loc 2 164 0
 278              	 # 164 "./components/chibios_rt_portable_kernel_component/lib/include/chsys.h" 1
 279 0016 7C008146 		wrteei  1
 280              	 # 0 "" 2
 281              	.LBE69:
 282              	.LBE68:
 283              	.LBE67:
 284              		.loc 1 170 0
 285 001a C301     		se_lwz %r0,12(%r1)
GAS LISTING C:\Users\jean\AppData\Local\Temp\cc8UUL6z.s 			page 6


 286 001c 0090     		se_mtlr %r0
 287              		.cfi_restore 65
 288 001e 2071     		se_addi %r1,8
 289              	.LCFI7:
 290              		.cfi_def_cfa_offset 0
 291 0020 0004     		se_blr
 292              		.cfi_endproc
 293              	.LFE49:
 294              		.size	pwmEnableChannel, .-pwmEnableChannel
 295              		.section	.text.pwmDisableChannel,"axv",@progbits
 296              		.align 1
 297              		.p2align 4,,15
 298              		.globl pwmDisableChannel
 299              		.type	pwmDisableChannel, @function
 300              	pwmDisableChannel:
 301              	.LFB50:
 302              		.loc 1 186 0
 303              		.cfi_startproc
 304              	.LVL14:
 305 0000 182106F8 		e_stwu %r1,-8(%r1)
 306              	.LCFI8:
 307              		.cfi_def_cfa_offset 8
 308 0004 0080     		se_mflr %r0
 309 0006 0231     		se_mtar %r9,%r3
 310 0008 D301     		se_stw %r0,12(%r1)
 311              		.cfi_offset 65, 4
 312              	.LBB70:
 313              	.LBB71:
 314              	.LBB72:
 315              		.loc 2 149 0
 316              	 # 149 "./components/chibios_rt_portable_kernel_component/lib/include/chsys.h" 1
 317 000a 7C000146 		wrteei  0
 318              	 # 0 "" 2
 319              	.LBE72:
 320              	.LBE71:
 321              	.LBE70:
 322              		.loc 1 191 0
 323 000e 51290000 		e_lwz %r9,0(%r9)
 324              		.loc 1 192 0
 325 0012 78000001 		e_bl pwm_lld_disable_channel
 326              	.LVL15:
 327              	.LBB73:
 328              	.LBB74:
 329              	.LBB75:
 330              		.loc 2 164 0
 331              	 # 164 "./components/chibios_rt_portable_kernel_component/lib/include/chsys.h" 1
 332 0016 7C008146 		wrteei  1
 333              	 # 0 "" 2
 334              	.LBE75:
 335              	.LBE74:
 336              	.LBE73:
 337              		.loc 1 194 0
 338 001a C301     		se_lwz %r0,12(%r1)
 339 001c 0090     		se_mtlr %r0
 340              		.cfi_restore 65
 341 001e 2071     		se_addi %r1,8
 342              	.LCFI9:
GAS LISTING C:\Users\jean\AppData\Local\Temp\cc8UUL6z.s 			page 7


 343              		.cfi_def_cfa_offset 0
 344 0020 0004     		se_blr
 345              		.cfi_endproc
 346              	.LFE50:
 347              		.size	pwmDisableChannel, .-pwmDisableChannel
 348              		.section	".text","axv"
 349              	.Letext0:
 350              		.file 3 "c:\\spc5studio\\eclipse\\plugins\\com.st.tools.spc5.tools.gnu.gcc.ppcvle.win32_1.0.0.2016
 351              		.file 4 "c:\\spc5studio\\eclipse\\plugins\\com.st.tools.spc5.tools.gnu.gcc.ppcvle.win32_1.0.0.2016
 352              		.file 5 "./components/chibios_rt_spc560dxx_kernel_port_component/lib/include/chtypes.h"
 353              		.file 6 "./components/chibios_rt_portable_kernel_component/lib/include/chvt.h"
 354              		.file 7 "./components/spc560dxx_hal_drivers_component/lib/include/xpc560d.h"
 355              		.file 8 "./components/portable_spc5_hal_component/lib/include/pwm.h"
 356              		.file 9 "./components/spc560dxx_hal_drivers_component/lib/include/pwm_lld.h"
 357              		.file 10 "./components/chibios_rt_spc5xx_osal_component/lib/include/osal.h"