GAS LISTING C:\Users\jean\AppData\Local\Temp\ccxXHpOC.s 			page 1


   1              		.file	"pwm_lld.c"
   2              		.section	".text","axv"
   3              	.Ltext0:
   4              		.cfi_sections	.debug_frame
   5              		.section	.text.pwm_lld_serve_interrupt2.constprop.1,"axv",@progbits
   6              		.align 1
   7              		.p2align 4,,15
   8              		.type	pwm_lld_serve_interrupt2.constprop.1, @function
   9              	pwm_lld_serve_interrupt2.constprop.1:
  10              	.LFB59:
  11              		.file 1 "./components/spc560dxx_hal_drivers_component/lib/src/pwm_lld.c"
  12              		.loc 1 115 0
  13              		.cfi_startproc
  14              	.LVL0:
  15              		.loc 1 117 0
  16 0000 7C682870 		e_slwi %r8,%r3,5
  17 0004 7140E000 		e_lis %r10,.LANCHOR0@ha
  18 0008 1D4A0000 		e_la %r10,.LANCHOR0@l(%r10)
  19 000c 512A000C 		e_lwz %r9,12(%r10)
  20 0010 7CC94214 		add %r6,%r9,%r8
  21 0014 CC76     		se_lwz %r7,48(%r6)
  22              	.LVL1:
  23              		.loc 1 118 0
  24 0016 6707     		se_btsti %r7,16
  25 0018 7A12000A 		e_beq %cr0,.L2
  26              		.loc 1 119 0
  27 001c CC56     		se_lwz %r5,48(%r6)
  28 001e 6505     		se_bseti %r5,16
  29 0020 DC56     		se_stw %r5,48(%r6)
  30              	.L2:
  31              		.loc 1 121 0
  32 0022 1827A800 		e_cmpi %cr1,%r7,0
  33 0026 7A140042 		e_blt %cr1,.L14
  34              	.L3:
  35              		.loc 1 124 0
  36 002a 67F7     		se_btsti %r7,31
  37 002c 7A12003A 		e_beq %cr0,.L1
  38              	.LVL2:
  39              	.LBB4:
  40              	.LBB5:
  41              		.loc 1 125 0
  42 0030 7D094214 		add %r8,%r9,%r8
  43              		.loc 1 126 0
  44 0034 50EA0004 		e_lwz %r7,4(%r10)
  45              	.LVL3:
  46              		.loc 1 125 0
  47 0038 50C80030 		e_lwz %r6,48(%r8)
  48              		.loc 1 126 0
  49 003c 1869C007 		e_andi %r9,%r3,7
  50              		.loc 1 125 0
  51 0040 65F6     		se_bseti %r6,31
  52              		.loc 1 126 0
  53 0042 192984FF 		e_addi %r9,%r9,-1
  54              		.loc 1 125 0
  55 0046 54C80030 		e_stw %r6,48(%r8)
  56              		.loc 1 126 0
  57 004a 7D291870 		e_slwi %r9,%r9,3
GAS LISTING C:\Users\jean\AppData\Local\Temp\ccxXHpOC.s 			page 2


  58 004e 7D274A14 		add %r9,%r7,%r9
  59 0052 51290010 		e_lwz %r9,16(%r9)
  60 0056 1829A800 		e_cmpi %cr1,%r9,0
  61 005a 7A16000C 		e_beq %cr1,.L1
  62              		.loc 1 127 0
  63 005e 0323     		se_mfar %r3,%r10
  64              	.LVL4:
  65 0060 7D2903A6 		mtctr %r9
  66              	.LBE5:
  67              	.LBE4:
  68              		.loc 1 131 0
  69              	.LBB7:
  70              	.LBB6:
  71              		.loc 1 127 0
  72 0064 0006     		se_bctr
  73              	.LVL5:
  74              	.L1:
  75 0066 0004     		se_blr
  76              	.LVL6:
  77              	.L14:
  78              	.LBE6:
  79              	.LBE7:
  80              		.loc 1 122 0
  81 0068 7CA94214 		add %r5,%r9,%r8
  82 006c CC65     		se_lwz %r6,48(%r5)
  83 006e 6406     		se_bseti %r6,0
  84 0070 DC65     		se_stw %r6,48(%r5)
  85 0072 79FFFFB8 		e_b .L3
  86              		.cfi_endproc
  87              	.LFE59:
  88              		.size	pwm_lld_serve_interrupt2.constprop.1, .-pwm_lld_serve_interrupt2.constprop.1
  89              		.section	.text.vector145,"axv",@progbits
  90              		.align 1
  91              		.p2align 4,,15
  92              		.globl vector145
  93              		.type	vector145, @function
  94              	vector145:
  95              	.LFB46:
  96              		.loc 1 149 0
  97              		.cfi_startproc
  98 0000 182106F0 		e_stwu %r1,-16(%r1)
  99              	.LCFI0:
 100              		.cfi_def_cfa_offset 16
 101 0004 0080     		se_mflr %r0
 102 0006 D3F1     		se_stw %r31,12(%r1)
 103 0008 D501     		se_stw %r0,20(%r1)
 104              		.cfi_offset 65, 4
 105              		.cfi_offset 31, -4
 106              		.loc 1 153 0
 107 000a 7060E000 		e_lis %r3,.LANCHOR0@ha
 108 000e 1C630000 		e_la %r3,.LANCHOR0@l(%r3)
 109 0012 5123000C 		e_lwz %r9,12(%r3)
 110 0016 53E90004 		e_lwz %r31,4(%r9)
 111              	.LVL7:
 112              		.loc 1 155 0
 113 001a 677F     		se_btsti %r31,23
 114 001c 7A020022 		e_bne %cr0,.L31
GAS LISTING C:\Users\jean\AppData\Local\Temp\ccxXHpOC.s 			page 3


 115              	.L17:
 116              		.loc 1 158 0
 117 0020 676F     		se_btsti %r31,22
 118 0022 7A02000E 		e_bne %cr0,.L32
 119              		.loc 1 163 0
 120 0026 C501     		se_lwz %r0,20(%r1)
 121 0028 0090     		se_mtlr %r0
 122              		.cfi_remember_state
 123              		.cfi_restore 65
 124 002a C3F1     		se_lwz %r31,12(%r1)
 125              	.LVL8:
 126 002c 20F1     		se_addi %r1,16
 127              	.LCFI1:
 128              		.cfi_restore 31
 129              		.cfi_def_cfa_offset 0
 130 002e 0004     		se_blr
 131              	.LVL9:
 132              	.L32:
 133              	.LCFI2:
 134              		.cfi_restore_state
 135 0030 C501     		se_lwz %r0,20(%r1)
 136 0032 C3F1     		se_lwz %r31,12(%r1)
 137              	.LVL10:
 138              		.loc 1 159 0
 139 0034 4893     		se_li %r3,9
 140              		.loc 1 163 0
 141 0036 0090     		se_mtlr %r0
 142              		.cfi_remember_state
 143              		.cfi_restore 65
 144 0038 20F1     		se_addi %r1,16
 145              	.LCFI3:
 146              		.cfi_restore 31
 147              		.cfi_def_cfa_offset 0
 148              		.loc 1 159 0
 149 003a 78000000 		e_b pwm_lld_serve_interrupt2.constprop.1
 150              	.LVL11:
 151              	.L31:
 152              	.LCFI4:
 153              		.cfi_restore_state
 154              	.LBB10:
 155              	.LBB11:
 156              		.loc 1 99 0
 157 003e 50E90130 		e_lwz %r7,304(%r9)
 158              	.LVL12:
 159              		.loc 1 100 0
 160 0042 6707     		se_btsti %r7,16
 161 0044 7A020038 		e_bne %cr0,.L33
 162              	.L18:
 163              		.loc 1 103 0
 164 0048 1827A800 		e_cmpi %cr1,%r7,0
 165 004c 7A140040 		e_blt %cr1,.L34
 166              	.L19:
 167              		.loc 1 106 0
 168 0050 67F7     		se_btsti %r7,31
 169 0052 7A12FFCE 		e_beq %cr0,.L17
 170              		.loc 1 107 0
 171 0056 51490130 		e_lwz %r10,304(%r9)
GAS LISTING C:\Users\jean\AppData\Local\Temp\ccxXHpOC.s 			page 4


 172              		.loc 1 108 0
 173 005a 51030004 		e_lwz %r8,4(%r3)
 174              		.loc 1 107 0
 175 005e 194AD001 		e_ori %r10,%r10,1
 176 0062 55490130 		e_stw %r10,304(%r9)
 177              		.loc 1 108 0
 178 0066 51280008 		e_lwz %r9,8(%r8)
 179 006a 1829A800 		e_cmpi %cr1,%r9,0
 180 006e 7A16FFB2 		e_beq %cr1,.L17
 181              		.loc 1 109 0
 182 0072 7D2903A6 		mtctr %r9
 183 0076 0007     		se_bctrl
 184              	.LVL13:
 185 0078 79FFFFA8 		e_b .L17
 186              	.LVL14:
 187              	.L33:
 188              		.loc 1 101 0
 189 007c 51490130 		e_lwz %r10,304(%r9)
 190 0080 194AD180 		e_ori %r10,%r10,32768
 191 0084 55490130 		e_stw %r10,304(%r9)
 192 0088 79FFFFC0 		e_b .L18
 193              	.L34:
 194              		.loc 1 104 0
 195 008c 51490130 		e_lwz %r10,304(%r9)
 196 0090 194AD380 		e_ori %r10,%r10,-2147483648
 197 0094 55490130 		e_stw %r10,304(%r9)
 198 0098 79FFFFB8 		e_b .L19
 199              	.LBE11:
 200              	.LBE10:
 201              		.cfi_endproc
 202              	.LFE46:
 203              		.size	vector145, .-vector145
 204              		.section	.text.vector146,"axv",@progbits
 205              		.align 1
 206              		.p2align 4,,15
 207              		.globl vector146
 208              		.type	vector146, @function
 209              	vector146:
 210              	.LFB47:
 211              		.loc 1 176 0
 212              		.cfi_startproc
 213 0000 182106F0 		e_stwu %r1,-16(%r1)
 214              	.LCFI5:
 215              		.cfi_def_cfa_offset 16
 216 0004 0080     		se_mflr %r0
 217 0006 D3F1     		se_stw %r31,12(%r1)
 218 0008 D501     		se_stw %r0,20(%r1)
 219              		.cfi_offset 65, 4
 220              		.cfi_offset 31, -4
 221              		.loc 1 180 0
 222 000a 7120E000 		e_lis %r9,.LANCHOR0+12@ha
 223 000e 51290000 		e_lwz %r9,.LANCHOR0+12@l(%r9)
 224 0012 53E90004 		e_lwz %r31,4(%r9)
 225              	.LVL15:
 226              		.loc 1 182 0
 227 0016 675F     		se_btsti %r31,21
 228 0018 7A020022 		e_bne %cr0,.L41
GAS LISTING C:\Users\jean\AppData\Local\Temp\ccxXHpOC.s 			page 5


 229              	.L36:
 230              		.loc 1 185 0
 231 001c 674F     		se_btsti %r31,20
 232 001e 7A02000E 		e_bne %cr0,.L42
 233              		.loc 1 190 0
 234 0022 C501     		se_lwz %r0,20(%r1)
 235 0024 0090     		se_mtlr %r0
 236              		.cfi_remember_state
 237              		.cfi_restore 65
 238 0026 C3F1     		se_lwz %r31,12(%r1)
 239              	.LVL16:
 240 0028 20F1     		se_addi %r1,16
 241              	.LCFI6:
 242              		.cfi_restore 31
 243              		.cfi_def_cfa_offset 0
 244 002a 0004     		se_blr
 245              	.LVL17:
 246              	.L42:
 247              	.LCFI7:
 248              		.cfi_restore_state
 249 002c C501     		se_lwz %r0,20(%r1)
 250 002e C3F1     		se_lwz %r31,12(%r1)
 251              	.LVL18:
 252              		.loc 1 186 0
 253 0030 48B3     		se_li %r3,11
 254              		.loc 1 190 0
 255 0032 0090     		se_mtlr %r0
 256              		.cfi_remember_state
 257              		.cfi_restore 65
 258 0034 20F1     		se_addi %r1,16
 259              	.LCFI8:
 260              		.cfi_restore 31
 261              		.cfi_def_cfa_offset 0
 262              		.loc 1 186 0
 263 0036 78000000 		e_b pwm_lld_serve_interrupt2.constprop.1
 264              	.LVL19:
 265              	.L41:
 266              	.LCFI9:
 267              		.cfi_restore_state
 268              		.loc 1 183 0
 269 003a 48A3     		se_li %r3,10
 270 003c 78000001 		e_bl pwm_lld_serve_interrupt2.constprop.1
 271              	.LVL20:
 272 0040 79FFFFDC 		e_b .L36
 273              		.cfi_endproc
 274              	.LFE47:
 275              		.size	vector146, .-vector146
 276              		.section	.text.vector147,"axv",@progbits
 277              		.align 1
 278              		.p2align 4,,15
 279              		.globl vector147
 280              		.type	vector147, @function
 281              	vector147:
 282              	.LFB48:
 283              		.loc 1 203 0
 284              		.cfi_startproc
 285 0000 182106F0 		e_stwu %r1,-16(%r1)
GAS LISTING C:\Users\jean\AppData\Local\Temp\ccxXHpOC.s 			page 6


 286              	.LCFI10:
 287              		.cfi_def_cfa_offset 16
 288 0004 0080     		se_mflr %r0
 289 0006 D3F1     		se_stw %r31,12(%r1)
 290 0008 D501     		se_stw %r0,20(%r1)
 291              		.cfi_offset 65, 4
 292              		.cfi_offset 31, -4
 293              		.loc 1 207 0
 294 000a 7120E000 		e_lis %r9,.LANCHOR0+12@ha
 295 000e 51290000 		e_lwz %r9,.LANCHOR0+12@l(%r9)
 296 0012 53E90004 		e_lwz %r31,4(%r9)
 297              	.LVL21:
 298              		.loc 1 209 0
 299 0016 673F     		se_btsti %r31,19
 300 0018 7A020022 		e_bne %cr0,.L49
 301              	.L44:
 302              		.loc 1 212 0
 303 001c 672F     		se_btsti %r31,18
 304 001e 7A02000E 		e_bne %cr0,.L50
 305              		.loc 1 217 0
 306 0022 C501     		se_lwz %r0,20(%r1)
 307 0024 0090     		se_mtlr %r0
 308              		.cfi_remember_state
 309              		.cfi_restore 65
 310 0026 C3F1     		se_lwz %r31,12(%r1)
 311              	.LVL22:
 312 0028 20F1     		se_addi %r1,16
 313              	.LCFI11:
 314              		.cfi_restore 31
 315              		.cfi_def_cfa_offset 0
 316 002a 0004     		se_blr
 317              	.LVL23:
 318              	.L50:
 319              	.LCFI12:
 320              		.cfi_restore_state
 321 002c C501     		se_lwz %r0,20(%r1)
 322 002e C3F1     		se_lwz %r31,12(%r1)
 323              	.LVL24:
 324              		.loc 1 213 0
 325 0030 48D3     		se_li %r3,13
 326              		.loc 1 217 0
 327 0032 0090     		se_mtlr %r0
 328              		.cfi_remember_state
 329              		.cfi_restore 65
 330 0034 20F1     		se_addi %r1,16
 331              	.LCFI13:
 332              		.cfi_restore 31
 333              		.cfi_def_cfa_offset 0
 334              		.loc 1 213 0
 335 0036 78000000 		e_b pwm_lld_serve_interrupt2.constprop.1
 336              	.LVL25:
 337              	.L49:
 338              	.LCFI14:
 339              		.cfi_restore_state
 340              		.loc 1 210 0
 341 003a 48C3     		se_li %r3,12
 342 003c 78000001 		e_bl pwm_lld_serve_interrupt2.constprop.1
GAS LISTING C:\Users\jean\AppData\Local\Temp\ccxXHpOC.s 			page 7


 343              	.LVL26:
 344 0040 79FFFFDC 		e_b .L44
 345              		.cfi_endproc
 346              	.LFE48:
 347              		.size	vector147, .-vector147
 348              		.section	.text.vector148,"axv",@progbits
 349              		.align 1
 350              		.p2align 4,,15
 351              		.globl vector148
 352              		.type	vector148, @function
 353              	vector148:
 354              	.LFB49:
 355              		.loc 1 230 0
 356              		.cfi_startproc
 357 0000 182106F0 		e_stwu %r1,-16(%r1)
 358              	.LCFI15:
 359              		.cfi_def_cfa_offset 16
 360 0004 0080     		se_mflr %r0
 361 0006 D3F1     		se_stw %r31,12(%r1)
 362 0008 D501     		se_stw %r0,20(%r1)
 363              		.cfi_offset 65, 4
 364              		.cfi_offset 31, -4
 365              		.loc 1 234 0
 366 000a 7120E000 		e_lis %r9,.LANCHOR0+12@ha
 367 000e 51290000 		e_lwz %r9,.LANCHOR0+12@l(%r9)
 368 0012 53E90004 		e_lwz %r31,4(%r9)
 369              	.LVL27:
 370              		.loc 1 236 0
 371 0016 671F     		se_btsti %r31,17
 372 0018 7A020022 		e_bne %cr0,.L57
 373              	.L52:
 374              		.loc 1 239 0
 375 001c 670F     		se_btsti %r31,16
 376 001e 7A02000E 		e_bne %cr0,.L58
 377              		.loc 1 244 0
 378 0022 C501     		se_lwz %r0,20(%r1)
 379 0024 0090     		se_mtlr %r0
 380              		.cfi_remember_state
 381              		.cfi_restore 65
 382 0026 C3F1     		se_lwz %r31,12(%r1)
 383              	.LVL28:
 384 0028 20F1     		se_addi %r1,16
 385              	.LCFI16:
 386              		.cfi_restore 31
 387              		.cfi_def_cfa_offset 0
 388 002a 0004     		se_blr
 389              	.LVL29:
 390              	.L58:
 391              	.LCFI17:
 392              		.cfi_restore_state
 393 002c C501     		se_lwz %r0,20(%r1)
 394 002e C3F1     		se_lwz %r31,12(%r1)
 395              	.LVL30:
 396              		.loc 1 240 0
 397 0030 48F3     		se_li %r3,15
 398              		.loc 1 244 0
 399 0032 0090     		se_mtlr %r0
GAS LISTING C:\Users\jean\AppData\Local\Temp\ccxXHpOC.s 			page 8


 400              		.cfi_remember_state
 401              		.cfi_restore 65
 402 0034 20F1     		se_addi %r1,16
 403              	.LCFI18:
 404              		.cfi_restore 31
 405              		.cfi_def_cfa_offset 0
 406              		.loc 1 240 0
 407 0036 78000000 		e_b pwm_lld_serve_interrupt2.constprop.1
 408              	.LVL31:
 409              	.L57:
 410              	.LCFI19:
 411              		.cfi_restore_state
 412              		.loc 1 237 0
 413 003a 48E3     		se_li %r3,14
 414 003c 78000001 		e_bl pwm_lld_serve_interrupt2.constprop.1
 415              	.LVL32:
 416 0040 79FFFFDC 		e_b .L52
 417              		.cfi_endproc
 418              	.LFE49:
 419              		.size	vector148, .-vector148
 420              		.section	.text.pwm_lld_init,"axv",@progbits
 421              		.align 1
 422              		.p2align 4,,15
 423              		.globl pwm_lld_init
 424              		.type	pwm_lld_init, @function
 425              	pwm_lld_init:
 426              	.LFB50:
 427              		.loc 1 696 0
 428              		.cfi_startproc
 429 0000 182106F0 		e_stwu %r1,-16(%r1)
 430              	.LCFI20:
 431              		.cfi_def_cfa_offset 16
 432 0004 0080     		se_mflr %r0
 433 0006 D3F1     		se_stw %r31,12(%r1)
 434 0008 D501     		se_stw %r0,20(%r1)
 435              		.cfi_offset 65, 4
 436              		.cfi_offset 31, -4
 437              		.loc 1 707 0
 438 000a 73E0E000 		e_lis %r31,.LANCHOR0@ha
 439              		.loc 1 699 0
 440 000e 78000001 		e_bl reset_emios0_active_channels
 441              	.LVL33:
 442              		.loc 1 707 0
 443 0012 1FFF0000 		e_la %r31,.LANCHOR0@l(%r31)
 444 0016 01F3     		se_mr %r3,%r31
 445 0018 78000001 		e_bl pwmObjectInit
 446              	.LVL34:
 447              		.loc 1 737 0
 448 001c 71400008 		e_li %r10,8
 449              		.loc 1 708 0
 450 0020 7138E3FA 		e_lis %r9,0xc3fa
 451 0024 553F000C 		e_stw %r9,12(%r31)
 452              		.loc 1 737 0
 453 0028 713FE7F4 		e_lis %r9,0xfff4
 454 002c 1929D180 		e_ori %r9,%r9,32768
 455 0030 354900D1 		e_stb %r10,209(%r9)
 456              		.loc 1 738 0
GAS LISTING C:\Users\jean\AppData\Local\Temp\ccxXHpOC.s 			page 9


 457 0034 354900D2 		e_stb %r10,210(%r9)
 458              		.loc 1 739 0
 459 0038 354900D3 		e_stb %r10,211(%r9)
 460              		.loc 1 740 0
 461 003c 354900D4 		e_stb %r10,212(%r9)
 462              		.loc 1 741 0
 463 0040 354900D5 		e_stb %r10,213(%r9)
 464              		.loc 1 742 0
 465 0044 354900D6 		e_stb %r10,214(%r9)
 466              		.loc 1 743 0
 467 0048 354900D7 		e_stb %r10,215(%r9)
 468              		.loc 1 744 0
 469 004c 354900D8 		e_stb %r10,216(%r9)
 470              		.loc 1 765 0
 471 0050 C501     		se_lwz %r0,20(%r1)
 472 0052 0090     		se_mtlr %r0
 473              		.cfi_restore 65
 474 0054 C3F1     		se_lwz %r31,12(%r1)
 475 0056 20F1     		se_addi %r1,16
 476              	.LCFI21:
 477              		.cfi_restore 31
 478              		.cfi_def_cfa_offset 0
 479 0058 0004     		se_blr
 480              		.cfi_endproc
 481              	.LFE50:
 482              		.size	pwm_lld_init, .-pwm_lld_init
 483              		.section	.text.pwm_lld_start,"axv",@progbits
 484              		.align 1
 485              		.p2align 4,,15
 486              		.globl pwm_lld_start
 487              		.type	pwm_lld_start, @function
 488              	pwm_lld_start:
 489              	.LFB51:
 490              		.loc 1 774 0
 491              		.cfi_startproc
 492              	.LVL35:
 493 0000 182106F0 		e_stwu %r1,-16(%r1)
 494              	.LCFI22:
 495              		.cfi_def_cfa_offset 16
 496 0004 0080     		se_mflr %r0
 497 0006 1BC10908 		e_stmw %r30,8(%r1)
 498 000a D501     		se_stw %r0,20(%r1)
 499              		.cfi_offset 65, 4
 500              		.cfi_offset 30, -8
 501              		.cfi_offset 31, -4
 502              		.loc 1 774 0
 503 000c 013E     		se_mr %r30,%r3
 504              		.loc 1 787 0
 505 000e 73E0E000 		e_lis %r31,.LANCHOR0@ha
 506              		.loc 1 779 0
 507 0012 78000001 		e_bl get_emios0_active_channels
 508              	.LVL36:
 509              		.loc 1 787 0
 510 0016 1FFF0000 		e_la %r31,.LANCHOR0@l(%r31)
 511              		.loc 1 785 0
 512 001a 513E0000 		e_lwz %r9,0(%r30)
 513 001e 18A9A801 		e_cmpli %cr1,%r9,1
GAS LISTING C:\Users\jean\AppData\Local\Temp\ccxXHpOC.s 			page 10


 514 0022 7A160024 		e_beq %cr1,.L81
 515              		.loc 1 830 0
 516 0026 7C9EF800 		cmp %cr1,%r30,%r31
 517 002a 7A160032 		e_beq %cr1,.L82
 518              	.L63:
 519              		.loc 1 905 0
 520 002e C37E     		se_lwz %r7,12(%r30)
 521 0030 70D8E3FA 		e_lis %r6,0xc3fa
 522 0034 0C67     		se_cmp %r7,%r6
 523 0036 7A1201FA 		e_beq %cr0,.L83
 524              	.LVL37:
 525              	.L60:
 526              		.loc 1 1338 0
 527 003a C501     		se_lwz %r0,20(%r1)
 528 003c 0090     		se_mtlr %r0
 529              		.cfi_remember_state
 530              		.cfi_restore 65
 531 003e 1BC10808 		e_lmw %r30,8(%r1)
 532 0042 20F1     		se_addi %r1,16
 533              	.LCFI23:
 534              		.cfi_restore 31
 535              		.cfi_restore 30
 536              		.cfi_def_cfa_offset 0
 537 0044 0004     		se_blr
 538              	.LVL38:
 539              	.L81:
 540              	.LCFI24:
 541              		.cfi_restore_state
 542              		.loc 1 787 0
 543 0046 7C9EF800 		cmp %cr1,%r30,%r31
 544 004a 7A16021C 		e_beq %cr1,.L84
 545              	.L62:
 546              		.loc 1 818 0
 547 004e 01E3     		se_mr %r3,%r30
 548 0050 78000001 		e_bl pwm_active_emios0_clock
 549              	.LVL39:
 550              		.loc 1 830 0
 551 0054 7C9EF800 		cmp %cr1,%r30,%r31
 552 0058 7A06FFD6 		e_bne %cr1,.L63
 553              	.L82:
 554              		.loc 1 832 0
 555 005c 515F000C 		e_lwz %r10,12(%r31)
 556              		.loc 1 905 0
 557 0060 70D8E3FA 		e_lis %r6,0xc3fa
 558              		.loc 1 832 0
 559 0064 512A000C 		e_lwz %r9,12(%r10)
 560 0068 1929C5FE 		e_andi %r9,%r9,-257
 561 006c 552A000C 		e_stw %r9,12(%r10)
 562              		.loc 1 835 0
 563 0070 7130E000 		e_lis %r9,0x8000
 564              		.loc 1 905 0
 565 0074 C37F     		se_lwz %r7,12(%r31)
 566              		.loc 1 835 0
 567 0076 7130C001 		e_or2i %r9,32769
 568              		.loc 1 905 0
 569 007a 0C67     		se_cmp %r7,%r6
 570              		.loc 1 835 0
GAS LISTING C:\Users\jean\AppData\Local\Temp\ccxXHpOC.s 			page 11


 571 007c 552A0130 		e_stw %r9,304(%r10)
 572              		.loc 1 905 0
 573 0080 7A1201EE 		e_beq %cr0,.L64
 574 0084 4834     		se_li %r4,3
 575              	.LVL40:
 576              	.L65:
 577              		.loc 1 926 0
 578 0086 512A012C 		e_lwz %r9,300(%r10)
 579 008a 71000000 		e_li %r8,0
 580 008e 7509C98C 		e_rlwimi %r9,%r8,25,6,6
 581 0092 552A012C 		e_stw %r9,300(%r10)
 582              		.loc 1 927 0
 583 0096 71200001 		e_li %r9,1
 584              		.loc 1 928 0
 585 009a C16F     		se_lwz %r6,4(%r31)
 586              		.loc 1 927 0
 587 009c 552A0128 		e_stw %r9,296(%r10)
 588              		.loc 1 928 0
 589 00a0 51260004 		e_lwz %r9,4(%r6)
 590 00a4 552A0120 		e_stw %r9,288(%r10)
 591              		.loc 1 929 0
 592 00a8 512A012C 		e_lwz %r9,300(%r10)
 593 00ac 1929D106 		e_ori %r9,%r9,1536
 594 00b0 552A012C 		e_stw %r9,300(%r10)
 595              		.loc 1 930 0
 596 00b4 512A012C 		e_lwz %r9,300(%r10)
 597 00b8 1929D050 		e_ori %r9,%r9,80
 598 00bc 552A012C 		e_stw %r9,300(%r10)
 599              		.loc 1 931 0
 600 00c0 512A012C 		e_lwz %r9,300(%r10)
 601 00c4 7489D10A 		e_rlwimi %r9,%r4,26,4,5
 602 00c8 552A012C 		e_stw %r9,300(%r10)
 603              		.loc 1 932 0
 604 00cc 512A012C 		e_lwz %r9,300(%r10)
 605 00d0 1929D302 		e_ori %r9,%r9,33554432
 606 00d4 552A012C 		e_stw %r9,300(%r10)
 607              		.loc 1 934 0
 608 00d8 51260044 		e_lwz %r9,68(%r6)
 609 00dc 1829A800 		e_cmpi %cr1,%r9,0
 610 00e0 7A06FF5A 		e_bne %cr1,.L60
 611              		.loc 1 945 0
 612 00e4 6200     		se_bgeni %r0,0
 613 00e6 20B6     		se_addi %r6,12
 614              		.loc 1 934 0
 615 00e8 71200009 		e_li %r9,9
 616              		.loc 1 945 0
 617 00ec 7010C001 		e_or2i %r0,32769
 618              		.loc 1 948 0
 619 00f0 4803     		se_li %r3,0
 620              		.loc 1 969 0
 621 00f2 71600001 		e_li %r11,1
 622 00f6 7800009C 		e_b .L71
 623              	.LVL41:
 624              	.L86:
 625 00fa 18A98001 		e_addi %r5,%r9,1
 626              		.loc 1 936 0
 627 00fe 18A8A802 		e_cmpli %cr1,%r8,2
GAS LISTING C:\Users\jean\AppData\Local\Temp\ccxXHpOC.s 			page 12


 628 0102 7A060084 		e_bne %cr1,.L68
 629              		.loc 1 969 0
 630 0106 510A000C 		e_lwz %r8,12(%r10)
 631 010a 7D7F4830 		slw %r31,%r11,%r9
 632              		.loc 1 975 0
 633 010e 18A98001 		e_addi %r5,%r9,1
 634              		.loc 1 969 0
 635 0112 7D08F878 		andc %r8,%r8,%r31
 636              		.loc 1 972 0
 637 0116 7D292870 		e_slwi %r9,%r9,5
 638              		.loc 1 969 0
 639 011a 550A000C 		e_stw %r8,12(%r10)
 640              		.loc 1 972 0
 641 011e 7D2A4A14 		add %r9,%r10,%r9
 642              		.loc 1 975 0
 643 0122 7CA82870 		e_slwi %r8,%r5,5
 644              		.loc 1 972 0
 645 0126 54090030 		e_stw %r0,48(%r9)
 646              		.loc 1 975 0
 647 012a 7D0A4214 		add %r8,%r10,%r8
 648 012e 50E8000C 		e_lwz %r7,12(%r8)
 649 0132 7467C98C 		e_rlwimi %r7,%r3,25,6,6
 650 0136 54E8000C 		e_stw %r7,12(%r8)
 651              		.loc 1 976 0
 652 013a 55690020 		e_stw %r11,32(%r9)
 653              		.loc 1 977 0
 654 013e 54690024 		e_stw %r3,36(%r9)
 655              		.loc 1 980 0
 656 0142 50E9002C 		e_lwz %r7,44(%r9)
 657 0146 6187     		se_bclri %r7,24
 658 0148 54E9002C 		e_stw %r7,44(%r9)
 659              		.loc 1 983 0
 660 014c 50E9002C 		e_lwz %r7,44(%r9)
 661 0150 6567     		se_bseti %r7,22
 662 0152 54E9002C 		e_stw %r7,44(%r9)
 663              		.loc 1 984 0
 664 0156 50E9002C 		e_lwz %r7,44(%r9)
 665 015a 18E7D060 		e_ori %r7,%r7,96
 666 015e 54E9002C 		e_stw %r7,44(%r9)
 667              		.loc 1 986 0
 668 0162 50E8000C 		e_lwz %r7,12(%r8)
 669 0166 7487D10A 		e_rlwimi %r7,%r4,26,4,5
 670 016a 54E8000C 		e_stw %r7,12(%r8)
 671              		.loc 1 987 0
 672 016e 5109002C 		e_lwz %r8,44(%r9)
 673 0172 1908D302 		e_ori %r8,%r8,33554432
 674 0176 5509002C 		e_stw %r8,44(%r9)
 675              		.loc 1 990 0
 676 017a 512A000C 		e_lwz %r9,12(%r10)
 677 017e 7FE94B78 		or %r9,%r31,%r9
 678 0182 552A000C 		e_stw %r9,12(%r10)
 679              	.L68:
 680 0186 2076     		se_addi %r6,8
 681              	.LVL42:
 682 0188 0251     		se_mtar %r9,%r5
 683              		.loc 1 935 0 discriminator 2
 684 018a 18A5A810 		e_cmpli %cr1,%r5,16
GAS LISTING C:\Users\jean\AppData\Local\Temp\ccxXHpOC.s 			page 13


 685 018e 7A16008A 		e_beq %cr1,.L85
 686              	.LVL43:
 687              	.L71:
 688              		.loc 1 936 0
 689 0192 51060000 		e_lwz %r8,0(%r6)
 690 0196 18A8A801 		e_cmpli %cr1,%r8,1
 691 019a 7A06FF60 		e_bne %cr1,.L86
 692              		.loc 1 942 0
 693 019e 50AA000C 		e_lwz %r5,12(%r10)
 694 01a2 7D084830 		slw %r8,%r8,%r9
 695              		.loc 1 945 0
 696 01a6 7D272870 		e_slwi %r7,%r9,5
 697              		.loc 1 942 0
 698 01aa 7CA54078 		andc %r5,%r5,%r8
 699              		.loc 1 945 0
 700 01ae 7CEA3A14 		add %r7,%r10,%r7
 701              		.loc 1 942 0
 702 01b2 54AA000C 		e_stw %r5,12(%r10)
 703 01b6 2076     		se_addi %r6,8
 704              		.loc 1 945 0
 705 01b8 DC07     		se_stw %r0,48(%r7)
 706              		.loc 1 948 0
 707 01ba 18A98001 		e_addi %r5,%r9,1
 708 01be 7CA92870 		e_slwi %r9,%r5,5
 709              		.loc 1 935 0
 710 01c2 18A5A810 		e_cmpli %cr1,%r5,16
 711              		.loc 1 948 0
 712 01c6 7D2A4A14 		add %r9,%r10,%r9
 713 01ca 53E9000C 		e_lwz %r31,12(%r9)
 714 01ce 747FC98C 		e_rlwimi %r31,%r3,25,6,6
 715 01d2 57E9000C 		e_stw %r31,12(%r9)
 716              		.loc 1 949 0
 717 01d6 D837     		se_stw %r3,32(%r7)
 718              		.loc 1 950 0
 719 01d8 D937     		se_stw %r3,36(%r7)
 720              		.loc 1 953 0
 721 01da CBF7     		se_lwz %r31,44(%r7)
 722 01dc 658F     		se_bseti %r31,24
 723 01de DBF7     		se_stw %r31,44(%r7)
 724              		.loc 1 956 0
 725 01e0 CBF7     		se_lwz %r31,44(%r7)
 726 01e2 656F     		se_bseti %r31,22
 727 01e4 DBF7     		se_stw %r31,44(%r7)
 728              		.loc 1 957 0
 729 01e6 CBF7     		se_lwz %r31,44(%r7)
 730 01e8 1BFFD060 		e_ori %r31,%r31,96
 731 01ec DBF7     		se_stw %r31,44(%r7)
 732              		.loc 1 959 0
 733 01ee 53E9000C 		e_lwz %r31,12(%r9)
 734 01f2 749FD10A 		e_rlwimi %r31,%r4,26,4,5
 735 01f6 57E9000C 		e_stw %r31,12(%r9)
 736              		.loc 1 960 0
 737 01fa 5127002C 		e_lwz %r9,44(%r7)
 738 01fe 1929D302 		e_ori %r9,%r9,33554432
 739 0202 5527002C 		e_stw %r9,44(%r7)
 740              		.loc 1 963 0
 741 0206 512A000C 		e_lwz %r9,12(%r10)
GAS LISTING C:\Users\jean\AppData\Local\Temp\ccxXHpOC.s 			page 14


 742 020a 7D084B78 		or %r8,%r8,%r9
 743 020e 0251     		se_mtar %r9,%r5
 744 0210 550A000C 		e_stw %r8,12(%r10)
 745              	.LVL44:
 746              		.loc 1 935 0
 747 0214 7A06FF7E 		e_bne %cr1,.L71
 748              	.LVL45:
 749              	.L85:
 750              		.loc 1 1000 0
 751 0218 512A000C 		e_lwz %r9,12(%r10)
 752 021c 1929D101 		e_ori %r9,%r9,256
 753 0220 552A000C 		e_stw %r9,12(%r10)
 754              		.loc 1 1338 0
 755 0224 C501     		se_lwz %r0,20(%r1)
 756 0226 0090     		se_mtlr %r0
 757              		.cfi_remember_state
 758              		.cfi_restore 65
 759 0228 1BC10808 		e_lmw %r30,8(%r1)
 760 022c 20F1     		se_addi %r1,16
 761              	.LCFI25:
 762              		.cfi_restore 30
 763              		.cfi_restore 31
 764              		.cfi_def_cfa_offset 0
 765 022e 0004     		se_blr
 766              	.LVL46:
 767              	.L83:
 768              	.LCFI26:
 769              		.cfi_restore_state
 770              		.loc 1 906 0
 771 0230 78000001 		e_bl halSPCGetSystemClock
 772              	.LVL47:
 773 0234 513E0004 		e_lwz %r9,4(%r30)
 774 0238 7159E4CC 		e_lis %r10,0xcccc
 775 023c 51090000 		e_lwz %r8,0(%r9)
 776 0240 7159C4CD 		e_or2i %r10,52429
 777 0244 7D235016 		mulhwu %r9,%r3,%r10
 778 0248 7D292C70 		e_srwi %r9,%r9,5
 779 024c 7D294396 		divwu %r9,%r9,%r8
 780              		.loc 1 907 0
 781 0250 73E9AFFF 		e_cmpl16i %r9,65535
 782 0254 7A11FDE6 		e_bgt %cr0,.L60
 783              		.loc 1 1338 0
 784 0258 C501     		se_lwz %r0,20(%r1)
 785 025a 1BC10808 		e_lmw %r30,8(%r1)
 786              	.LVL48:
 787 025e 0090     		se_mtlr %r0
 788              		.cfi_remember_state
 789              		.cfi_restore 65
 790 0260 20F1     		se_addi %r1,16
 791              	.LCFI27:
 792              		.cfi_restore 31
 793              		.cfi_restore 30
 794              		.cfi_def_cfa_offset 0
 795              		.loc 1 907 0
 796 0262 78000000 		e_b halSPCGetSystemClock
 797              	.LVL49:
 798              	.L84:
GAS LISTING C:\Users\jean\AppData\Local\Temp\ccxXHpOC.s 			page 15


 799              	.LCFI28:
 800              		.cfi_restore_state
 801              		.loc 1 788 0
 802 0266 78000001 		e_bl increase_emios0_active_channels
 803              	.LVL50:
 804 026a 79FFFDE4 		e_b .L62
 805              	.L64:
 806              		.loc 1 906 0
 807 026e 78000001 		e_bl halSPCGetSystemClock
 808              	.LVL51:
 809 0272 513F0004 		e_lwz %r9,4(%r31)
 810 0276 50890000 		e_lwz %r4,0(%r9)
 811 027a 7139E4CC 		e_lis %r9,0xcccc
 812 027e 7139C4CD 		e_or2i %r9,52429
 813 0282 7D234816 		mulhwu %r9,%r3,%r9
 814 0286 7D292C70 		e_srwi %r9,%r9,5
 815 028a 7FC92396 		divwu %r30,%r9,%r4
 816              	.LVL52:
 817              		.loc 1 907 0
 818 028e 73FEAFFF 		e_cmpl16i %r30,65535
 819 0292 7A010012 		e_ble %cr0,.L87
 820              	.L74:
 821 0296 189E84FF 		e_addi %r4,%r30,-1
 822 029a 515F000C 		e_lwz %r10,12(%r31)
 823 029e 2E34     		se_andi %r4,3
 824 02a0 79FFFDE6 		e_b .L65
 825              	.L87:
 826 02a4 78000001 		e_bl halSPCGetSystemClock
 827              	.LVL53:
 828 02a8 79FFFFEE 		e_b .L74
 829              		.cfi_endproc
 830              	.LFE51:
 831              		.size	pwm_lld_start, .-pwm_lld_start
 832              		.section	.text.pwm_lld_stop,"axv",@progbits
 833              		.align 1
 834              		.p2align 4,,15
 835              		.globl pwm_lld_stop
 836              		.type	pwm_lld_stop, @function
 837              	pwm_lld_stop:
 838              	.LFB52:
 839              		.loc 1 1347 0
 840              		.cfi_startproc
 841              	.LVL54:
 842 0000 182106F0 		e_stwu %r1,-16(%r1)
 843              	.LCFI29:
 844              		.cfi_def_cfa_offset 16
 845 0004 0080     		se_mflr %r0
 846 0006 D3F1     		se_stw %r31,12(%r1)
 847 0008 D501     		se_stw %r0,20(%r1)
 848              		.cfi_offset 65, 4
 849              		.cfi_offset 31, -4
 850              		.loc 1 1347 0
 851 000a 013F     		se_mr %r31,%r3
 852              		.loc 1 1352 0
 853 000c 78000001 		e_bl get_emios0_active_channels
 854              	.LVL55:
 855              		.loc 1 1358 0
GAS LISTING C:\Users\jean\AppData\Local\Temp\ccxXHpOC.s 			page 16


 856 0010 513F0000 		e_lwz %r9,0(%r31)
 857 0014 18A9A802 		e_cmpli %cr1,%r9,2
 858 0018 7A16000E 		e_beq %cr1,.L91
 859              		.loc 1 1421 0
 860 001c C501     		se_lwz %r0,20(%r1)
 861 001e 0090     		se_mtlr %r0
 862              		.cfi_remember_state
 863              		.cfi_restore 65
 864 0020 C3F1     		se_lwz %r31,12(%r1)
 865              	.LVL56:
 866 0022 20F1     		se_addi %r1,16
 867              	.LCFI30:
 868              		.cfi_restore 31
 869              		.cfi_def_cfa_offset 0
 870 0024 0004     		se_blr
 871              	.LVL57:
 872              	.L91:
 873              	.LCFI31:
 874              		.cfi_restore_state
 875              		.loc 1 1362 0
 876 0026 7120E000 		e_lis %r9,.LANCHOR0@ha
 877 002a 1D290000 		e_la %r9,.LANCHOR0@l(%r9)
 878 002e 7C9F4800 		cmp %cr1,%r31,%r9
 879 0032 7A160012 		e_beq %cr1,.L92
 880              	.LVL58:
 881              	.L90:
 882              		.loc 1 1421 0
 883 0036 C501     		se_lwz %r0,20(%r1)
 884              		.loc 1 1413 0
 885 0038 01F3     		se_mr %r3,%r31
 886              		.loc 1 1421 0
 887 003a 0090     		se_mtlr %r0
 888              		.cfi_remember_state
 889              		.cfi_restore 65
 890 003c C3F1     		se_lwz %r31,12(%r1)
 891              	.LVL59:
 892 003e 20F1     		se_addi %r1,16
 893              	.LCFI32:
 894              		.cfi_restore 31
 895              		.cfi_def_cfa_offset 0
 896              		.loc 1 1413 0
 897 0040 78000000 		e_b pwm_deactive_emios0_clock
 898              	.LVL60:
 899              	.L92:
 900              	.LCFI33:
 901              		.cfi_restore_state
 902 0044 513F000C 		e_lwz %r9,12(%r31)
 903              		.loc 1 1365 0
 904 0048 71400000 		e_li %r10,0
 905 004c 5549012C 		e_stw %r10,300(%r9)
 906              	.LVL61:
 907 0050 5549014C 		e_stw %r10,332(%r9)
 908              	.LVL62:
 909 0054 5549016C 		e_stw %r10,364(%r9)
 910              	.LVL63:
 911 0058 5549018C 		e_stw %r10,396(%r9)
 912              	.LVL64:
GAS LISTING C:\Users\jean\AppData\Local\Temp\ccxXHpOC.s 			page 17


 913 005c 554901AC 		e_stw %r10,428(%r9)
 914              	.LVL65:
 915 0060 554901CC 		e_stw %r10,460(%r9)
 916              	.LVL66:
 917 0064 554901EC 		e_stw %r10,492(%r9)
 918              	.LVL67:
 919 0068 5549020C 		e_stw %r10,524(%r9)
 920              	.LVL68:
 921              		.loc 1 1367 0
 922 006c 78000001 		e_bl decrease_emios0_active_channels
 923              	.LVL69:
 924 0070 79FFFFC6 		e_b .L90
 925              		.cfi_endproc
 926              	.LFE52:
 927              		.size	pwm_lld_stop, .-pwm_lld_stop
 928              		.section	.text.pwm_lld_change_period,"axv",@progbits
 929              		.align 1
 930              		.p2align 4,,15
 931              		.globl pwm_lld_change_period
 932              		.type	pwm_lld_change_period, @function
 933              	pwm_lld_change_period:
 934              	.LFB53:
 935              		.loc 1 1439 0
 936              		.cfi_startproc
 937              	.LVL70:
 938              		.loc 1 1442 0
 939 0000 70E0E000 		e_lis %r7,.LANCHOR0@ha
 940 0004 1CE70000 		e_la %r7,.LANCHOR0@l(%r7)
 941 0008 0C73     		se_cmp %r3,%r7
 942 000a 7A120006 		e_beq %cr0,.L95
 943 000e 0004     		se_blr
 944              	.L95:
 945              		.loc 1 1444 0
 946 0010 5123000C 		e_lwz %r9,12(%r3)
 947              		.loc 1 1443 0
 948 0014 D243     		se_stw %r4,8(%r3)
 949              		.loc 1 1444 0
 950 0016 54890120 		e_stw %r4,288(%r9)
 951 001a 0004     		se_blr
 952              		.cfi_endproc
 953              	.LFE53:
 954              		.size	pwm_lld_change_period, .-pwm_lld_change_period
 955              		.section	.text.pwm_lld_enable_channel,"axv",@progbits
 956              		.align 1
 957              		.p2align 4,,15
 958              		.globl pwm_lld_enable_channel
 959              		.type	pwm_lld_enable_channel, @function
 960              	pwm_lld_enable_channel:
 961              	.LFB54:
 962              		.loc 1 1494 0
 963              		.cfi_startproc
 964              	.LVL71:
 965              		.loc 1 1497 0
 966 0000 70E0E000 		e_lis %r7,.LANCHOR0@ha
 967 0004 1CE70000 		e_la %r7,.LANCHOR0@l(%r7)
 968 0008 0C73     		se_cmp %r3,%r7
 969 000a 7A120006 		e_beq %cr0,.L110
GAS LISTING C:\Users\jean\AppData\Local\Temp\ccxXHpOC.s 			page 18


 970              	.LVL72:
 971              	.L96:
 972 000e 0004     		se_blr
 973              	.LVL73:
 974              	.L110:
 975              		.loc 1 1500 0
 976 0010 5123000C 		e_lwz %r9,12(%r3)
 977 0014 18E48009 		e_addi %r7,%r4,9
 978 0018 5169000C 		e_lwz %r11,12(%r9)
 979              		.loc 1 1503 0
 980 001c 7CE82870 		e_slwi %r8,%r7,5
 981              		.loc 1 1500 0
 982 0020 4816     		se_li %r6,1
 983              		.loc 1 1503 0
 984 0022 7D094214 		add %r8,%r9,%r8
 985              		.loc 1 1500 0
 986 0026 7CCA3830 		slw %r10,%r6,%r7
 987              		.loc 1 1510 0
 988 002a C133     		se_lwz %r3,4(%r3)
 989              	.LVL74:
 990              		.loc 1 1500 0
 991 002c 7D6A5078 		andc %r10,%r11,%r10
 992              		.loc 1 1503 0
 993 0030 6207     		se_bgeni %r7,0
 994              		.loc 1 1500 0
 995 0032 5549000C 		e_stw %r10,12(%r9)
 996              		.loc 1 1503 0
 997 0036 70F0C001 		e_or2i %r7,32769
 998              		.loc 1 1507 0
 999 003a 1944800A 		e_addi %r10,%r4,10
 1000              		.loc 1 1503 0
 1001 003e 54E80030 		e_stw %r7,48(%r8)
 1002              		.loc 1 1507 0
 1003 0042 7D4A2870 		e_slwi %r10,%r10,5
 1004              		.loc 1 1510 0
 1005 0046 6C34     		se_slwi %r4, 3
 1006              	.LVL75:
 1007              		.loc 1 1507 0
 1008 0048 7D495214 		add %r10,%r9,%r10
 1009              		.loc 1 1510 0
 1010 004c 7C832214 		add %r4,%r3,%r4
 1011              		.loc 1 1507 0
 1012 0050 54AA0004 		e_stw %r5,4(%r10)
 1013              		.loc 1 1510 0
 1014 0054 51040010 		e_lwz %r8,16(%r4)
 1015 0058 1828A800 		e_cmpi %cr1,%r8,0
 1016 005c 7A160010 		e_beq %cr1,.L99
 1017              		.loc 1 1511 0
 1018 0060 510A000C 		e_lwz %r8,12(%r10)
 1019 0064 74C88B9C 		e_rlwimi %r8,%r6,17,14,14
 1020 0068 550A000C 		e_stw %r8,12(%r10)
 1021              	.L99:
 1022              		.loc 1 1515 0
 1023 006c 50E9000C 		e_lwz %r7,12(%r9)
 1024 0070 6777     		se_btsti %r7,23
 1025 0072 7A12FF9C 		e_beq %cr0,.L96
 1026              		.loc 1 1517 0
GAS LISTING C:\Users\jean\AppData\Local\Temp\ccxXHpOC.s 			page 19


 1027 0076 5149000C 		e_lwz %r10,12(%r9)
 1028 007a 194AC5FE 		e_andi %r10,%r10,-257
 1029 007e 5549000C 		e_stw %r10,12(%r9)
 1030              		.loc 1 1520 0
 1031 0082 51430008 		e_lwz %r10,8(%r3)
 1032 0086 182AA800 		e_cmpi %cr1,%r10,0
 1033 008a 7A16FF84 		e_beq %cr1,.L96
 1034              		.loc 1 1521 0
 1035 008e 5149012C 		e_lwz %r10,300(%r9)
 1036 0092 71000001 		e_li %r8,1
 1037 0096 750A8B9C 		e_rlwimi %r10,%r8,17,14,14
 1038 009a 5549012C 		e_stw %r10,300(%r9)
 1039 009e 0004     		se_blr
 1040              		.cfi_endproc
 1041              	.LFE54:
 1042              		.size	pwm_lld_enable_channel, .-pwm_lld_enable_channel
 1043              		.section	.text.pwm_lld_disable_channel,"axv",@progbits
 1044              		.align 1
 1045              		.p2align 4,,15
 1046              		.globl pwm_lld_disable_channel
 1047              		.type	pwm_lld_disable_channel, @function
 1048              	pwm_lld_disable_channel:
 1049              	.LFB55:
 1050              		.loc 1 1673 0
 1051              		.cfi_startproc
 1052              	.LVL76:
 1053              		.loc 1 1676 0
 1054 0000 70E0E000 		e_lis %r7,.LANCHOR0@ha
 1055 0004 1CE70000 		e_la %r7,.LANCHOR0@l(%r7)
 1056 0008 0C73     		se_cmp %r3,%r7
 1057 000a 7A120006 		e_beq %cr0,.L115
 1058              	.LVL77:
 1059              	.L111:
 1060 000e 0004     		se_blr
 1061              	.LVL78:
 1062              	.L115:
 1063              		.loc 1 1678 0
 1064 0010 5123000C 		e_lwz %r9,12(%r3)
 1065 0014 18E48009 		e_addi %r7,%r4,9
 1066 0018 7110E000 		e_lis %r8,0x8000
 1067 001c 7CEA2870 		e_slwi %r10,%r7,5
 1068 0020 7110C001 		e_or2i %r8,32769
 1069 0024 7D495214 		add %r10,%r9,%r10
 1070              		.loc 1 1682 0
 1071 0028 2094     		se_addi %r4,10
 1072              	.LVL79:
 1073              		.loc 1 1678 0
 1074 002a 550A0030 		e_stw %r8,48(%r10)
 1075              		.loc 1 1682 0
 1076 002e 6C54     		se_slwi %r4, 5
 1077 0030 4806     		se_li %r6,0
 1078 0032 7C892214 		add %r4,%r9,%r4
 1079              		.loc 1 1685 0
 1080 0036 71400001 		e_li %r10,1
 1081              		.loc 1 1682 0
 1082 003a 5104000C 		e_lwz %r8,12(%r4)
 1083              		.loc 1 1685 0
GAS LISTING C:\Users\jean\AppData\Local\Temp\ccxXHpOC.s 			page 20


 1084 003e 7D4A3830 		slw %r10,%r10,%r7
 1085              		.loc 1 1682 0
 1086 0042 74C88B9C 		e_rlwimi %r8,%r6,17,14,14
 1087 0046 5504000C 		e_stw %r8,12(%r4)
 1088              		.loc 1 1685 0
 1089 004a 5109000C 		e_lwz %r8,12(%r9)
 1090 004e 7D4A4378 		or %r10,%r10,%r8
 1091 0052 5549000C 		e_stw %r10,12(%r9)
 1092              		.loc 1 1688 0
 1093 0056 5149000C 		e_lwz %r10,12(%r9)
 1094 005a 194AC1FE 		e_andi %r10,%r10,65024
 1095 005e 182AA9FE 		e_cmpi %cr1,%r10,65024
 1096 0062 7A06FFAC 		e_bne %cr1,.L111
 1097              		.loc 1 1690 0
 1098 0066 5149012C 		e_lwz %r10,300(%r9)
 1099 006a 74CA8B9C 		e_rlwimi %r10,%r6,17,14,14
 1100 006e 5549012C 		e_stw %r10,300(%r9)
 1101              		.loc 1 1693 0
 1102 0072 5149000C 		e_lwz %r10,12(%r9)
 1103 0076 194AD101 		e_ori %r10,%r10,256
 1104 007a 5549000C 		e_stw %r10,12(%r9)
 1105 007e 0004     		se_blr
 1106              		.cfi_endproc
 1107              	.LFE55:
 1108              		.size	pwm_lld_disable_channel, .-pwm_lld_disable_channel
 1109              		.globl PWMD1
 1110              		.section	.bss.PWMD1,"aw",@nobits
 1111              		.align 2
 1112              		.set	.LANCHOR0,. + 0
 1113              		.type	PWMD1, @object
 1114              		.size	PWMD1, 16
 1115              	PWMD1:
 1116 0000 00000000 		.zero	16
 1116      00000000 
 1116      00000000 
 1116      00000000 
 1117              		.section	".text","axv"
 1118              	.Letext0:
 1119              		.file 2 "c:\\spc5studio\\eclipse\\plugins\\com.st.tools.spc5.tools.gnu.gcc.ppcvle.win32_1.0.0.2016
 1120              		.file 3 "c:\\spc5studio\\eclipse\\plugins\\com.st.tools.spc5.tools.gnu.gcc.ppcvle.win32_1.0.0.2016
 1121              		.file 4 "./components/chibios_rt_spc560dxx_kernel_port_component/lib/include/chtypes.h"
 1122              		.file 5 "./components/chibios_rt_portable_kernel_component/lib/include/chvt.h"
 1123              		.file 6 "./components/spc560dxx_hal_drivers_component/lib/include/xpc560d.h"
 1124              		.file 7 "./components/portable_spc5_hal_component/lib/include/pwm.h"
 1125              		.file 8 "./components/spc560dxx_hal_drivers_component/lib/include/pwm_lld.h"
 1126              		.file 9 "./components/spc560dxx_hal_drivers_component/lib/include/spc5_emios.h"
 1127              		.file 10 "./components/spc560dxx_hal_drivers_component/lib/include/hal_lld.h"