GAS LISTING C:\Users\jean\AppData\Local\Temp\cc0Vai2a.s 			page 1


   1              		.file	"serialprintf.c"
   2              		.section	".text","axv"
   3              	.Ltext0:
   4              		.cfi_sections	.debug_frame
   5              		.section	.text.long_to_string_with_divisor.constprop.0,"axv",@progbits
   6              		.align 1
   7              		.p2align 4,,15
   8              		.type	long_to_string_with_divisor.constprop.0, @function
   9              	long_to_string_with_divisor.constprop.0:
  10              	.LFB51:
  11              		.file 1 "./source/serialprintf.c"
  12              		.loc 1 17 0
  13              		.cfi_startproc
  14              	.LVL0:
  15              		.loc 1 31 0
  16 0000 18C3800B 		e_addi %r6,%r3,11
  17              	.LVL1:
  18 0004 0240     		se_mtar %r8,%r4
  19 0006 0262     		se_mtar %r10,%r6
  20              	.LVL2:
  21              	.L3:
  22              		.loc 1 33 0
  23 0008 7CE42B96 		divwu %r7,%r4,%r5
  24 000c 7D2729D6 		mullw %r9,%r7,%r5
  25 0010 7C892050 		subf %r4, %r9, %r4
  26              	.LVL3:
  27              		.loc 1 34 0
  28 0014 19248030 		e_addi %r9,%r4,48
  29              	.LVL4:
  30              		.loc 1 35 0
  31 0018 1829A839 		e_cmpi %cr1,%r9,57
  32 001c 7A050008 		e_ble %cr1,.L2
  33              		.loc 1 36 0
  34 0020 19248037 		e_addi %r9,%r4,55
  35              	.LVL5:
  36              	.L2:
  37              		.loc 1 39 0
  38 0024 7D082B96 		divwu %r8,%r8,%r5
  39              	.LVL6:
  40              		.loc 1 37 0
  41 0028 192A04FF 		e_stbu %r9,-1(%r10)
  42              	.LVL7:
  43              		.loc 1 38 0
  44 002c 0174     		se_mr %r4,%r7
  45              	.LVL8:
  46              		.loc 1 39 0
  47 002e 1828A800 		e_cmpi %cr1,%r8,0
  48 0032 7A06FFD6 		e_bne %cr1,.L3
  49              	.LVL9:
  50              		.loc 1 41 0
  51 0036 7CCA3050 		subf %r6, %r10, %r6
  52              	.LVL10:
  53 003a 190384FF 		e_addi %r8,%r3,-1
  54              	.LVL11:
  55 003e 00B6     		se_mtctr %r6
  56 0040 78000008 		e_b .L5
  57              	.LVL12:
GAS LISTING C:\Users\jean\AppData\Local\Temp\cc0Vai2a.s 			page 2


  58              	.L10:
  59 0044 192A0001 		e_lbzu %r9,1(%r10)
  60              	.LVL13:
  61              	.L5:
  62              		.loc 1 43 0
  63 0048 19280401 		e_stbu %r9,1(%r8)
  64              	.LVL14:
  65              		.loc 1 44 0
  66 004c 7A20FFF8 		e_bdnz .L10
  67              		.loc 1 47 0
  68 0050 0463     		se_add %r3,%r6
  69 0052 0004     		se_blr
  70              		.cfi_endproc
  71              	.LFE51:
  72              		.size	long_to_string_with_divisor.constprop.0, .-long_to_string_with_divisor.constprop.0
  73              		.section	.text.serialvprintf,"axv",@progbits
  74              		.align 1
  75              		.p2align 4,,15
  76              		.globl serialvprintf
  77              		.type	serialvprintf, @function
  78              	serialvprintf:
  79              	.LFB47:
  80              		.loc 1 91 0
  81              		.cfi_startproc
  82              	.LVL15:
  83 0000 182106B0 		e_stwu %r1,-80(%r1)
  84              	.LCFI0:
  85              		.cfi_def_cfa_offset 80
  86 0004 0080     		se_mflr %r0
  87 0006 1A61091C 		e_stmw %r19,28(%r1)
  88 000a 7D800026 		mfcr %r12
  89              		.cfi_register 65, 0
  90              		.cfi_offset 19, -52
  91              		.cfi_offset 20, -48
  92              		.cfi_offset 21, -44
  93              		.cfi_offset 22, -40
  94              		.cfi_offset 23, -36
  95              		.cfi_offset 24, -32
  96              		.cfi_offset 25, -28
  97              		.cfi_offset 26, -24
  98              		.cfi_offset 27, -20
  99              		.cfi_offset 28, -16
 100              		.cfi_offset 29, -12
 101              		.cfi_offset 30, -8
 102              		.cfi_offset 31, -4
 103 000e 1AC18009 		e_addi %r22,%r1,9
 104 0012 1B618008 		e_addi %r27,%r1,8
 105              		.loc 1 158 0
 106 0016 7320E000 		e_lis %r25,.L35@ha
 107 001a 7380E000 		e_lis %r28,SD2@ha
 108              		.loc 1 166 0
 109 001e 72E0E000 		e_lis %r23,.LC0@ha
 110              		.loc 1 158 0
 111 0022 7340E000 		e_lis %r26,.L42@ha
 112              		.loc 1 91 0
 113 0026 54010054 		e_stw %r0,84(%r1)
 114 002a 55810018 		e_stw %r12,24(%r1)
GAS LISTING C:\Users\jean\AppData\Local\Temp\cc0Vai2a.s 			page 3


 115              		.cfi_offset 65, 4
 116              		.cfi_offset 70, -56
 117              		.loc 1 91 0
 118 002e 023B     		se_mtar %r19,%r3
 119 0030 014D     		se_mr %r29,%r4
 120              		.loc 1 158 0
 121 0032 1F390000 		e_la %r25,.L35@l(%r25)
 122 0036 1F9C0000 		e_la %r28,SD2@l(%r28)
 123 003a 7F1BB050 		subf %r24, %r27, %r22
 124              		.loc 1 166 0
 125 003e 1EF70000 		e_la %r23,.LC0@l(%r23)
 126              		.loc 1 158 0
 127 0042 1F5A0000 		e_la %r26,.L42@l(%r26)
 128              	.LVL16:
 129              	.L12:
 130              		.loc 1 104 0
 131 0046 31330000 		e_lbz %r9,0(%r19)
 132 004a 1AB38001 		e_addi %r21,%r19,1
 133              	.LVL17:
 134 004e 35210015 		e_stb %r9,21(%r1)
 135              		.loc 1 105 0
 136 0052 1829A800 		e_cmpi %cr1,%r9,0
 137 0056 7A16003A 		e_beq %cr1,.L11
 138              	.L115:
 139              		.loc 1 107 0
 140 005a 18A9A825 		e_cmpli %cr1,%r9,37
 141 005e 7A16004A 		e_beq %cr1,.L14
 142              		.loc 1 108 0
 143 0062 513C0000 		e_lwz %r9,0(%r28)
 144 0066 01C3     		se_mr %r3,%r28
 145 0068 51290000 		e_lwz %r9,0(%r9)
 146 006c 18818015 		e_addi %r4,%r1,21
 147 0070 7D2903A6 		mtctr %r9
 148 0074 4815     		se_li %r5,1
 149              		.loc 1 104 0
 150 0076 7EB3AB78 		mr %r19,%r21
 151 007a 1AB38001 		e_addi %r21,%r19,1
 152              	.LVL18:
 153              		.loc 1 108 0
 154 007e 0007     		se_bctrl
 155              	.LVL19:
 156              		.loc 1 104 0
 157 0080 31330000 		e_lbz %r9,0(%r19)
 158 0084 35210015 		e_stb %r9,21(%r1)
 159              		.loc 1 105 0
 160 0088 1829A800 		e_cmpi %cr1,%r9,0
 161 008c 7A06FFCE 		e_bne %cr1,.L115
 162              	.L11:
 163              		.loc 1 241 0
 164 0090 50010054 		e_lwz %r0,84(%r1)
 165 0094 0090     		se_mtlr %r0
 166              		.cfi_remember_state
 167              		.cfi_restore 65
 168 0096 51810018 		e_lwz %r12,24(%r1)
 169              		.cfi_register 70, 12
 170 009a 1A61081C 		e_lmw %r19,28(%r1)
 171              	.LVL20:
GAS LISTING C:\Users\jean\AppData\Local\Temp\cc0Vai2a.s 			page 4


 172 009e 7D810120 		mtcrf 16,%r12
 173              		.cfi_restore 70
 174 00a2 18218050 		e_addi %r1,%r1,80
 175              	.LCFI1:
 176              		.cfi_restore 31
 177              		.cfi_restore 30
 178              		.cfi_restore 29
 179              		.cfi_restore 28
 180              		.cfi_restore 27
 181              		.cfi_restore 26
 182              		.cfi_restore 25
 183              		.cfi_restore 24
 184              		.cfi_restore 23
 185              		.cfi_restore 22
 186              		.cfi_restore 21
 187              		.cfi_restore 20
 188              		.cfi_restore 19
 189              		.cfi_def_cfa_offset 0
 190 00a6 0004     		se_blr
 191              	.LVL21:
 192              	.L14:
 193              	.LCFI2:
 194              		.cfi_restore_state
 195              		.loc 1 114 0
 196 00a8 31130001 		e_lbz %r8,1(%r19)
 197              		.loc 1 113 0
 198 00ac 72800000 		e_li %r20,0
 199              		.loc 1 114 0
 200 00b0 18A8A82D 		e_cmpli %cr1,%r8,45
 201 00b4 7A1603D6 		e_beq %cr1,.L116
 202              	.LVL22:
 203              	.L16:
 204              		.loc 1 119 0
 205 00b8 192884D2 		e_addi %r9,%r8,-46
 206 00bc 7120C8FD 		e_and2i. %r9,253
 207 00c0 7A1203B6 		e_beq %cr0,.L17
 208              		.loc 1 118 0
 209 00c4 71200020 		e_li %r9,32
 210 00c8 35210014 		e_stb %r9,20(%r1)
 211              	.L18:
 212              		.loc 1 120 0
 213 00cc 480F     		se_li %r31,0
 214              	.L24:
 215              	.LVL23:
 216              		.loc 1 126 0
 217 00ce 192884D0 		e_addi %r9,%r8,-48
 218              		.loc 1 125 0
 219 00d2 1AB58001 		e_addi %r21,%r21,1
 220              	.LVL24:
 221              		.loc 1 126 0
 222 00d6 7529063F 		e_rlwinm %r9,%r9,0,0xff
 223              		.loc 1 125 0
 224 00da 35010015 		e_stb %r8,21(%r1)
 225              		.loc 1 126 0
 226 00de 18A9A809 		e_cmpli %cr1,%r9,9
 227 00e2 7A050030 		e_ble %cr1,.L106
 228              		.loc 1 128 0
GAS LISTING C:\Users\jean\AppData\Local\Temp\cc0Vai2a.s 			page 5


 229 00e6 18A8A82A 		e_cmpli %cr1,%r8,42
 230 00ea 7A060052 		e_bne %cr1,.L21
 231              		.loc 1 129 0
 232 00ee 313D0000 		e_lbz %r9,0(%r29)
 233 00f2 18A9A808 		e_cmpli %cr1,%r9,8
 234 00f6 7A040036 		e_bge %cr1,.L22
 235              		.loc 1 129 0 is_stmt 0 discriminator 2
 236 00fa 19098001 		e_addi %r8,%r9,1
 237 00fe 515D0008 		e_lwz %r10,8(%r29)
 238 0102 7D291070 		e_slwi %r9,%r9,2
 239 0106 351D0000 		e_stb %r8,0(%r29)
 240 010a 7D2A4A14 		add %r9,%r10,%r9
 241              	.L23:
 242              		.loc 1 129 0 discriminator 4
 243 010e 31290003 		e_lbz %r9,3(%r9)
 244              	.L106:
 245              		.loc 1 132 0 is_stmt 1 discriminator 4
 246 0112 7FEA0870 		e_slwi %r10,%r31,1
 247              		.loc 1 129 0 discriminator 4
 248 0116 35210015 		e_stb %r9,21(%r1)
 249              		.loc 1 132 0 discriminator 4
 250 011a 6C3F     		se_slwi %r31, 3
 251              	.LVL25:
 252 011c 31150000 		e_lbz %r8,0(%r21)
 253 0120 7FEAFA14 		add %r31,%r10,%r31
 254 0124 7FFF4A14 		add %r31,%r31,%r9
 255              	.LVL26:
 256              		.loc 1 133 0 discriminator 4
 257 0128 79FFFFA6 		e_b .L24
 258              	.L22:
 259              		.loc 1 129 0 discriminator 1
 260 012c 513D0004 		e_lwz %r9,4(%r29)
 261 0130 19498004 		e_addi %r10,%r9,4
 262 0134 555D0004 		e_stw %r10,4(%r29)
 263 0138 79FFFFD6 		e_b .L23
 264              	.L21:
 265              	.LVL27:
 266              		.loc 1 134 0
 267 013c 71400000 		e_li %r10,0
 268              		.loc 1 135 0
 269 0140 18A8A82E 		e_cmpli %cr1,%r8,46
 270 0144 7A16004E 		e_beq %cr1,.L30
 271              	.LVL28:
 272              	.L25:
 273              		.loc 1 149 0
 274 0148 1909C0DF 		e_andi %r9,%r8,223
 275 014c 1829A84C 		e_cmpi %cr1,%r9,76
 276 0150 7A1602F0 		e_beq %cr1,.L117
 277              		.loc 1 158 0
 278 0154 18E884BC 		e_addi %r7,%r8,-68
 279 0158 00C7     		se_extzb %r7
 280              	.LVL29:
 281 015a 18A7A834 		e_cmpli %cr1,%r7,52
 282 015e 7A1502CE 		e_bgt %cr1,.L33
 283 0162 6C27     		se_slwi %r7, 2
 284 0164 7CFA382E 		lwzx %r7,%r26,%r7
 285 0168 04A7     		se_add %r7,%r26
GAS LISTING C:\Users\jean\AppData\Local\Temp\cc0Vai2a.s 			page 6


 286 016a 00B7     		se_mtctr %r7
 287 016c 0006     		se_bctr
 288              		.section	.rodata.serialvprintf,"a",@progbits
 289              		.align 2
 290              		.align 2
 291              	.L42:
 292 0000 00000000 		.long .L53-.L42
 293 0004 00000000 		.long .L33-.L42
 294 0008 00000000 		.long .L33-.L42
 295 000c 00000000 		.long .L33-.L42
 296 0010 00000000 		.long .L33-.L42
 297 0014 00000000 		.long .L53-.L42
 298 0018 00000000 		.long .L33-.L42
 299 001c 00000000 		.long .L33-.L42
 300 0020 00000000 		.long .L33-.L42
 301 0024 00000000 		.long .L33-.L42
 302 0028 00000000 		.long .L33-.L42
 303 002c 00000000 		.long .L36-.L42
 304 0030 00000000 		.long .L33-.L42
 305 0034 00000000 		.long .L33-.L42
 306 0038 00000000 		.long .L33-.L42
 307 003c 00000000 		.long .L33-.L42
 308 0040 00000000 		.long .L33-.L42
 309 0044 00000000 		.long .L37-.L42
 310 0048 00000000 		.long .L33-.L42
 311 004c 00000000 		.long .L33-.L42
 312 0050 00000000 		.long .L38-.L42
 313 0054 00000000 		.long .L33-.L42
 314 0058 00000000 		.long .L33-.L42
 315 005c 00000000 		.long .L33-.L42
 316 0060 00000000 		.long .L33-.L42
 317 0064 00000000 		.long .L33-.L42
 318 0068 00000000 		.long .L33-.L42
 319 006c 00000000 		.long .L33-.L42
 320 0070 00000000 		.long .L33-.L42
 321 0074 00000000 		.long .L33-.L42
 322 0078 00000000 		.long .L33-.L42
 323 007c 00000000 		.long .L39-.L42
 324 0080 00000000 		.long .L53-.L42
 325 0084 00000000 		.long .L33-.L42
 326 0088 00000000 		.long .L33-.L42
 327 008c 00000000 		.long .L33-.L42
 328 0090 00000000 		.long .L33-.L42
 329 0094 00000000 		.long .L53-.L42
 330 0098 00000000 		.long .L33-.L42
 331 009c 00000000 		.long .L33-.L42
 332 00a0 00000000 		.long .L33-.L42
 333 00a4 00000000 		.long .L33-.L42
 334 00a8 00000000 		.long .L33-.L42
 335 00ac 00000000 		.long .L36-.L42
 336 00b0 00000000 		.long .L33-.L42
 337 00b4 00000000 		.long .L33-.L42
 338 00b8 00000000 		.long .L33-.L42
 339 00bc 00000000 		.long .L40-.L42
 340 00c0 00000000 		.long .L33-.L42
 341 00c4 00000000 		.long .L37-.L42
 342 00c8 00000000 		.long .L33-.L42
GAS LISTING C:\Users\jean\AppData\Local\Temp\cc0Vai2a.s 			page 7


 343 00cc 00000000 		.long .L33-.L42
 344 00d0 00000000 		.long .L38-.L42
 345              		.section	.text.serialvprintf
 346              	.LVL30:
 347              	.L28:
 348              		.loc 1 141 0 discriminator 1
 349 016e 513D0004 		e_lwz %r9,4(%r29)
 350 0172 19098004 		e_addi %r8,%r9,4
 351 0176 551D0004 		e_stw %r8,4(%r29)
 352              	.L29:
 353              		.loc 1 141 0 is_stmt 0 discriminator 4
 354 017a 31290003 		e_lbz %r9,3(%r9)
 355              	.L107:
 356              		.loc 1 144 0 is_stmt 1 discriminator 4
 357 017e 7D480870 		e_slwi %r8,%r10,1
 358              		.loc 1 141 0 discriminator 4
 359 0182 35210015 		e_stb %r9,21(%r1)
 360              		.loc 1 144 0 discriminator 4
 361 0186 7D4A1870 		e_slwi %r10,%r10,3
 362              	.LVL31:
 363 018a 7D485214 		add %r10,%r8,%r10
 364              	.LVL32:
 365              		.loc 1 145 0 discriminator 4
 366 018e 7D495214 		add %r10,%r9,%r10
 367              	.LVL33:
 368              	.L30:
 369              		.loc 1 137 0
 370 0192 31150000 		e_lbz %r8,0(%r21)
 371 0196 1AB58001 		e_addi %r21,%r21,1
 372              	.LVL34:
 373              		.loc 1 138 0
 374 019a 192884D0 		e_addi %r9,%r8,-48
 375              		.loc 1 137 0
 376 019e 35010015 		e_stb %r8,21(%r1)
 377              		.loc 1 138 0
 378 01a2 7529063F 		e_rlwinm %r9,%r9,0,0xff
 379 01a6 18A9A809 		e_cmpli %cr1,%r9,9
 380 01aa 7A05FFD4 		e_ble %cr1,.L107
 381              		.loc 1 140 0
 382 01ae 18A8A82A 		e_cmpli %cr1,%r8,42
 383 01b2 7A06FF96 		e_bne %cr1,.L25
 384              		.loc 1 141 0
 385 01b6 313D0000 		e_lbz %r9,0(%r29)
 386 01ba 18A9A808 		e_cmpli %cr1,%r9,8
 387 01be 7A04FFB0 		e_bge %cr1,.L28
 388              		.loc 1 141 0 is_stmt 0 discriminator 2
 389 01c2 18E98001 		e_addi %r7,%r9,1
 390 01c6 511D0008 		e_lwz %r8,8(%r29)
 391 01ca 7D291070 		e_slwi %r9,%r9,2
 392 01ce 907D     		se_stb %r7,0(%r29)
 393 01d0 7D284A14 		add %r9,%r8,%r9
 394 01d4 79FFFFA6 		e_b .L29
 395              	.L40:
 396              		.loc 1 165 0 is_stmt 1
 397 01d8 313D0000 		e_lbz %r9,0(%r29)
 398              		.loc 1 164 0
 399 01dc 71000020 		e_li %r8,32
GAS LISTING C:\Users\jean\AppData\Local\Temp\cc0Vai2a.s 			page 8


 400              		.loc 1 165 0
 401 01e0 18A9A808 		e_cmpli %cr1,%r9,8
 402              		.loc 1 164 0
 403 01e4 35010014 		e_stb %r8,20(%r1)
 404              		.loc 1 165 0
 405 01e8 7A040310 		e_bge %cr1,.L46
 406              		.loc 1 165 0 is_stmt 0 discriminator 2
 407 01ec 18E98001 		e_addi %r7,%r9,1
 408 01f0 511D0008 		e_lwz %r8,8(%r29)
 409 01f4 7D291070 		e_slwi %r9,%r9,2
 410 01f8 907D     		se_stb %r7,0(%r29)
 411 01fa 7D284A14 		add %r9,%r8,%r9
 412 01fe 53C90000 		e_lwz %r30,0(%r9)
 413              	.LVL35:
 414 0202 183EA800 		e_cmpi %cr1,%r30,0
 415 0206 7A16030A 		e_beq %cr1,.L118
 416              	.L48:
 417              		.loc 1 169 0 is_stmt 1
 418 020a 313E0000 		e_lbz %r9,0(%r30)
 419              		.loc 1 167 0
 420 020e 182AA800 		e_cmpi %cr1,%r10,0
 421 0212 7A06030C 		e_bne %cr1,.L119
 422              	.L49:
 423              	.LVL36:
 424              		.loc 1 169 0
 425 0216 714F07FE 		e_li %r10,32766
 426 021a 1829A800 		e_cmpi %cr1,%r9,0
 427 021e 7A16027C 		e_beq %cr1,.L50
 428              	.LVL37:
 429              	.L76:
 430              		.loc 1 169 0 is_stmt 0 discriminator 4
 431 0222 194A8001 		e_addi %r10,%r10,1
 432              	.LVL38:
 433 0226 01E3     		se_mr %r3,%r30
 434 0228 7D4903A6 		mtctr %r10
 435 022c 78000008 		e_b .L52
 436              	.LVL39:
 437              	.L120:
 438              		.loc 1 169 0 discriminator 3
 439 0230 7A300010 		e_bdz .L108
 440              	.LVL40:
 441              	.L52:
 442              		.loc 1 169 0 discriminator 4
 443 0234 19230001 		e_lbzu %r9,1(%r3)
 444              	.LVL41:
 445 0238 1829A800 		e_cmpi %cr1,%r9,0
 446 023c 7A06FFF4 		e_bne %cr1,.L120
 447              	.L108:
 448 0240 06E3     		se_sub %r3, %r30
 449              	.LVL42:
 450              		.loc 1 169 0
 451 0242 7EB3AB78 		mr %r19,%r21
 452 0246 7D23F851 		subf. %r9,%r3,%r31
 453 024a 18E384FF 		e_addi %r7,%r3,-1
 454              	.LVL43:
 455              		.loc 1 222 0 is_stmt 1
 456 024e 1834A800 		e_cmpi %cr1,%r20,0
GAS LISTING C:\Users\jean\AppData\Local\Temp\cc0Vai2a.s 			page 9


 457 0252 7FE0481E 		isel %r31,0,%r9,0
 458              	.LVL44:
 459 0256 7A1600EE 		e_beq %cr1,.L121
 460              	.LVL45:
 461              	.L67:
 462              		.loc 1 233 0
 463 025a 2A07     		se_cmpi %r7,0
 464 025c 027D     		se_mtar %r21,%r7
 465 025e 7A100254 		e_blt %cr0,.L109
 466 0262 02CC     		se_mtar %r20,%r28
 467              	.LVL46:
 468              		.loc 1 234 0
 469 0264 01E4     		se_mr %r4,%r30
 470 0266 51340000 		e_lwz %r9,0(%r20)
 471 026a 03C3     		se_mfar %r3,%r20
 472 026c 51290000 		e_lwz %r9,0(%r9)
 473 0270 4815     		se_li %r5,1
 474 0272 7D2903A6 		mtctr %r9
 475              		.loc 1 233 0
 476 0276 1AB584FF 		e_addi %r21,%r21,-1
 477 027a 187FA800 		e_cmpi %cr3,%r31,0
 478              	.LVL47:
 479              		.loc 1 234 0
 480 027e 200E     		se_addi %r30,1
 481              	.LVL48:
 482 0280 0007     		se_bctrl
 483              	.LVL49:
 484              		.loc 1 233 0
 485 0282 1835ACFF 		e_cmpi %cr1,%r21,-1
 486 0286 7A060102 		e_bne %cr1,.L73
 487              	.LVL50:
 488              	.L72:
 489              		.loc 1 236 0
 490 028a 7A1EFDBC 		e_beq %cr3,.L12
 491              	.LVL51:
 492              	.L74:
 493              		.loc 1 237 0
 494 028e 513C0000 		e_lwz %r9,0(%r28)
 495 0292 01C3     		se_mr %r3,%r28
 496 0294 51290000 		e_lwz %r9,0(%r9)
 497 0298 18818014 		e_addi %r4,%r1,20
 498 029c 4815     		se_li %r5,1
 499 029e 7D2903A6 		mtctr %r9
 500              		.loc 1 236 0
 501 02a2 1BFF84FF 		e_addi %r31,%r31,-1
 502              	.LVL52:
 503              		.loc 1 237 0
 504 02a6 0007     		se_bctrl
 505              	.LVL53:
 506              		.loc 1 236 0
 507 02a8 2A0F     		se_cmpi %r31,0
 508 02aa 7A02FFE4 		e_bne %cr0,.L74
 509 02ae 79FFFD98 		e_b .L12
 510              	.LVL54:
 511              	.L39:
 512              		.loc 1 161 0
 513 02b2 313D0000 		e_lbz %r9,0(%r29)
GAS LISTING C:\Users\jean\AppData\Local\Temp\cc0Vai2a.s 			page 10


 514              		.loc 1 160 0
 515 02b6 71400020 		e_li %r10,32
 516              	.LVL55:
 517              		.loc 1 161 0
 518 02ba 18A9A808 		e_cmpli %cr1,%r9,8
 519              		.loc 1 160 0
 520 02be 35410014 		e_stb %r10,20(%r1)
 521              	.LVL56:
 522              		.loc 1 161 0
 523 02c2 7A040226 		e_bge %cr1,.L43
 524              		.loc 1 161 0 is_stmt 0 discriminator 2
 525 02c6 19098001 		e_addi %r8,%r9,1
 526 02ca 515D0008 		e_lwz %r10,8(%r29)
 527 02ce 7D291070 		e_slwi %r9,%r9,2
 528 02d2 351D0000 		e_stb %r8,0(%r29)
 529 02d6 7D2A4A14 		add %r9,%r10,%r9
 530              	.L44:
 531              		.loc 1 161 0 discriminator 4
 532 02da 51290000 		e_lwz %r9,0(%r9)
 533 02de 0183     		se_mr %r3,%r24
 534 02e0 35210008 		e_stb %r9,8(%r1)
 535 02e4 18F884FF 		e_addi %r7,%r24,-1
 536              		.loc 1 162 0 is_stmt 1 discriminator 4
 537 02e8 7EB3AB78 		mr %r19,%r21
 538              		.loc 1 112 0 discriminator 4
 539 02ec 01BE     		se_mr %r30,%r27
 540              		.loc 1 162 0 discriminator 4
 541 02ee 78000046 		e_b .L45
 542              	.LVL57:
 543              	.L38:
 544              		.loc 1 199 0
 545 02f2 71400010 		e_li %r10,16
 546              	.LVL58:
 547              		.loc 1 200 0
 548 02f6 7EB3AB78 		mr %r19,%r21
 549              		.loc 1 199 0
 550 02fa 35410015 		e_stb %r10,21(%r1)
 551              	.LVL59:
 552              	.L60:
 553              		.loc 1 210 0
 554 02fe 313D0000 		e_lbz %r9,0(%r29)
 555              		.loc 1 212 0
 556 0302 18A9A808 		e_cmpli %cr1,%r9,8
 557 0306 7A0400C0 		e_bge %cr1,.L65
 558              	.L123:
 559              		.loc 1 212 0 is_stmt 0 discriminator 2
 560 030a 19098001 		e_addi %r8,%r9,1
 561 030e 515D0008 		e_lwz %r10,8(%r29)
 562 0312 7D291070 		e_slwi %r9,%r9,2
 563 0316 351D0000 		e_stb %r8,0(%r29)
 564 031a 7D2A4A14 		add %r9,%r10,%r9
 565              	.L66:
 566              		.loc 1 212 0 discriminator 4
 567 031e 50890000 		e_lwz %r4,0(%r9)
 568              	.LVL60:
 569              	.LBB6:
 570              	.LBB7:
GAS LISTING C:\Users\jean\AppData\Local\Temp\cc0Vai2a.s 			page 11


 571              		.loc 1 51 0 is_stmt 1 discriminator 4
 572 0322 01B3     		se_mr %r3,%r27
 573 0324 30A10015 		e_lbz %r5,21(%r1)
 574              	.LVL61:
 575              	.LBE7:
 576              	.LBE6:
 577              		.loc 1 112 0 discriminator 4
 578 0328 01BE     		se_mr %r30,%r27
 579              	.LBB9:
 580              	.LBB8:
 581              		.loc 1 51 0 discriminator 4
 582 032a 78000001 		e_bl long_to_string_with_divisor.constprop.0
 583              	.LVL62:
 584 032e 06B3     		se_sub %r3, %r27
 585 0330 18E384FF 		e_addi %r7,%r3,-1
 586              	.LVL63:
 587              	.L45:
 588 0334 7D23F851 		subf. %r9,%r3,%r31
 589              	.LVL64:
 590              	.LBE8:
 591              	.LBE9:
 592              		.loc 1 222 0
 593 0338 1834A800 		e_cmpi %cr1,%r20,0
 594 033c 7FE0481E 		isel %r31,0,%r9,0
 595              	.LVL65:
 596 0340 7A06FF1A 		e_bne %cr1,.L67
 597              	.LVL66:
 598              	.L121:
 599 0344 027D     		se_mtar %r21,%r7
 600              	.LVL67:
 601              	.L78:
 602              		.loc 1 224 0
 603 0346 003F     		se_neg %r31
 604              	.LVL68:
 605 0348 02CC     		se_mtar %r20,%r28
 606              	.LVL69:
 607 034a 187FA800 		e_cmpi %cr3,%r31,0
 608 034e 7A1E0032 		e_beq %cr3,.L105
 609              		.loc 1 225 0
 610 0352 313E0000 		e_lbz %r9,0(%r30)
 611 0356 02CC     		se_mtar %r20,%r28
 612 0358 1829A82D 		e_cmpi %cr1,%r9,45
 613 035c 7A1601D2 		e_beq %cr1,.L122
 614              	.LVL70:
 615              	.L70:
 616              		.loc 1 230 0 discriminator 1
 617 0360 51340000 		e_lwz %r9,0(%r20)
 618 0364 03C3     		se_mfar %r3,%r20
 619 0366 51290000 		e_lwz %r9,0(%r9)
 620 036a 18818014 		e_addi %r4,%r1,20
 621 036e 4815     		se_li %r5,1
 622 0370 7D2903A6 		mtctr %r9
 623              		.loc 1 231 0 discriminator 1
 624 0374 200F     		se_addi %r31,1
 625              	.LVL71:
 626 0376 187FA800 		e_cmpi %cr3,%r31,0
 627              		.loc 1 230 0 discriminator 1
GAS LISTING C:\Users\jean\AppData\Local\Temp\cc0Vai2a.s 			page 12


 628 037a 0007     		se_bctrl
 629              	.LVL72:
 630              		.loc 1 231 0 discriminator 1
 631 037c 7A0EFFE4 		e_bne %cr3,.L70
 632              	.L105:
 633              		.loc 1 233 0
 634 0380 1835A800 		e_cmpi %cr1,%r21,0
 635 0384 7A14FCC2 		e_blt %cr1,.L12
 636              	.L73:
 637              	.LVL73:
 638              		.loc 1 234 0
 639 0388 51340000 		e_lwz %r9,0(%r20)
 640 038c 01E4     		se_mr %r4,%r30
 641 038e 51290000 		e_lwz %r9,0(%r9)
 642 0392 03C3     		se_mfar %r3,%r20
 643 0394 4815     		se_li %r5,1
 644 0396 7D2903A6 		mtctr %r9
 645              		.loc 1 233 0
 646 039a 1AB584FF 		e_addi %r21,%r21,-1
 647              	.LVL74:
 648              		.loc 1 234 0
 649 039e 200E     		se_addi %r30,1
 650              	.LVL75:
 651 03a0 0007     		se_bctrl
 652              	.LVL76:
 653              		.loc 1 233 0
 654 03a2 1835ACFF 		e_cmpi %cr1,%r21,-1
 655 03a6 7A06FFE2 		e_bne %cr1,.L73
 656 03aa 79FFFEE0 		e_b .L72
 657              	.LVL77:
 658              	.L37:
 659              		.loc 1 203 0
 660 03ae 7140000A 		e_li %r10,10
 661              	.LVL78:
 662              		.loc 1 210 0
 663 03b2 313D0000 		e_lbz %r9,0(%r29)
 664              		.loc 1 204 0
 665 03b6 7EB3AB78 		mr %r19,%r21
 666              		.loc 1 203 0
 667 03ba 35410015 		e_stb %r10,21(%r1)
 668              		.loc 1 212 0
 669 03be 18A9A808 		e_cmpli %cr1,%r9,8
 670 03c2 7A14FF48 		e_blt %cr1,.L123
 671              	.LVL79:
 672              	.L65:
 673              		.loc 1 212 0 is_stmt 0 discriminator 1
 674 03c6 513D0004 		e_lwz %r9,4(%r29)
 675 03ca 19498004 		e_addi %r10,%r9,4
 676 03ce 555D0004 		e_stw %r10,4(%r29)
 677 03d2 79FFFF4C 		e_b .L66
 678              	.LVL80:
 679              	.L36:
 680              		.loc 1 207 0 is_stmt 1
 681 03d6 71400008 		e_li %r10,8
 682              	.LVL81:
 683 03da 7EB3AB78 		mr %r19,%r21
 684 03de 35410015 		e_stb %r10,21(%r1)
GAS LISTING C:\Users\jean\AppData\Local\Temp\cc0Vai2a.s 			page 13


 685 03e2 79FFFF1C 		e_b .L60
 686              	.LVL82:
 687              	.L53:
 688              		.loc 1 179 0
 689 03e6 313D0000 		e_lbz %r9,0(%r29)
 690 03ea 18A9A808 		e_cmpli %cr1,%r9,8
 691 03ee 7A0400CC 		e_bge %cr1,.L57
 692              		.loc 1 179 0 is_stmt 0 discriminator 2
 693 03f2 19098001 		e_addi %r8,%r9,1
 694 03f6 515D0008 		e_lwz %r10,8(%r29)
 695              	.LVL83:
 696 03fa 7D291070 		e_slwi %r9,%r9,2
 697 03fe 351D0000 		e_stb %r8,0(%r29)
 698 0402 7D2A4A14 		add %r9,%r10,%r9
 699 0406 7EB3AB78 		mr %r19,%r21
 700 040a 50890000 		e_lwz %r4,0(%r9)
 701              	.LVL84:
 702              		.loc 1 111 0 is_stmt 1 discriminator 2
 703 040e 01B3     		se_mr %r3,%r27
 704              		.loc 1 180 0 discriminator 2
 705 0410 1824A800 		e_cmpi %cr1,%r4,0
 706 0414 7A1400C4 		e_blt %cr1,.L124
 707              	.LVL85:
 708              	.L59:
 709              	.LBB10:
 710              	.LBB11:
 711              		.loc 1 51 0
 712 0418 48A5     		se_li %r5,10
 713              	.LBE11:
 714              	.LBE10:
 715              		.loc 1 112 0
 716 041a 01BE     		se_mr %r30,%r27
 717              	.LBB13:
 718              	.LBB12:
 719              		.loc 1 51 0
 720 041c 78000001 		e_bl long_to_string_with_divisor.constprop.0
 721              	.LVL86:
 722 0420 06B3     		se_sub %r3, %r27
 723 0422 18E384FF 		e_addi %r7,%r3,-1
 724              	.LBE12:
 725              	.LBE13:
 726              		.loc 1 185 0
 727 0426 79FFFF0E 		e_b .L45
 728              	.LVL87:
 729              	.L82:
 730              		.loc 1 158 0
 731 042a 0270     		se_mtar %r8,%r7
 732              	.LVL88:
 733              	.L33:
 734              		.loc 1 216 0
 735 042c 35010008 		e_stb %r8,8(%r1)
 736 0430 0183     		se_mr %r3,%r24
 737 0432 18F884FF 		e_addi %r7,%r24,-1
 738              		.loc 1 217 0
 739 0436 7EB3AB78 		mr %r19,%r21
 740              		.loc 1 112 0
 741 043a 01BE     		se_mr %r30,%r27
GAS LISTING C:\Users\jean\AppData\Local\Temp\cc0Vai2a.s 			page 14


 742              		.loc 1 217 0
 743 043c 79FFFEF8 		e_b .L45
 744              	.LVL89:
 745              	.L117:
 746              		.loc 1 151 0
 747 0440 30F50000 		e_lbz %r7,0(%r21)
 748 0444 1827A800 		e_cmpi %cr1,%r7,0
 749 0448 7A16FFE4 		e_beq %cr1,.L33
 750              		.loc 1 158 0
 751 044c 192784BC 		e_addi %r9,%r7,-68
 752              		.loc 1 152 0
 753 0450 1AB58001 		e_addi %r21,%r21,1
 754              	.LVL90:
 755              		.loc 1 158 0
 756 0454 7529063F 		e_rlwinm %r9,%r9,0,0xff
 757              		.loc 1 152 0
 758 0458 34E10015 		e_stb %r7,21(%r1)
 759              		.loc 1 158 0
 760 045c 18A9A834 		e_cmpli %cr1,%r9,52
 761 0460 7A15FFCA 		e_bgt %cr1,.L82
 762 0464 7D291070 		e_slwi %r9,%r9,2
 763 0468 7D39482E 		lwzx %r9,%r25,%r9
 764 046c 7D29CA14 		add %r9,%r9,%r25
 765 0470 7D2903A6 		mtctr %r9
 766 0474 0006     		se_bctr
 767              		.section	.rodata.serialvprintf
 768              		.align 2
 769              		.align 2
 770              	.L35:
 771 00d4 00000000 		.long .L53-.L35
 772 00d8 00000000 		.long .L82-.L35
 773 00dc 00000000 		.long .L82-.L35
 774 00e0 00000000 		.long .L82-.L35
 775 00e4 00000000 		.long .L82-.L35
 776 00e8 00000000 		.long .L53-.L35
 777 00ec 00000000 		.long .L82-.L35
 778 00f0 00000000 		.long .L82-.L35
 779 00f4 00000000 		.long .L82-.L35
 780 00f8 00000000 		.long .L82-.L35
 781 00fc 00000000 		.long .L82-.L35
 782 0100 00000000 		.long .L36-.L35
 783 0104 00000000 		.long .L82-.L35
 784 0108 00000000 		.long .L82-.L35
 785 010c 00000000 		.long .L82-.L35
 786 0110 00000000 		.long .L82-.L35
 787 0114 00000000 		.long .L82-.L35
 788 0118 00000000 		.long .L37-.L35
 789 011c 00000000 		.long .L82-.L35
 790 0120 00000000 		.long .L82-.L35
 791 0124 00000000 		.long .L38-.L35
 792 0128 00000000 		.long .L82-.L35
 793 012c 00000000 		.long .L82-.L35
 794 0130 00000000 		.long .L82-.L35
 795 0134 00000000 		.long .L82-.L35
 796 0138 00000000 		.long .L82-.L35
 797 013c 00000000 		.long .L82-.L35
 798 0140 00000000 		.long .L82-.L35
GAS LISTING C:\Users\jean\AppData\Local\Temp\cc0Vai2a.s 			page 15


 799 0144 00000000 		.long .L82-.L35
 800 0148 00000000 		.long .L82-.L35
 801 014c 00000000 		.long .L82-.L35
 802 0150 00000000 		.long .L39-.L35
 803 0154 00000000 		.long .L53-.L35
 804 0158 00000000 		.long .L82-.L35
 805 015c 00000000 		.long .L82-.L35
 806 0160 00000000 		.long .L82-.L35
 807 0164 00000000 		.long .L82-.L35
 808 0168 00000000 		.long .L53-.L35
 809 016c 00000000 		.long .L82-.L35
 810 0170 00000000 		.long .L82-.L35
 811 0174 00000000 		.long .L82-.L35
 812 0178 00000000 		.long .L82-.L35
 813 017c 00000000 		.long .L82-.L35
 814 0180 00000000 		.long .L36-.L35
 815 0184 00000000 		.long .L82-.L35
 816 0188 00000000 		.long .L82-.L35
 817 018c 00000000 		.long .L82-.L35
 818 0190 00000000 		.long .L40-.L35
 819 0194 00000000 		.long .L82-.L35
 820 0198 00000000 		.long .L37-.L35
 821 019c 00000000 		.long .L82-.L35
 822 01a0 00000000 		.long .L82-.L35
 823 01a4 00000000 		.long .L38-.L35
 824              		.section	.text.serialvprintf
 825              	.LVL91:
 826              	.L17:
 827 0476 31150001 		e_lbz %r8,1(%r21)
 828              		.loc 1 121 0
 829 047a 71200030 		e_li %r9,48
 830              		.loc 1 120 0
 831 047e 1AB58001 		e_addi %r21,%r21,1
 832              	.LVL92:
 833              		.loc 1 121 0
 834 0482 35210014 		e_stb %r9,20(%r1)
 835 0486 79FFFC46 		e_b .L18
 836              	.LVL93:
 837              	.L116:
 838              		.loc 1 115 0
 839 048a 1AB38002 		e_addi %r21,%r19,2
 840              	.LVL94:
 841 048e 31130002 		e_lbz %r8,2(%r19)
 842              		.loc 1 116 0
 843 0492 72800001 		e_li %r20,1
 844 0496 79FFFC22 		e_b .L16
 845              	.LVL95:
 846              	.L50:
 847 049a 183FA800 		e_cmpi %cr1,%r31,0
 848              		.loc 1 222 0
 849 049e 7EB3AB78 		mr %r19,%r21
 850 04a2 70149800 		e_cmp16i %r20,0
 851 04a6 72BF7FFF 		e_li %r21,-1
 852              	.LVL96:
 853 04aa 7FE0F91E 		isel %r31,0,%r31,4
 854              	.LVL97:
 855 04ae 7A12FE98 		e_beq %cr0,.L78
GAS LISTING C:\Users\jean\AppData\Local\Temp\cc0Vai2a.s 			page 16


 856              	.LVL98:
 857              	.L109:
 858 04b2 187FA800 		e_cmpi %cr3,%r31,0
 859 04b6 79FFFDD4 		e_b .L72
 860              	.LVL99:
 861              	.L57:
 862              		.loc 1 179 0 discriminator 1
 863 04ba 513D0004 		e_lwz %r9,4(%r29)
 864 04be 7EB3AB78 		mr %r19,%r21
 865 04c2 19498004 		e_addi %r10,%r9,4
 866              	.LVL100:
 867              		.loc 1 111 0 discriminator 1
 868 04c6 01B3     		se_mr %r3,%r27
 869              		.loc 1 179 0 discriminator 1
 870 04c8 555D0004 		e_stw %r10,4(%r29)
 871 04cc 50890000 		e_lwz %r4,0(%r9)
 872              	.LVL101:
 873              		.loc 1 180 0 discriminator 1
 874 04d0 1824A800 		e_cmpi %cr1,%r4,0
 875 04d4 7A04FF44 		e_bge %cr1,.L59
 876              	.LVL102:
 877              	.L124:
 878              		.loc 1 181 0
 879 04d8 7120002D 		e_li %r9,45
 880              		.loc 1 182 0
 881 04dc 0034     		se_neg %r4
 882              	.LVL103:
 883              		.loc 1 181 0
 884 04de 35210008 		e_stb %r9,8(%r1)
 885 04e2 03E3     		se_mfar %r3,%r22
 886              	.LVL104:
 887 04e4 79FFFF34 		e_b .L59
 888              	.LVL105:
 889              	.L43:
 890              		.loc 1 161 0 discriminator 1
 891 04e8 513D0004 		e_lwz %r9,4(%r29)
 892 04ec 19498004 		e_addi %r10,%r9,4
 893 04f0 555D0004 		e_stw %r10,4(%r29)
 894 04f4 79FFFDE6 		e_b .L44
 895              	.LVL106:
 896              	.L46:
 897              		.loc 1 165 0 discriminator 1
 898 04f8 513D0004 		e_lwz %r9,4(%r29)
 899 04fc 19098004 		e_addi %r8,%r9,4
 900 0500 551D0004 		e_stw %r8,4(%r29)
 901 0504 53C90000 		e_lwz %r30,0(%r9)
 902              	.LVL107:
 903 0508 183EA800 		e_cmpi %cr1,%r30,0
 904 050c 7A06FCFE 		e_bne %cr1,.L48
 905              	.L118:
 906              		.loc 1 166 0
 907 0510 03FE     		se_mfar %r30,%r23
 908              	.LVL108:
 909              		.loc 1 167 0
 910 0512 182AA800 		e_cmpi %cr1,%r10,0
 911              		.loc 1 169 0
 912 0516 313E0000 		e_lbz %r9,0(%r30)
GAS LISTING C:\Users\jean\AppData\Local\Temp\cc0Vai2a.s 			page 17


 913              		.loc 1 167 0
 914 051a 7A16FCFC 		e_beq %cr1,.L49
 915              	.L119:
 916              	.LVL109:
 917              		.loc 1 169 0 discriminator 1
 918 051e 1829A800 		e_cmpi %cr1,%r9,0
 919 0522 7A16FF78 		e_beq %cr1,.L50
 920              		.loc 1 169 0 is_stmt 0
 921 0526 194A84FF 		e_addi %r10,%r10,-1
 922              	.LVL110:
 923 052a 79FFFCF8 		e_b .L76
 924              	.LVL111:
 925              	.L122:
 926              		.loc 1 225 0 is_stmt 1 discriminator 1
 927 052e 31210014 		e_lbz %r9,20(%r1)
 928 0532 1829A830 		e_cmpi %cr1,%r9,48
 929 0536 7A06FE2A 		e_bne %cr1,.L70
 930              		.loc 1 226 0
 931 053a 513C0000 		e_lwz %r9,0(%r28)
 932 053e 01E4     		se_mr %r4,%r30
 933 0540 51290000 		e_lwz %r9,0(%r9)
 934 0544 01C3     		se_mr %r3,%r28
 935 0546 4815     		se_li %r5,1
 936 0548 7D2903A6 		mtctr %r9
 937 054c 200E     		se_addi %r30,1
 938              	.LVL112:
 939 054e 1AB584FF 		e_addi %r21,%r21,-1
 940 0552 0007     		se_bctrl
 941              	.LVL113:
 942 0554 79FFFE0C 		e_b .L70
 943              		.cfi_endproc
 944              	.LFE47:
 945              		.size	serialvprintf, .-serialvprintf
 946              		.section	.text.serialprintf,"axv",@progbits
 947              		.align 1
 948              		.p2align 4,,15
 949              		.type	serialprintf, @function
 950              	serialprintf:
 951              	.LFB44:
 952              		.file 2 "./source/serialprintf.h"
 953              		.loc 2 50 0
 954              		.cfi_startproc
 955              	.LVL114:
 956 0000 182106C8 		e_stwu %r1,-56(%r1)
 957              	.LCFI3:
 958              		.cfi_def_cfa_offset 56
 959 0004 0080     		se_mflr %r0
 960 0006 D741     		se_stw %r4,28(%r1)
 961 0008 DF01     		se_stw %r0,60(%r1)
 962              		.cfi_offset 65, 4
 963              		.loc 2 50 0
 964 000a 55210030 		e_stw %r9,48(%r1)
 965 000e D851     		se_stw %r5,32(%r1)
 966 0010 D961     		se_stw %r6,36(%r1)
 967 0012 DA71     		se_stw %r7,40(%r1)
 968 0014 5501002C 		e_stw %r8,44(%r1)
 969 0018 55410034 		e_stw %r10,52(%r1)
GAS LISTING C:\Users\jean\AppData\Local\Temp\cc0Vai2a.s 			page 18


 970              		.loc 2 53 0
 971 001c 71200001 		e_li %r9,1
 972              		.loc 2 54 0
 973 0020 18818008 		e_addi %r4,%r1,8
 974              		.loc 2 53 0
 975 0024 35210008 		e_stb %r9,8(%r1)
 976 0028 71200000 		e_li %r9,0
 977 002c 35210009 		e_stb %r9,9(%r1)
 978 0030 19218040 		e_addi %r9,%r1,64
 979 0034 5521000C 		e_stw %r9,12(%r1)
 980 0038 19218018 		e_addi %r9,%r1,24
 981 003c 55210010 		e_stw %r9,16(%r1)
 982              		.loc 2 54 0
 983 0040 78000001 		e_bl serialvprintf
 984              	.LVL115:
 985              		.loc 2 56 0
 986 0044 CF01     		se_lwz %r0,60(%r1)
 987 0046 0090     		se_mtlr %r0
 988              		.cfi_restore 65
 989 0048 18218038 		e_addi %r1,%r1,56
 990              	.LCFI4:
 991              		.cfi_def_cfa_offset 0
 992 004c 0004     		se_blr
 993              		.cfi_endproc
 994              	.LFE44:
 995              		.size	serialprintf, .-serialprintf
 996              		.section	.text.serialdisplay_word,"axv",@progbits
 997              		.align 1
 998              		.p2align 4,,15
 999              		.globl serialdisplay_word
 1000              		.type	serialdisplay_word, @function
 1001              	serialdisplay_word:
 1002              	.LFB48:
 1003              		.loc 1 243 0
 1004              		.cfi_startproc
 1005              	.LVL116:
 1006 0000 182106F0 		e_stwu %r1,-16(%r1)
 1007              	.LCFI5:
 1008              		.cfi_def_cfa_offset 16
 1009 0004 0080     		se_mflr %r0
 1010 0006 D231     		se_stw %r3,8(%r1)
 1011 0008 D501     		se_stw %r0,20(%r1)
 1012              		.cfi_offset 65, 4
 1013              		.loc 1 244 0
 1014 000a C241     		se_lwz %r4,8(%r1)
 1015 000c 7060E000 		e_lis %r3,.LC1@ha
 1016              	.LVL117:
 1017 0010 1C630000 		e_la %r3,.LC1@l(%r3)
 1018 0014 78000001 		e_bl serialprintf
 1019              	.LVL118:
 1020              		.loc 1 246 0
 1021 0018 C501     		se_lwz %r0,20(%r1)
 1022              		.loc 1 245 0
 1023 001a 4E43     		se_li %r3,100
 1024              		.loc 1 246 0
 1025 001c 0090     		se_mtlr %r0
 1026              		.cfi_restore 65
GAS LISTING C:\Users\jean\AppData\Local\Temp\cc0Vai2a.s 			page 19


 1027 001e 20F1     		se_addi %r1,16
 1028              	.LCFI6:
 1029              		.cfi_def_cfa_offset 0
 1030              	.LVL119:
 1031              		.loc 1 245 0
 1032 0020 78000000 		e_b chThdSleep
 1033              	.LVL120:
 1034              		.cfi_endproc
 1035              	.LFE48:
 1036              		.size	serialdisplay_word, .-serialdisplay_word
 1037              		.section	.text.serialdisplay_array,"axv",@progbits
 1038              		.align 1
 1039              		.p2align 4,,15
 1040              		.globl serialdisplay_array
 1041              		.type	serialdisplay_array, @function
 1042              	serialdisplay_array:
 1043              	.LFB49:
 1044              		.loc 1 248 0
 1045              		.cfi_startproc
 1046              	.LVL121:
 1047 0000 182106D8 		e_stwu %r1,-40(%r1)
 1048              	.LCFI7:
 1049              		.cfi_def_cfa_offset 40
 1050 0004 0080     		se_mflr %r0
 1051 0006 1B21090C 		e_stmw %r25,12(%r1)
 1052 000a DB01     		se_stw %r0,44(%r1)
 1053              		.cfi_offset 65, 4
 1054              		.cfi_offset 25, -28
 1055              		.cfi_offset 26, -24
 1056              		.cfi_offset 27, -20
 1057              		.cfi_offset 28, -16
 1058              		.cfi_offset 29, -12
 1059              		.cfi_offset 30, -8
 1060              		.cfi_offset 31, -4
 1061              		.loc 1 252 0
 1062 000c 014C     		se_mr %r28,%r4
 1063              		.loc 1 248 0
 1064 000e 0139     		se_mr %r25,%r3
 1065              	.LVL122:
 1066              		.loc 1 252 0
 1067 0010 2A0C     		se_cmpi %r28,0
 1068 0012 7A01007C 		e_ble %cr0,.L133
 1069              		.loc 1 253 0
 1070 0016 8043     		se_lbz %r4,0(%r3)
 1071              	.LVL123:
 1072 0018 73A0E000 		e_lis %r29,.LC2@ha
 1073              		.loc 1 255 0
 1074 001c 7340E000 		e_lis %r26,.LC3@ha
 1075              		.loc 1 253 0
 1076 0020 1FBD0000 		e_la %r29,.LC2@l(%r29)
 1077 0024 019E     		se_mr %r30,%r25
 1078 0026 01D3     		se_mr %r3,%r29
 1079              	.LVL124:
 1080 0028 480F     		se_li %r31,0
 1081 002a 78000001 		e_bl serialprintf
 1082              	.LVL125:
 1083              		.loc 1 254 0
GAS LISTING C:\Users\jean\AppData\Local\Temp\cc0Vai2a.s 			page 20


 1084 002e 48FB     		se_li %r27,15
 1085              		.loc 1 255 0
 1086 0030 1F5A0000 		e_la %r26,.LC3@l(%r26)
 1087              	.LVL126:
 1088              	.L132:
 1089              		.loc 1 252 0 discriminator 2
 1090 0034 200F     		se_addi %r31,1
 1091              	.LVL127:
 1092 0036 0CCF     		se_cmp %r31,%r28
 1093 0038 7A120034 		e_beq %cr0,.L129
 1094              	.L131:
 1095              		.loc 1 253 0
 1096 003c 01D3     		se_mr %r3,%r29
 1097 003e 189E0001 		e_lbzu %r4,1(%r30)
 1098 0042 78000001 		e_bl serialprintf
 1099              	.LVL128:
 1100              		.loc 1 254 0
 1101 0046 7D5FDBD6 		divw %r10,%r31,%r27
 1102 004a 7D492070 		e_slwi %r9,%r10,4
 1103 004e 7D2A4850 		subf %r9, %r10, %r9
 1104 0052 7D29F850 		subf %r9, %r9, %r31
 1105 0056 1829A801 		e_cmpi %cr1,%r9,1
 1106 005a 7A06FFDA 		e_bne %cr1,.L132
 1107              		.loc 1 255 0
 1108 005e 01A3     		se_mr %r3,%r26
 1109              		.loc 1 252 0
 1110 0060 200F     		se_addi %r31,1
 1111              	.LVL129:
 1112              		.loc 1 255 0
 1113 0062 78000001 		e_bl serialprintf
 1114              	.LVL130:
 1115              		.loc 1 252 0
 1116 0066 0CCF     		se_cmp %r31,%r28
 1117 0068 7A02FFD4 		e_bne %cr0,.L131
 1118              	.LVL131:
 1119              	.L129:
 1120              		.loc 1 258 0
 1121 006c 7C99F8AE 		lbzx %r4,%r25,%r31
 1122 0070 7060E000 		e_lis %r3,.LC4@ha
 1123 0074 1C630000 		e_la %r3,.LC4@l(%r3)
 1124 0078 78000001 		e_bl serialprintf
 1125              	.LVL132:
 1126              		.loc 1 260 0
 1127 007c CB01     		se_lwz %r0,44(%r1)
 1128 007e 1B21080C 		e_lmw %r25,12(%r1)
 1129              	.LVL133:
 1130              		.loc 1 259 0
 1131 0082 4E43     		se_li %r3,100
 1132              		.loc 1 260 0
 1133 0084 0090     		se_mtlr %r0
 1134              		.cfi_remember_state
 1135              		.cfi_restore 65
 1136 0086 18218028 		e_addi %r1,%r1,40
 1137              	.LCFI8:
 1138              		.cfi_restore 31
 1139              		.cfi_restore 30
 1140              		.cfi_restore 29
GAS LISTING C:\Users\jean\AppData\Local\Temp\cc0Vai2a.s 			page 21


 1141              		.cfi_restore 28
 1142              		.cfi_restore 27
 1143              		.cfi_restore 26
 1144              		.cfi_restore 25
 1145              		.cfi_def_cfa_offset 0
 1146              		.loc 1 259 0
 1147 008a 78000000 		e_b chThdSleep
 1148              	.LVL134:
 1149              	.L133:
 1150              	.LCFI9:
 1151              		.cfi_restore_state
 1152              		.loc 1 252 0
 1153 008e 480F     		se_li %r31,0
 1154 0090 79FFFFDC 		e_b .L129
 1155              		.cfi_endproc
 1156              	.LFE49:
 1157              		.size	serialdisplay_array, .-serialdisplay_array
 1158              		.section	.text.display_buf,"axv",@progbits
 1159              		.align 1
 1160              		.p2align 4,,15
 1161              		.globl display_buf
 1162              		.type	display_buf, @function
 1163              	display_buf:
 1164              	.LFB50:
 1165              		.loc 1 290 0
 1166              		.cfi_startproc
 1167              	.LVL135:
 1168 0000 182106F0 		e_stwu %r1,-16(%r1)
 1169              	.LCFI10:
 1170              		.cfi_def_cfa_offset 16
 1171 0004 0080     		se_mflr %r0
 1172 0006 1BC10908 		e_stmw %r30,8(%r1)
 1173 000a D501     		se_stw %r0,20(%r1)
 1174              		.cfi_offset 65, 4
 1175              		.cfi_offset 30, -8
 1176              		.cfi_offset 31, -4
 1177              		.loc 1 290 0
 1178 000c 014E     		se_mr %r30,%r4
 1179 000e 015F     		se_mr %r31,%r5
 1180              		.loc 1 292 0
 1181 0010 78000001 		e_bl serialprintf
 1182              	.LVL136:
 1183              		.loc 1 294 0
 1184 0014 C501     		se_lwz %r0,20(%r1)
 1185              		.loc 1 293 0
 1186 0016 01E3     		se_mr %r3,%r30
 1187 0018 01F4     		se_mr %r4,%r31
 1188              		.loc 1 294 0
 1189 001a 0090     		se_mtlr %r0
 1190              		.cfi_restore 65
 1191 001c 1BC10808 		e_lmw %r30,8(%r1)
 1192              	.LVL137:
 1193 0020 20F1     		se_addi %r1,16
 1194              	.LCFI11:
 1195              		.cfi_restore 31
 1196              		.cfi_restore 30
 1197              		.cfi_def_cfa_offset 0
GAS LISTING C:\Users\jean\AppData\Local\Temp\cc0Vai2a.s 			page 22


 1198              		.loc 1 293 0
 1199 0022 78000000 		e_b serialdisplay_array
 1200              	.LVL138:
 1201              		.cfi_endproc
 1202              	.LFE50:
 1203              		.size	display_buf, .-display_buf
 1204              		.section	.rodata.str1.4,"aMS",@progbits,1
 1205              		.align 2
 1206              	.LC0:
 1207 0000 286E756C 		.string	"(null)"
 1207      6C2900
 1208 0007 00       		.zero	1
 1209              	.LC1:
 1210 0008 25303878 		.string	"%08x"
 1210      00
 1211 000d 000000   		.zero	3
 1212              	.LC2:
 1213 0010 25303278 		.string	"%02x"
 1213      00
 1214 0015 000000   		.zero	3
 1215              	.LC3:
 1216 0018 2000     		.string	" "
 1217 001a 0000     		.zero	2
 1218              	.LC4:
 1219 001c 0D0A00   		.string	"\r\n"
 1220              		.section	".text","axv"
 1221              	.Letext0:
 1222              		.file 3 "c:\\spc5studio\\eclipse\\plugins\\com.st.tools.spc5.tools.gnu.gcc.ppcvle.win32_1.0.0.2016
 1223              		.file 4 "c:\\spc5studio\\eclipse\\plugins\\com.st.tools.spc5.tools.gnu.gcc.ppcvle.win32_1.0.0.2016
 1224              		.file 5 "c:\\spc5studio\\eclipse\\plugins\\com.st.tools.spc5.tools.gnu.gcc.ppcvle.win32_1.0.0.2016
 1225              		.file 6 "./components/chibios_rt_spc560dxx_kernel_port_component/lib/include/chtypes.h"
 1226              		.file 7 "./components/chibios_rt_portable_kernel_component/lib/include/chlists.h"
 1227              		.file 8 "./components/chibios_rt_portable_kernel_component/lib/include/chthreads.h"
 1228              		.file 9 "./components/chibios_rt_spc560dxx_kernel_port_component/lib/include/chcore.h"
 1229              		.file 10 "./components/chibios_rt_portable_kernel_component/lib/include/chvt.h"
 1230              		.file 11 "./components/chibios_rt_portable_kernel_component/lib/include/chmtx.h"
 1231              		.file 12 "./components/chibios_rt_portable_kernel_component/lib/include/chevents.h"
 1232              		.file 13 "./components/chibios_rt_portable_kernel_component/lib/include/chqueues.h"
 1233              		.file 14 "./components/chibios_rt_spc5xx_osal_component/lib/include/osal.h"
 1234              		.file 15 "./components/portable_spc5_hal_component/lib/include/hal_queues.h"
 1235              		.file 16 "./components/portable_spc5_hal_component/lib/include/serial.h"
 1236              		.file 17 "./components/spc560dxx_hal_drivers_component/lib/include/spc5_linflex.h"
 1237              		.file 18 "c:\\spc5studio\\eclipse\\plugins\\com.st.tools.spc5.tools.gnu.gcc.ppcvle.win32_1.0.0.201
 1238              		.file 19 "<built-in>"
 1239              		.file 20 "./components/spc560dxx_hal_drivers_component/lib/include/serial_lld.h"