GAS LISTING C:\Users\jean\AppData\Local\Temp\ccQchDIv.s 			page 1


   1              		.file	"serial_input.c"
   2              		.section	".text","axv"
   3              	.Ltext0:
   4              		.cfi_sections	.debug_frame
   5              		.section	.text.serialprintf,"axv",@progbits
   6              		.align 1
   7              		.p2align 4,,15
   8              		.type	serialprintf, @function
   9              	serialprintf:
  10              	.LFB44:
  11              		.file 1 "./source/serialprintf.h"
  12              		.loc 1 50 0
  13              		.cfi_startproc
  14              	.LVL0:
  15 0000 182106C8 		e_stwu %r1,-56(%r1)
  16              	.LCFI0:
  17              		.cfi_def_cfa_offset 56
  18 0004 0080     		se_mflr %r0
  19 0006 D741     		se_stw %r4,28(%r1)
  20 0008 DF01     		se_stw %r0,60(%r1)
  21              		.cfi_offset 65, 4
  22              		.loc 1 50 0
  23 000a 55210030 		e_stw %r9,48(%r1)
  24 000e D851     		se_stw %r5,32(%r1)
  25 0010 D961     		se_stw %r6,36(%r1)
  26 0012 DA71     		se_stw %r7,40(%r1)
  27 0014 5501002C 		e_stw %r8,44(%r1)
  28 0018 55410034 		e_stw %r10,52(%r1)
  29              		.loc 1 53 0
  30 001c 71200001 		e_li %r9,1
  31              		.loc 1 54 0
  32 0020 18818008 		e_addi %r4,%r1,8
  33              		.loc 1 53 0
  34 0024 35210008 		e_stb %r9,8(%r1)
  35 0028 71200000 		e_li %r9,0
  36 002c 35210009 		e_stb %r9,9(%r1)
  37 0030 19218040 		e_addi %r9,%r1,64
  38 0034 5521000C 		e_stw %r9,12(%r1)
  39 0038 19218018 		e_addi %r9,%r1,24
  40 003c 55210010 		e_stw %r9,16(%r1)
  41              		.loc 1 54 0
  42 0040 78000001 		e_bl serialvprintf
  43              	.LVL1:
  44              		.loc 1 56 0
  45 0044 CF01     		se_lwz %r0,60(%r1)
  46 0046 0090     		se_mtlr %r0
  47              		.cfi_restore 65
  48 0048 18218038 		e_addi %r1,%r1,56
  49              	.LCFI1:
  50              		.cfi_def_cfa_offset 0
  51 004c 0004     		se_blr
  52              		.cfi_endproc
  53              	.LFE44:
  54              		.size	serialprintf, .-serialprintf
  55              		.section	.text.get_char,"axv",@progbits
  56              		.align 1
  57              		.p2align 4,,15
GAS LISTING C:\Users\jean\AppData\Local\Temp\ccQchDIv.s 			page 2


  58              		.globl get_char
  59              		.type	get_char, @function
  60              	get_char:
  61              	.LFB45:
  62              		.file 2 "./source/serial_input.c"
  63              		.loc 2 8 0
  64              		.cfi_startproc
  65 0000 182106E8 		e_stwu %r1,-24(%r1)
  66              	.LCFI2:
  67              		.cfi_def_cfa_offset 24
  68 0004 0080     		se_mflr %r0
  69              		.loc 2 11 0
  70 0006 7060E000 		e_lis %r3,SD2@ha
  71              		.loc 2 8 0
  72 000a D701     		se_stw %r0,28(%r1)
  73              		.cfi_offset 65, 4
  74              		.loc 2 11 0
  75 000c 51230000 		e_lwz %r9,SD2@l(%r3)
  76 0010 18818008 		e_addi %r4,%r1,8
  77 0014 5129001C 		e_lwz %r9,28(%r9)
  78 0018 1C630000 		e_la %r3,SD2@l(%r3)
  79 001c 4815     		se_li %r5,1
  80 001e 2C06     		se_bmaski %r6,0
  81 0020 7D2903A6 		mtctr %r9
  82 0024 0007     		se_bctrl
  83              	.LVL2:
  84              		.loc 2 14 0
  85 0026 C701     		se_lwz %r0,28(%r1)
  86 0028 0090     		se_mtlr %r0
  87              		.cfi_restore 65
  88 002a 8831     		se_lbz %r3,8(%r1)
  89 002c 2171     		se_addi %r1,24
  90              	.LCFI3:
  91              		.cfi_def_cfa_offset 0
  92 002e 0004     		se_blr
  93              		.cfi_endproc
  94              	.LFE45:
  95              		.size	get_char, .-get_char
  96              		.section	.text.get_int,"axv",@progbits
  97              		.align 1
  98              		.p2align 4,,15
  99              		.globl get_int
 100              		.type	get_int, @function
 101              	get_int:
 102              	.LFB46:
 103              		.loc 2 16 0
 104              		.cfi_startproc
 105              	.LVL3:
 106 0000 182106D0 		e_stwu %r1,-48(%r1)
 107              	.LCFI4:
 108              		.cfi_def_cfa_offset 48
 109 0004 0080     		se_mflr %r0
 110 0006 1B410918 		e_stmw %r26,24(%r1)
 111 000a DD01     		se_stw %r0,52(%r1)
 112              		.cfi_offset 65, 4
 113              		.cfi_offset 26, -24
 114              		.cfi_offset 27, -20
GAS LISTING C:\Users\jean\AppData\Local\Temp\ccQchDIv.s 			page 3


 115              		.cfi_offset 28, -16
 116              		.cfi_offset 29, -12
 117              		.cfi_offset 30, -8
 118              		.cfi_offset 31, -4
 119              		.loc 2 16 0
 120 000c 014B     		se_mr %r27,%r4
 121 000e 73C0E000 		e_lis %r30,SD2@ha
 122 0012 7380E000 		e_lis %r28,.LC0@ha
 123              		.loc 2 46 0
 124 0016 7340E000 		e_lis %r26,.LC1@ha
 125              		.loc 2 25 0
 126 001a 78000001 		e_bl serialprintf
 127              	.LVL4:
 128              		.loc 2 19 0
 129 001e 480F     		se_li %r31,0
 130 0020 1FDE0000 		e_la %r30,SD2@l(%r30)
 131 0024 1F9C0000 		e_la %r28,.LC0@l(%r28)
 132              		.loc 2 46 0
 133 0028 1F5A0000 		e_la %r26,.LC1@l(%r26)
 134              	.LVL5:
 135              	.L4:
 136              		.loc 2 29 0
 137 002c 18818013 		e_addi %r4,%r1,19
 138 0030 513E0000 		e_lwz %r9,0(%r30)
 139 0034 01E3     		se_mr %r3,%r30
 140 0036 5129001C 		e_lwz %r9,28(%r9)
 141 003a 4815     		se_li %r5,1
 142 003c 7D2903A6 		mtctr %r9
 143 0040 2C06     		se_bmaski %r6,0
 144 0042 0007     		se_bctrl
 145              	.LVL6:
 146              		.loc 2 31 0
 147 0044 30810013 		e_lbz %r4,19(%r1)
 148 0048 192484D0 		e_addi %r9,%r4,-48
 149 004c 18A9A809 		e_cmpli %cr1,%r9,9
 150 0050 7A150068 		e_bgt %cr1,.L5
 151              		.loc 2 32 0
 152 0054 183FA80A 		e_cmpi %cr1,%r31,10
 153 0058 7A160086 		e_beq %cr1,.L6
 154 005c 01FD     		se_mr %r29,%r31
 155 005e 200F     		se_addi %r31,1
 156              	.LVL7:
 157              	.L7:
 158              		.loc 2 36 0
 159 0060 01C3     		se_mr %r3,%r28
 160 0062 78000001 		e_bl serialprintf
 161              	.LVL8:
 162              		.loc 2 37 0
 163 0066 30810013 		e_lbz %r4,19(%r1)
 164 006a 7D21EA14 		add %r9,%r1,%r29
 165              		.loc 2 42 0
 166 006e 18A4A808 		e_cmpli %cr1,%r4,8
 167              		.loc 2 37 0
 168 0072 34890008 		e_stb %r4,8(%r9)
 169              	.LVL9:
 170              		.loc 2 42 0
 171 0076 7A160052 		e_beq %cr1,.L8
GAS LISTING C:\Users\jean\AppData\Local\Temp\ccQchDIv.s 			page 4


 172              	.L9:
 173              		.loc 2 51 0
 174 007a 18A4A80D 		e_cmpli %cr1,%r4,13
 175 007e 7A06FFAE 		e_bne %cr1,.L4
 176              		.loc 2 52 0
 177 0082 01C3     		se_mr %r3,%r28
 178              		.loc 2 54 0
 179 0084 7FE1FA14 		add %r31,%r1,%r31
 180              	.LVL10:
 181              		.loc 2 52 0
 182 0088 78000001 		e_bl serialprintf
 183              	.LVL11:
 184              		.loc 2 53 0
 185 008c 7060E000 		e_lis %r3,.LC2@ha
 186 0090 1C630000 		e_la %r3,.LC2@l(%r3)
 187 0094 78000001 		e_bl serialprintf
 188              	.LVL12:
 189              		.loc 2 61 0
 190 0098 18618008 		e_addi %r3,%r1,8
 191              		.loc 2 54 0
 192 009c 71200000 		e_li %r9,0
 193 00a0 353F0008 		e_stb %r9,8(%r31)
 194              	.LVL13:
 195              		.loc 2 61 0
 196 00a4 78000001 		e_bl atoi
 197              	.LVL14:
 198              		.loc 2 63 0
 199 00a8 CD01     		se_lwz %r0,52(%r1)
 200 00aa 0090     		se_mtlr %r0
 201              		.cfi_remember_state
 202              		.cfi_restore 65
 203              		.loc 2 61 0
 204 00ac D03B     		se_stw %r3,0(%r27)
 205              		.loc 2 63 0
 206 00ae 1B410818 		e_lmw %r26,24(%r1)
 207              	.LVL15:
 208 00b2 18218030 		e_addi %r1,%r1,48
 209              	.LCFI5:
 210              		.cfi_restore 31
 211              		.cfi_restore 30
 212              		.cfi_restore 29
 213              		.cfi_restore 28
 214              		.cfi_restore 27
 215              		.cfi_restore 26
 216              		.cfi_def_cfa_offset 0
 217 00b6 0004     		se_blr
 218              	.LVL16:
 219              	.L5:
 220              	.LCFI6:
 221              		.cfi_restore_state
 222              		.loc 2 42 0
 223 00b8 18A4A808 		e_cmpli %cr1,%r4,8
 224 00bc 7A06FFBE 		e_bne %cr1,.L9
 225              		.loc 2 44 0
 226 00c0 183FA800 		e_cmpi %cr1,%r31,0
 227 00c4 7A16FF68 		e_beq %cr1,.L4
 228              	.L8:
GAS LISTING C:\Users\jean\AppData\Local\Temp\ccQchDIv.s 			page 5


 229              		.loc 2 46 0
 230 00c8 4884     		se_li %r4,8
 231 00ca 01A3     		se_mr %r3,%r26
 232 00cc 4885     		se_li %r5,8
 233              		.loc 2 45 0
 234 00ce 1BFF84FF 		e_addi %r31,%r31,-1
 235              	.LVL17:
 236              		.loc 2 46 0
 237 00d2 78000001 		e_bl serialprintf
 238              	.LVL18:
 239 00d6 30810013 		e_lbz %r4,19(%r1)
 240 00da 79FFFFA0 		e_b .L9
 241              	.L6:
 242              		.loc 2 33 0
 243 00de 4884     		se_li %r4,8
 244 00e0 01C3     		se_mr %r3,%r28
 245              		.loc 2 34 0
 246 00e2 489D     		se_li %r29,9
 247              		.loc 2 33 0
 248 00e4 78000001 		e_bl serialprintf
 249              	.LVL19:
 250 00e8 30810013 		e_lbz %r4,19(%r1)
 251 00ec 79FFFF74 		e_b .L7
 252              		.cfi_endproc
 253              	.LFE46:
 254              		.size	get_int, .-get_int
 255              		.section	.text.get_hex,"axv",@progbits
 256              		.align 1
 257              		.p2align 4,,15
 258              		.globl get_hex
 259              		.type	get_hex, @function
 260              	get_hex:
 261              	.LFB47:
 262              		.loc 2 65 0
 263              		.cfi_startproc
 264              	.LVL20:
 265 0000 182106A8 		e_stwu %r1,-88(%r1)
 266              	.LCFI7:
 267              		.cfi_def_cfa_offset 88
 268 0004 0080     		se_mflr %r0
 269 0006 1B010938 		e_stmw %r24,56(%r1)
 270 000a 5401005C 		e_stw %r0,92(%r1)
 271              		.cfi_offset 65, 4
 272              		.cfi_offset 24, -32
 273              		.cfi_offset 25, -28
 274              		.cfi_offset 26, -24
 275              		.cfi_offset 27, -20
 276              		.cfi_offset 28, -16
 277              		.cfi_offset 29, -12
 278              		.cfi_offset 30, -8
 279              		.cfi_offset 31, -4
 280              		.loc 2 78 0
 281 000e 7CBD0870 		e_slwi %r29,%r5,1
 282              		.loc 2 65 0
 283 0012 014E     		se_mr %r30,%r4
 284 0014 015C     		se_mr %r28,%r5
 285              		.loc 2 76 0
GAS LISTING C:\Users\jean\AppData\Local\Temp\ccQchDIv.s 			page 6


 286 0016 0134     		se_mr %r4,%r3
 287              	.LVL21:
 288              		.loc 2 82 0
 289 0018 4A09     		se_li %r25,32
 290              		.loc 2 76 0
 291 001a 7060E000 		e_lis %r3,.LC3@ha
 292              	.LVL22:
 293 001e 1C630000 		e_la %r3,.LC3@l(%r3)
 294 0022 78000001 		e_bl serialprintf
 295              	.LVL23:
 296              		.loc 2 78 0
 297 0026 18BDA81F 		e_cmpli %cr1,%r29,31
 298 002a 7A150006 		e_bgt %cr1,.L19
 299 002e 01D9     		se_mr %r25,%r29
 300              	.L19:
 301              	.LVL24:
 302 0030 7360E000 		e_lis %r27,SD2@ha
 303 0034 7340E000 		e_lis %r26,.LC0@ha
 304              		.loc 2 105 0
 305 0038 7300E000 		e_lis %r24,.LC1@ha
 306              		.loc 2 82 0
 307 003c 480F     		se_li %r31,0
 308 003e 1F7B0000 		e_la %r27,SD2@l(%r27)
 309 0042 1F5A0000 		e_la %r26,.LC0@l(%r26)
 310              		.loc 2 105 0
 311 0046 1F180000 		e_la %r24,.LC1@l(%r24)
 312              	.LVL25:
 313              	.L20:
 314              		.loc 2 87 0
 315 004a 18818029 		e_addi %r4,%r1,41
 316 004e 513B0000 		e_lwz %r9,0(%r27)
 317 0052 01B3     		se_mr %r3,%r27
 318 0054 5129001C 		e_lwz %r9,28(%r9)
 319 0058 4815     		se_li %r5,1
 320 005a 7D2903A6 		mtctr %r9
 321 005e 2C06     		se_bmaski %r6,0
 322 0060 0007     		se_bctrl
 323              	.LVL26:
 324              		.loc 2 89 0
 325 0062 30810029 		e_lbz %r4,41(%r1)
 326 0066 192484D0 		e_addi %r9,%r4,-48
 327 006a 18A9A809 		e_cmpli %cr1,%r9,9
 328 006e 7A050014 		e_ble %cr1,.L21
 329              		.loc 2 89 0 is_stmt 0 discriminator 1
 330 0072 1889C4DF 		e_andi %r9,%r4,-33
 331 0076 192984BF 		e_addi %r9,%r9,-65
 332 007a 18A9A805 		e_cmpli %cr1,%r9,5
 333 007e 7A15001E 		e_bgt %cr1,.L22
 334              	.L21:
 335              		.loc 2 91 0 is_stmt 1
 336 0082 0D9F     		se_cmpl %r31,%r25
 337 0084 7A12013E 		e_beq %cr0,.L46
 338              	.L23:
 339              		.loc 2 95 0
 340 0088 01A3     		se_mr %r3,%r26
 341 008a 78000001 		e_bl serialprintf
 342              	.LVL27:
GAS LISTING C:\Users\jean\AppData\Local\Temp\ccQchDIv.s 			page 7


 343              		.loc 2 96 0
 344 008e 7D21FA14 		add %r9,%r1,%r31
 345 0092 30810029 		e_lbz %r4,41(%r1)
 346 0096 200F     		se_addi %r31,1
 347              	.LVL28:
 348 0098 34890008 		e_stb %r4,8(%r9)
 349              	.LVL29:
 350              	.L22:
 351              		.loc 2 101 0
 352 009c 18A4A808 		e_cmpli %cr1,%r4,8
 353 00a0 7A160106 		e_beq %cr1,.L47
 354              	.L24:
 355              		.loc 2 110 0
 356 00a4 18A4A80D 		e_cmpli %cr1,%r4,13
 357 00a8 7A06FFA2 		e_bne %cr1,.L20
 358              		.loc 2 111 0
 359 00ac 01A3     		se_mr %r3,%r26
 360 00ae 78000001 		e_bl serialprintf
 361              	.LVL30:
 362              		.loc 2 112 0
 363 00b2 7060E000 		e_lis %r3,.LC2@ha
 364 00b6 1C630000 		e_la %r3,.LC2@l(%r3)
 365 00ba 78000001 		e_bl serialprintf
 366              	.LVL31:
 367              		.loc 2 113 0
 368 00be 7D21FA14 		add %r9,%r1,%r31
 369 00c2 71400000 		e_li %r10,0
 370              		.loc 2 120 0
 371 00c6 183FA81F 		e_cmpi %cr1,%r31,31
 372              		.loc 2 113 0
 373 00ca 35490008 		e_stb %r10,8(%r9)
 374              	.LVL32:
 375              		.loc 2 120 0
 376 00ce 7A150028 		e_bgt %cr1,.L30
 377 00d2 19418008 		e_addi %r10,%r1,8
 378 00d6 193F84FF 		e_addi %r9,%r31,-1
 379              		.loc 2 121 0
 380 00da 71000030 		e_li %r8,48
 381 00de 7D2A4A14 		add %r9,%r10,%r9
 382 00e2 19418027 		e_addi %r10,%r1,39
 383 00e6 7D495050 		subf %r10, %r9, %r10
 384 00ea 7D4903A6 		mtctr %r10
 385              	.LVL33:
 386              	.L29:
 387              		.loc 2 121 0 is_stmt 0 discriminator 3
 388 00ee 19090401 		e_stbu %r8,1(%r9)
 389              	.LVL34:
 390              		.loc 2 120 0 is_stmt 1 discriminator 3
 391 00f2 7A20FFFC 		e_bdnz .L29
 392              	.LVL35:
 393              	.L30:
 394              		.loc 2 125 0
 395 00f6 183CA800 		e_cmpi %cr1,%r28,0
 396 00fa 7A05009C 		e_ble %cr1,.L18
 397 00fe 19018008 		e_addi %r8,%r1,8
 398 0102 189E84FF 		e_addi %r4,%r30,-1
 399 0106 7FA8EA14 		add %r29,%r8,%r29
GAS LISTING C:\Users\jean\AppData\Local\Temp\ccQchDIv.s 			page 8


 400              	.LVL36:
 401              	.L37:
 402              	.LBB2:
 403              		.loc 2 128 0
 404 010a 31480000 		e_lbz %r10,0(%r8)
 405              	.LVL37:
 406              		.loc 2 126 0
 407 010e 71200000 		e_li %r9,0
 408              		.loc 2 129 0
 409 0112 18CA84D0 		e_addi %r6,%r10,-48
 410 0116 74C7063F 		e_rlwinm %r7,%r6,0,0xff
 411 011a 18A7A809 		e_cmpli %cr1,%r7,9
 412 011e 7A150006 		e_bgt %cr1,.L31
 413              		.loc 2 130 0
 414 0122 0261     		se_mtar %r9,%r6
 415              	.LVL38:
 416              	.L31:
 417              		.loc 2 132 0
 418 0124 18EA84BF 		e_addi %r7,%r10,-65
 419 0128 18A7A805 		e_cmpli %cr1,%r7,5
 420 012c 7A150008 		e_bgt %cr1,.L32
 421              		.loc 2 133 0
 422 0130 192A84C9 		e_addi %r9,%r10,-55
 423              	.LVL39:
 424              	.L32:
 425              		.loc 2 135 0
 426 0134 18EA849F 		e_addi %r7,%r10,-97
 427 0138 18A7A805 		e_cmpli %cr1,%r7,5
 428 013c 7A150008 		e_bgt %cr1,.L33
 429              		.loc 2 136 0
 430 0140 192A84A9 		e_addi %r9,%r10,-87
 431              	.LVL40:
 432              	.L33:
 433              		.loc 2 141 0
 434 0144 30E80001 		e_lbz %r7,1(%r8)
 435              	.LVL41:
 436 0148 7D2A4B78 		mr %r10,%r9
 437              		.loc 2 142 0
 438 014c 18A784D0 		e_addi %r5,%r7,-48
 439 0150 74A6063F 		e_rlwinm %r6,%r5,0,0xff
 440 0154 18A6A809 		e_cmpli %cr1,%r6,9
 441 0158 7A150006 		e_bgt %cr1,.L34
 442              		.loc 2 143 0
 443 015c 0252     		se_mtar %r10,%r5
 444              	.LVL42:
 445              	.L34:
 446              		.loc 2 145 0
 447 015e 18C784BF 		e_addi %r6,%r7,-65
 448 0162 18A6A805 		e_cmpli %cr1,%r6,5
 449 0166 7A150008 		e_bgt %cr1,.L35
 450              		.loc 2 146 0
 451 016a 194784C9 		e_addi %r10,%r7,-55
 452              	.LVL43:
 453              	.L35:
 454              		.loc 2 148 0
 455 016e 18C7849F 		e_addi %r6,%r7,-97
 456 0172 18A6A805 		e_cmpli %cr1,%r6,5
GAS LISTING C:\Users\jean\AppData\Local\Temp\ccQchDIv.s 			page 9


 457 0176 7A150008 		e_bgt %cr1,.L36
 458              		.loc 2 149 0
 459 017a 194784A9 		e_addi %r10,%r7,-87
 460              	.LVL44:
 461              	.L36:
 462              		.loc 2 153 0 discriminator 2
 463 017e 7D292070 		e_slwi %r9,%r9,4
 464              	.LVL45:
 465 0182 19088002 		e_addi %r8,%r8,2
 466              	.LVL46:
 467 0186 7D2A4A14 		add %r9,%r10,%r9
 468              	.LBE2:
 469              		.loc 2 125 0 discriminator 2
 470 018a 7C88E840 		cmpl %cr1,%r8,%r29
 471              	.LBB3:
 472              		.loc 2 153 0 discriminator 2
 473 018e 19240401 		e_stbu %r9,1(%r4)
 474              	.LVL47:
 475              	.LBE3:
 476              		.loc 2 125 0 discriminator 2
 477 0192 7A06FF78 		e_bne %cr1,.L37
 478              	.LVL48:
 479              	.L18:
 480              		.loc 2 156 0
 481 0196 5001005C 		e_lwz %r0,92(%r1)
 482 019a 0090     		se_mtlr %r0
 483              		.cfi_remember_state
 484              		.cfi_restore 65
 485 019c 1B010838 		e_lmw %r24,56(%r1)
 486              	.LVL49:
 487 01a0 18218058 		e_addi %r1,%r1,88
 488              	.LCFI8:
 489              		.cfi_restore 31
 490              		.cfi_restore 30
 491              		.cfi_restore 29
 492              		.cfi_restore 28
 493              		.cfi_restore 27
 494              		.cfi_restore 26
 495              		.cfi_restore 25
 496              		.cfi_restore 24
 497              		.cfi_def_cfa_offset 0
 498 01a4 0004     		se_blr
 499              	.LVL50:
 500              	.L47:
 501              	.LCFI9:
 502              		.cfi_restore_state
 503              		.loc 2 103 0
 504 01a6 183FA800 		e_cmpi %cr1,%r31,0
 505 01aa 7A16FEA0 		e_beq %cr1,.L20
 506              		.loc 2 105 0
 507 01ae 0183     		se_mr %r3,%r24
 508 01b0 4885     		se_li %r5,8
 509              		.loc 2 104 0
 510 01b2 1BFF84FF 		e_addi %r31,%r31,-1
 511              	.LVL51:
 512              		.loc 2 105 0
 513 01b6 78000001 		e_bl serialprintf
GAS LISTING C:\Users\jean\AppData\Local\Temp\ccQchDIv.s 			page 10


 514              	.LVL52:
 515 01ba 30810029 		e_lbz %r4,41(%r1)
 516 01be 79FFFEE6 		e_b .L24
 517              	.L46:
 518              		.loc 2 92 0
 519 01c2 4884     		se_li %r4,8
 520 01c4 01A3     		se_mr %r3,%r26
 521              		.loc 2 93 0
 522 01c6 1BFF84FF 		e_addi %r31,%r31,-1
 523              	.LVL53:
 524              		.loc 2 92 0
 525 01ca 78000001 		e_bl serialprintf
 526              	.LVL54:
 527 01ce 30810029 		e_lbz %r4,41(%r1)
 528 01d2 79FFFEB6 		e_b .L23
 529              		.cfi_endproc
 530              	.LFE47:
 531              		.size	get_hex, .-get_hex
 532              		.section	.text.get_string,"axv",@progbits
 533              		.align 1
 534              		.p2align 4,,15
 535              		.globl get_string
 536              		.type	get_string, @function
 537              	get_string:
 538              	.LFB48:
 539              		.loc 2 167 0
 540              		.cfi_startproc
 541              	.LVL55:
 542 0000 182106C8 		e_stwu %r1,-56(%r1)
 543              	.LCFI10:
 544              		.cfi_def_cfa_offset 56
 545 0004 0080     		se_mflr %r0
 546 0006 1B010918 		e_stmw %r24,24(%r1)
 547 000a DF01     		se_stw %r0,60(%r1)
 548              		.cfi_offset 65, 4
 549              		.cfi_offset 24, -32
 550              		.cfi_offset 25, -28
 551              		.cfi_offset 26, -24
 552              		.cfi_offset 27, -20
 553              		.cfi_offset 28, -16
 554              		.cfi_offset 29, -12
 555              		.cfi_offset 30, -8
 556              		.cfi_offset 31, -4
 557              		.loc 2 167 0
 558 000c 0149     		se_mr %r25,%r4
 559 000e 015D     		se_mr %r29,%r5
 560 0010 73C0E000 		e_lis %r30,SD2@ha
 561              	.LBB4:
 562              		.loc 2 206 0
 563 0014 7340E000 		e_lis %r26,.LC0@ha
 564              		.loc 2 190 0
 565 0018 7300E000 		e_lis %r24,.LC1@ha
 566              	.LBE4:
 567              		.loc 2 175 0
 568 001c 78000001 		e_bl serialprintf
 569              	.LVL56:
 570              		.loc 2 170 0
GAS LISTING C:\Users\jean\AppData\Local\Temp\ccQchDIv.s 			page 11


 571 0020 480F     		se_li %r31,0
 572 0022 1FDE0000 		e_la %r30,SD2@l(%r30)
 573              	.LBB5:
 574              		.loc 2 206 0
 575 0026 1F5A0000 		e_la %r26,.LC0@l(%r26)
 576              		.loc 2 190 0
 577 002a 1F180000 		e_la %r24,.LC1@l(%r24)
 578              	.LVL57:
 579              	.L56:
 580              		.loc 2 179 0
 581 002e 513E0000 		e_lwz %r9,0(%r30)
 582 0032 18818008 		e_addi %r4,%r1,8
 583 0036 5129001C 		e_lwz %r9,28(%r9)
 584 003a 01E3     		se_mr %r3,%r30
 585 003c 01D6     		se_mr %r6,%r29
 586 003e 4815     		se_li %r5,1
 587 0040 7D2903A6 		mtctr %r9
 588 0044 0007     		se_bctrl
 589              	.LVL58:
 590              		.loc 2 181 0
 591 0046 2A03     		se_cmpi %r3,0
 592 0048 7A120058 		e_beq %cr0,.L63
 593              	.L49:
 594              		.loc 2 186 0
 595 004c 8841     		se_lbz %r4,8(%r1)
 596 004e 18A4A808 		e_cmpli %cr1,%r4,8
 597 0052 7A160060 		e_beq %cr1,.L64
 598              		.loc 2 194 0
 599 0056 18A4A80D 		e_cmpli %cr1,%r4,13
 600 005a 7A160070 		e_beq %cr1,.L65
 601              		.loc 2 202 0
 602 005e 18A4A80A 		e_cmpli %cr1,%r4,10
 603 0062 7A16FFCC 		e_beq %cr1,.L56
 604              		.loc 2 205 0
 605 0066 183FA81E 		e_cmpi %cr1,%r31,30
 606 006a 7A16008E 		e_beq %cr1,.L54
 607 006e 01FC     		se_mr %r28,%r31
 608 0070 01AB     		se_mr %r27,%r26
 609 0072 200F     		se_addi %r31,1
 610              	.LVL59:
 611              	.L55:
 612              		.loc 2 209 0
 613 0074 01B3     		se_mr %r3,%r27
 614 0076 78000001 		e_bl serialprintf
 615              	.LVL60:
 616              		.loc 2 210 0
 617 007a 31210008 		e_lbz %r9,8(%r1)
 618              		.loc 2 179 0
 619 007e 18818008 		e_addi %r4,%r1,8
 620              		.loc 2 210 0
 621 0082 7D39E1AE 		stbx %r9,%r25,%r28
 622              		.loc 2 179 0
 623 0086 01E3     		se_mr %r3,%r30
 624 0088 513E0000 		e_lwz %r9,0(%r30)
 625 008c 01D6     		se_mr %r6,%r29
 626 008e 5129001C 		e_lwz %r9,28(%r9)
 627 0092 4815     		se_li %r5,1
GAS LISTING C:\Users\jean\AppData\Local\Temp\ccQchDIv.s 			page 12


 628 0094 7D2903A6 		mtctr %r9
 629 0098 0007     		se_bctrl
 630              	.LVL61:
 631              		.loc 2 181 0
 632 009a 2A03     		se_cmpi %r3,0
 633 009c 7A02FFB0 		e_bne %cr0,.L49
 634              	.L63:
 635              		.loc 2 182 0
 636 00a0 7C79F9AE 		stbx %r3,%r25,%r31
 637              	.LBE5:
 638              		.loc 2 215 0
 639 00a4 CF01     		se_lwz %r0,60(%r1)
 640 00a6 0090     		se_mtlr %r0
 641              		.cfi_remember_state
 642              		.cfi_restore 65
 643 00a8 1B010818 		e_lmw %r24,24(%r1)
 644              	.LVL62:
 645 00ac 18218038 		e_addi %r1,%r1,56
 646              	.LCFI11:
 647              		.cfi_restore 24
 648              		.cfi_restore 25
 649              		.cfi_restore 26
 650              		.cfi_restore 27
 651              		.cfi_restore 28
 652              		.cfi_restore 29
 653              		.cfi_restore 30
 654              		.cfi_restore 31
 655              		.cfi_def_cfa_offset 0
 656 00b0 0004     		se_blr
 657              	.LVL63:
 658              	.L64:
 659              	.LCFI12:
 660              		.cfi_restore_state
 661              	.LBB6:
 662              		.loc 2 188 0
 663 00b2 183FA800 		e_cmpi %cr1,%r31,0
 664 00b6 7A16FF78 		e_beq %cr1,.L56
 665              		.loc 2 189 0
 666 00ba 1BFF84FF 		e_addi %r31,%r31,-1
 667              	.LVL64:
 668              		.loc 2 190 0
 669 00be 0183     		se_mr %r3,%r24
 670              	.LVL65:
 671 00c0 4885     		se_li %r5,8
 672 00c2 78000001 		e_bl serialprintf
 673              	.LVL66:
 674 00c6 79FFFF68 		e_b .L56
 675              	.LVL67:
 676              	.L65:
 677              		.loc 2 195 0
 678 00ca 7060E000 		e_lis %r3,.LC0@ha
 679              	.LVL68:
 680 00ce 1C630000 		e_la %r3,.LC0@l(%r3)
 681 00d2 78000001 		e_bl serialprintf
 682              	.LVL69:
 683              		.loc 2 196 0
 684 00d6 7060E000 		e_lis %r3,.LC2@ha
GAS LISTING C:\Users\jean\AppData\Local\Temp\ccQchDIv.s 			page 13


 685 00da 1C630000 		e_la %r3,.LC2@l(%r3)
 686 00de 78000001 		e_bl serialprintf
 687              	.LVL70:
 688              		.loc 2 197 0
 689 00e2 71200000 		e_li %r9,0
 690 00e6 7D39F9AE 		stbx %r9,%r25,%r31
 691              	.LVL71:
 692              	.LBE6:
 693              		.loc 2 215 0
 694 00ea CF01     		se_lwz %r0,60(%r1)
 695 00ec 0090     		se_mtlr %r0
 696              		.cfi_remember_state
 697              		.cfi_restore 65
 698 00ee 1B010818 		e_lmw %r24,24(%r1)
 699              	.LVL72:
 700 00f2 18218038 		e_addi %r1,%r1,56
 701              	.LCFI13:
 702              		.cfi_restore 31
 703              		.cfi_restore 30
 704              		.cfi_restore 29
 705              		.cfi_restore 28
 706              		.cfi_restore 27
 707              		.cfi_restore 26
 708              		.cfi_restore 25
 709              		.cfi_restore 24
 710              		.cfi_def_cfa_offset 0
 711 00f6 0004     		se_blr
 712              	.LVL73:
 713              	.L54:
 714              	.LCFI14:
 715              		.cfi_restore_state
 716              	.LBB7:
 717              		.loc 2 206 0
 718 00f8 4884     		se_li %r4,8
 719 00fa 01A3     		se_mr %r3,%r26
 720              	.LVL74:
 721 00fc 01AB     		se_mr %r27,%r26
 722 00fe 78000001 		e_bl serialprintf
 723              	.LVL75:
 724 0102 49DC     		se_li %r28,29
 725 0104 8841     		se_lbz %r4,8(%r1)
 726 0106 79FFFF6E 		e_b .L55
 727              	.LBE7:
 728              		.cfi_endproc
 729              	.LFE48:
 730              		.size	get_string, .-get_string
 731              		.section	.rodata.str1.4,"aMS",@progbits,1
 732              		.align 2
 733              	.LC0:
 734 0000 256300   		.string	"%c"
 735 0003 00       		.zero	1
 736              	.LC1:
 737 0004 25632025 		.string	"%c %c"
 737      6300
 738 000a 0000     		.zero	2
 739              	.LC2:
 740 000c 0D0A00   		.string	"\r\n"
GAS LISTING C:\Users\jean\AppData\Local\Temp\ccQchDIv.s 			page 14


 741 000f 00       		.zero	1
 742              	.LC3:
 743 0010 257300   		.string	"%s"
 744              		.section	".text","axv"
 745              	.Letext0:
 746              		.file 3 "c:\\spc5studio\\eclipse\\plugins\\com.st.tools.spc5.tools.gnu.gcc.ppcvle.win32_1.0.0.2016
 747              		.file 4 "c:\\spc5studio\\eclipse\\plugins\\com.st.tools.spc5.tools.gnu.gcc.ppcvle.win32_1.0.0.2016
 748              		.file 5 "c:\\spc5studio\\eclipse\\plugins\\com.st.tools.spc5.tools.gnu.gcc.ppcvle.win32_1.0.0.2016
 749              		.file 6 "./components/chibios_rt_spc560dxx_kernel_port_component/lib/include/chtypes.h"
 750              		.file 7 "./components/chibios_rt_portable_kernel_component/lib/include/chlists.h"
 751              		.file 8 "./components/chibios_rt_portable_kernel_component/lib/include/chthreads.h"
 752              		.file 9 "./components/chibios_rt_spc560dxx_kernel_port_component/lib/include/chcore.h"
 753              		.file 10 "./components/chibios_rt_portable_kernel_component/lib/include/chvt.h"
 754              		.file 11 "./components/chibios_rt_portable_kernel_component/lib/include/chmtx.h"
 755              		.file 12 "./components/chibios_rt_portable_kernel_component/lib/include/chevents.h"
 756              		.file 13 "./components/chibios_rt_portable_kernel_component/lib/include/chqueues.h"
 757              		.file 14 "./components/chibios_rt_spc5xx_osal_component/lib/include/osal.h"
 758              		.file 15 "./components/portable_spc5_hal_component/lib/include/hal_queues.h"
 759              		.file 16 "./components/portable_spc5_hal_component/lib/include/serial.h"
 760              		.file 17 "./components/spc560dxx_hal_drivers_component/lib/include/spc5_linflex.h"
 761              		.file 18 "c:\\spc5studio\\eclipse\\plugins\\com.st.tools.spc5.tools.gnu.gcc.ppcvle.win32_1.0.0.201
 762              		.file 19 "<built-in>"
 763              		.file 20 "c:\\spc5studio\\eclipse\\plugins\\com.st.tools.spc5.tools.gnu.gcc.ppcvle.win32_1.0.0.201
 764              		.file 21 "./components/spc560dxx_hal_drivers_component/lib/include/serial_lld.h"