GAS LISTING C:\Users\jean\AppData\Local\Temp\ccsnqUbK.s 			page 1


   1              		.file	"serial.c"
   2              		.section	".text","axv"
   3              	.Ltext0:
   4              		.cfi_sections	.debug_frame
   5              		.section	.text.readt,"axv",@progbits
   6              		.align 1
   7              		.p2align 4,,15
   8              		.type	readt, @function
   9              	readt:
  10              	.LFB51:
  11              		.file 1 "./components/portable_spc5_hal_component/lib/src/serial.c"
  12              		.loc 1 87 0
  13              		.cfi_startproc
  14              	.LVL0:
  15              		.loc 1 89 0
  16 0000 20B3     		se_addi %r3,12
  17              	.LVL1:
  18              		.loc 1 90 0
  19              		.loc 1 89 0
  20 0002 78000000 		e_b chIQReadTimeout
  21              	.LVL2:
  22              		.cfi_endproc
  23              	.LFE51:
  24              		.size	readt, .-readt
  25              		.section	.text.read,"axv",@progbits
  26              		.align 1
  27              		.p2align 4,,15
  28              		.type	read, @function
  29              	read:
  30              	.LFB45:
  31              		.loc 1 56 0
  32              		.cfi_startproc
  33              	.LVL3:
  34              		.loc 1 58 0
  35 0000 20B3     		se_addi %r3,12
  36              	.LVL4:
  37 0002 2C06     		se_bmaski %r6,0
  38              		.loc 1 60 0
  39              		.loc 1 58 0
  40 0004 78000000 		e_b chIQReadTimeout
  41              	.LVL5:
  42              		.cfi_endproc
  43              	.LFE45:
  44              		.size	read, .-read
  45              		.section	.text.writet,"axv",@progbits
  46              		.align 1
  47              		.p2align 4,,15
  48              		.type	writet, @function
  49              	writet:
  50              	.LFB50:
  51              		.loc 1 82 0
  52              		.cfi_startproc
  53              	.LVL6:
  54              		.loc 1 84 0
  55 0000 18638030 		e_addi %r3,%r3,48
  56              	.LVL7:
  57              		.loc 1 85 0
GAS LISTING C:\Users\jean\AppData\Local\Temp\ccsnqUbK.s 			page 2


  58              		.loc 1 84 0
  59 0004 78000000 		e_b chOQWriteTimeout
  60              	.LVL8:
  61              		.cfi_endproc
  62              	.LFE50:
  63              		.size	writet, .-writet
  64              		.section	.text.write,"axv",@progbits
  65              		.align 1
  66              		.p2align 4,,15
  67              		.type	write, @function
  68              	write:
  69              	.LFB44:
  70              		.loc 1 50 0
  71              		.cfi_startproc
  72              	.LVL9:
  73              		.loc 1 52 0
  74 0000 18638030 		e_addi %r3,%r3,48
  75              	.LVL10:
  76 0004 2C06     		se_bmaski %r6,0
  77              		.loc 1 54 0
  78              		.loc 1 52 0
  79 0006 78000000 		e_b chOQWriteTimeout
  80              	.LVL11:
  81              		.cfi_endproc
  82              	.LFE44:
  83              		.size	write, .-write
  84              		.section	.text.gett,"axv",@progbits
  85              		.align 1
  86              		.p2align 4,,15
  87              		.type	gett, @function
  88              	gett:
  89              	.LFB49:
  90              		.loc 1 77 0
  91              		.cfi_startproc
  92              	.LVL12:
  93              		.loc 1 79 0
  94 0000 20B3     		se_addi %r3,12
  95              	.LVL13:
  96              		.loc 1 80 0
  97              		.loc 1 79 0
  98 0002 78000000 		e_b chIQGetTimeout
  99              	.LVL14:
 100              		.cfi_endproc
 101              	.LFE49:
 102              		.size	gett, .-gett
 103              		.section	.text.get,"axv",@progbits
 104              		.align 1
 105              		.p2align 4,,15
 106              		.type	get, @function
 107              	get:
 108              	.LFB47:
 109              		.loc 1 67 0
 110              		.cfi_startproc
 111              	.LVL15:
 112              		.loc 1 69 0
 113 0000 20B3     		se_addi %r3,12
 114              	.LVL16:
GAS LISTING C:\Users\jean\AppData\Local\Temp\ccsnqUbK.s 			page 3


 115 0002 2C04     		se_bmaski %r4,0
 116              		.loc 1 70 0
 117              		.loc 1 69 0
 118 0004 78000000 		e_b chIQGetTimeout
 119              	.LVL17:
 120              		.cfi_endproc
 121              	.LFE47:
 122              		.size	get, .-get
 123              		.section	.text.putt,"axv",@progbits
 124              		.align 1
 125              		.p2align 4,,15
 126              		.type	putt, @function
 127              	putt:
 128              	.LFB48:
 129              		.loc 1 72 0
 130              		.cfi_startproc
 131              	.LVL18:
 132              		.loc 1 74 0
 133 0000 18638030 		e_addi %r3,%r3,48
 134              	.LVL19:
 135              		.loc 1 75 0
 136              		.loc 1 74 0
 137 0004 78000000 		e_b chOQPutTimeout
 138              	.LVL20:
 139              		.cfi_endproc
 140              	.LFE48:
 141              		.size	putt, .-putt
 142              		.section	.text.put,"axv",@progbits
 143              		.align 1
 144              		.p2align 4,,15
 145              		.type	put, @function
 146              	put:
 147              	.LFB46:
 148              		.loc 1 62 0
 149              		.cfi_startproc
 150              	.LVL21:
 151              		.loc 1 64 0
 152 0000 18638030 		e_addi %r3,%r3,48
 153              	.LVL22:
 154 0004 2C05     		se_bmaski %r5,0
 155              		.loc 1 65 0
 156              		.loc 1 64 0
 157 0006 78000000 		e_b chOQPutTimeout
 158              	.LVL23:
 159              		.cfi_endproc
 160              	.LFE46:
 161              		.size	put, .-put
 162              		.section	.text.sdInit,"axv",@progbits
 163              		.align 1
 164              		.p2align 4,,15
 165              		.globl sdInit
 166              		.type	sdInit, @function
 167              	sdInit:
 168              	.LFB52:
 169              		.loc 1 108 0
 170              		.cfi_startproc
 171              		.loc 1 111 0
GAS LISTING C:\Users\jean\AppData\Local\Temp\ccsnqUbK.s 			page 4


 172              		.loc 1 110 0
 173 0000 78000000 		e_b sd_lld_init
 174              	.LVL24:
 175              		.cfi_endproc
 176              	.LFE52:
 177              		.size	sdInit, .-sdInit
 178              		.section	.text.sdObjectInit,"axv",@progbits
 179              		.align 1
 180              		.p2align 4,,15
 181              		.globl sdObjectInit
 182              		.type	sdObjectInit, @function
 183              	sdObjectInit:
 184              	.LFB53:
 185              		.loc 1 128 0
 186              		.cfi_startproc
 187              	.LVL25:
 188 0000 182106F0 		e_stwu %r1,-16(%r1)
 189              	.LCFI0:
 190              		.cfi_def_cfa_offset 16
 191 0004 0080     		se_mflr %r0
 192 0006 1BC10908 		e_stmw %r30,8(%r1)
 193 000a D501     		se_stw %r0,20(%r1)
 194              		.cfi_offset 65, 4
 195              		.cfi_offset 30, -8
 196              		.cfi_offset 31, -4
 197              		.loc 1 128 0
 198 000c 013F     		se_mr %r31,%r3
 199 000e 0146     		se_mr %r6,%r4
 200 0010 015E     		se_mr %r30,%r5
 201              		.loc 1 133 0
 202 0012 189F8054 		e_addi %r4,%r31,84
 203              	.LVL26:
 204 0016 01F7     		se_mr %r7,%r31
 205              		.loc 1 131 0
 206 0018 193F8004 		e_addi %r9,%r31,4
 207              		.loc 1 133 0
 208 001c 20B3     		se_addi %r3,12
 209              	.LVL27:
 210              	.LBB32:
 211              	.LBB33:
 212              		.file 2 "./components/chibios_rt_spc5xx_osal_component/lib/include/osal.h"
 213              		.loc 2 665 0
 214 001e 553F0004 		e_stw %r9,4(%r31)
 215              	.LBE33:
 216              	.LBE32:
 217              		.loc 1 133 0
 218 0022 4905     		se_li %r5,16
 219              	.LVL28:
 220              		.loc 1 130 0
 221 0024 7120E000 		e_lis %r9,.LANCHOR0@ha
 222 0028 1D290000 		e_la %r9,.LANCHOR0@l(%r9)
 223 002c 553F0000 		e_stw %r9,0(%r31)
 224              	.LVL29:
 225              		.loc 1 132 0
 226 0030 71200001 		e_li %r9,1
 227 0034 553F0008 		e_stw %r9,8(%r31)
 228              		.loc 1 133 0
GAS LISTING C:\Users\jean\AppData\Local\Temp\ccsnqUbK.s 			page 5


 229 0038 78000001 		e_bl chIQInit
 230              	.LVL30:
 231              		.loc 1 135 0
 232 003c C501     		se_lwz %r0,20(%r1)
 233              		.loc 1 134 0
 234 003e 187F8030 		e_addi %r3,%r31,48
 235 0042 189F8064 		e_addi %r4,%r31,100
 236 0046 01E6     		se_mr %r6,%r30
 237 0048 01F7     		se_mr %r7,%r31
 238 004a 4905     		se_li %r5,16
 239              		.loc 1 135 0
 240 004c 1BC10808 		e_lmw %r30,8(%r1)
 241              	.LVL31:
 242 0050 0090     		se_mtlr %r0
 243              		.cfi_restore 65
 244 0052 20F1     		se_addi %r1,16
 245              	.LCFI1:
 246              		.cfi_restore 31
 247              		.cfi_restore 30
 248              		.cfi_def_cfa_offset 0
 249              		.loc 1 134 0
 250 0054 78000000 		e_b chOQInit
 251              	.LVL32:
 252              		.cfi_endproc
 253              	.LFE53:
 254              		.size	sdObjectInit, .-sdObjectInit
 255              		.section	.text.sdStart,"axv",@progbits
 256              		.align 1
 257              		.p2align 4,,15
 258              		.globl sdStart
 259              		.type	sdStart, @function
 260              	sdStart:
 261              	.LFB54:
 262              		.loc 1 147 0
 263              		.cfi_startproc
 264              	.LVL33:
 265 0000 182106F0 		e_stwu %r1,-16(%r1)
 266              	.LCFI2:
 267              		.cfi_def_cfa_offset 16
 268 0004 0080     		se_mflr %r0
 269 0006 D3F1     		se_stw %r31,12(%r1)
 270 0008 D501     		se_stw %r0,20(%r1)
 271              		.cfi_offset 65, 4
 272              		.cfi_offset 31, -4
 273              		.loc 1 147 0
 274 000a 013F     		se_mr %r31,%r3
 275              	.LBB34:
 276              	.LBB35:
 277              	.LBB36:
 278              		.file 3 "./components/chibios_rt_portable_kernel_component/lib/include/chsys.h"
 279              		.loc 3 149 0
 280              	 # 149 "./components/chibios_rt_portable_kernel_component/lib/include/chsys.h" 1
 281 000c 7C000146 		wrteei  0
 282              	 # 0 "" 2
 283              	.LBE36:
 284              	.LBE35:
 285              	.LBE34:
GAS LISTING C:\Users\jean\AppData\Local\Temp\ccsnqUbK.s 			page 6


 286              		.loc 1 152 0
 287 0010 51230008 		e_lwz %r9,8(%r3)
 288 0014 18A9A801 		e_cmpli %cr1,%r9,1
 289 0018 7A160008 		e_beq %cr1,.L12
 290              		.loc 1 152 0 is_stmt 0 discriminator 2
 291 001c 51230008 		e_lwz %r9,8(%r3)
 292              	.L12:
 293              		.loc 1 154 0 is_stmt 1
 294 0020 01F3     		se_mr %r3,%r31
 295              	.LVL34:
 296 0022 78000001 		e_bl sd_lld_start
 297              	.LVL35:
 298              		.loc 1 155 0
 299 0026 71200002 		e_li %r9,2
 300 002a 553F0008 		e_stw %r9,8(%r31)
 301              	.LBB37:
 302              	.LBB38:
 303              	.LBB39:
 304              		.loc 3 164 0
 305              	 # 164 "./components/chibios_rt_portable_kernel_component/lib/include/chsys.h" 1
 306 002e 7C008146 		wrteei  1
 307              	 # 0 "" 2
 308              	.LBE39:
 309              	.LBE38:
 310              	.LBE37:
 311              		.loc 1 157 0
 312 0032 C501     		se_lwz %r0,20(%r1)
 313 0034 0090     		se_mtlr %r0
 314              		.cfi_restore 65
 315 0036 C3F1     		se_lwz %r31,12(%r1)
 316              	.LVL36:
 317 0038 20F1     		se_addi %r1,16
 318              	.LCFI3:
 319              		.cfi_restore 31
 320              		.cfi_def_cfa_offset 0
 321 003a 0004     		se_blr
 322              		.cfi_endproc
 323              	.LFE54:
 324              		.size	sdStart, .-sdStart
 325              		.section	.text.sdStop,"axv",@progbits
 326              		.align 1
 327              		.p2align 4,,15
 328              		.globl sdStop
 329              		.type	sdStop, @function
 330              	sdStop:
 331              	.LFB55:
 332              		.loc 1 168 0
 333              		.cfi_startproc
 334              	.LVL37:
 335 0000 182106F0 		e_stwu %r1,-16(%r1)
 336              	.LCFI4:
 337              		.cfi_def_cfa_offset 16
 338 0004 0080     		se_mflr %r0
 339 0006 D3F1     		se_stw %r31,12(%r1)
 340 0008 D501     		se_stw %r0,20(%r1)
 341              		.cfi_offset 65, 4
 342              		.cfi_offset 31, -4
GAS LISTING C:\Users\jean\AppData\Local\Temp\ccsnqUbK.s 			page 7


 343              		.loc 1 168 0
 344 000a 013F     		se_mr %r31,%r3
 345              	.LBB40:
 346              	.LBB41:
 347              	.LBB42:
 348              		.loc 3 149 0
 349              	 # 149 "./components/chibios_rt_portable_kernel_component/lib/include/chsys.h" 1
 350 000c 7C000146 		wrteei  0
 351              	 # 0 "" 2
 352              	.LBE42:
 353              	.LBE41:
 354              	.LBE40:
 355              		.loc 1 173 0
 356 0010 51230008 		e_lwz %r9,8(%r3)
 357 0014 18A9A801 		e_cmpli %cr1,%r9,1
 358 0018 7A160008 		e_beq %cr1,.L18
 359              		.loc 1 173 0 is_stmt 0 discriminator 2
 360 001c 51230008 		e_lwz %r9,8(%r3)
 361              	.L18:
 362              		.loc 1 175 0 is_stmt 1
 363 0020 01F3     		se_mr %r3,%r31
 364              	.LVL38:
 365 0022 78000001 		e_bl sd_lld_stop
 366              	.LVL39:
 367              		.loc 1 176 0
 368 0026 71200001 		e_li %r9,1
 369              		.loc 1 177 0
 370 002a 187F8030 		e_addi %r3,%r31,48
 371              		.loc 1 176 0
 372 002e 553F0008 		e_stw %r9,8(%r31)
 373              		.loc 1 177 0
 374 0032 78000001 		e_bl chOQResetI
 375              	.LVL40:
 376              		.loc 1 178 0
 377 0036 187F800C 		e_addi %r3,%r31,12
 378 003a 78000001 		e_bl chIQResetI
 379              	.LVL41:
 380              	.LBB43:
 381              	.LBB44:
 382              		.loc 2 652 0
 383 003e 78000001 		e_bl chSchRescheduleS
 384              	.LVL42:
 385              	.LBE44:
 386              	.LBE43:
 387              	.LBB45:
 388              	.LBB46:
 389              	.LBB47:
 390              		.loc 3 164 0
 391              	 # 164 "./components/chibios_rt_portable_kernel_component/lib/include/chsys.h" 1
 392 0042 7C008146 		wrteei  1
 393              	 # 0 "" 2
 394              	.LBE47:
 395              	.LBE46:
 396              	.LBE45:
 397              		.loc 1 181 0
 398 0046 C501     		se_lwz %r0,20(%r1)
 399 0048 0090     		se_mtlr %r0
GAS LISTING C:\Users\jean\AppData\Local\Temp\ccsnqUbK.s 			page 8


 400              		.cfi_restore 65
 401 004a C3F1     		se_lwz %r31,12(%r1)
 402              	.LVL43:
 403 004c 20F1     		se_addi %r1,16
 404              	.LCFI5:
 405              		.cfi_restore 31
 406              		.cfi_def_cfa_offset 0
 407 004e 0004     		se_blr
 408              		.cfi_endproc
 409              	.LFE55:
 410              		.size	sdStop, .-sdStop
 411              		.section	.text.sdIncomingDataI,"axv",@progbits
 412              		.align 1
 413              		.p2align 4,,15
 414              		.globl sdIncomingDataI
 415              		.type	sdIncomingDataI, @function
 416              	sdIncomingDataI:
 417              	.LFB56:
 418              		.loc 1 199 0
 419              		.cfi_startproc
 420              	.LVL44:
 421 0000 182106F0 		e_stwu %r1,-16(%r1)
 422              	.LCFI6:
 423              		.cfi_def_cfa_offset 16
 424 0004 0080     		se_mflr %r0
 425 0006 1BC10908 		e_stmw %r30,8(%r1)
 426 000a D501     		se_stw %r0,20(%r1)
 427              		.cfi_offset 65, 4
 428              		.cfi_offset 30, -8
 429              		.cfi_offset 31, -4
 430              		.loc 1 199 0
 431 000c 013F     		se_mr %r31,%r3
 432              		.loc 1 204 0
 433 000e 51230014 		e_lwz %r9,20(%r3)
 434              		.loc 1 199 0
 435 0012 014E     		se_mr %r30,%r4
 436              		.loc 1 204 0
 437 0014 1829A800 		e_cmpi %cr1,%r9,0
 438 0018 7A160022 		e_beq %cr1,.L25
 439              		.loc 1 206 0
 440 001c 187F800C 		e_addi %r3,%r31,12
 441              	.LVL45:
 442 0020 01E4     		se_mr %r4,%r30
 443              	.LVL46:
 444 0022 78000001 		e_bl chIQPutI
 445              	.LVL47:
 446 0026 1823A800 		e_cmpi %cr1,%r3,0
 447 002a 7A14002A 		e_blt %cr1,.L26
 448              	.L22:
 449              		.loc 1 208 0
 450 002e C501     		se_lwz %r0,20(%r1)
 451 0030 0090     		se_mtlr %r0
 452              		.cfi_remember_state
 453              		.cfi_restore 65
 454 0032 1BC10808 		e_lmw %r30,8(%r1)
 455              	.LVL48:
 456 0036 20F1     		se_addi %r1,16
GAS LISTING C:\Users\jean\AppData\Local\Temp\ccsnqUbK.s 			page 9


 457              	.LCFI7:
 458              		.cfi_restore 31
 459              		.cfi_restore 30
 460              		.cfi_def_cfa_offset 0
 461 0038 0004     		se_blr
 462              	.LVL49:
 463              	.L25:
 464              	.LCFI8:
 465              		.cfi_restore_state
 466              	.LBB48:
 467              	.LBB49:
 468              		.loc 2 680 0
 469 003a 2033     		se_addi %r3,4
 470              	.LVL50:
 471 003c 4844     		se_li %r4,4
 472              	.LVL51:
 473 003e 78000001 		e_bl chEvtBroadcastFlagsI
 474              	.LVL52:
 475              	.LBE49:
 476              	.LBE48:
 477              		.loc 1 206 0
 478 0042 187F800C 		e_addi %r3,%r31,12
 479 0046 01E4     		se_mr %r4,%r30
 480 0048 78000001 		e_bl chIQPutI
 481              	.LVL53:
 482 004c 1823A800 		e_cmpi %cr1,%r3,0
 483 0050 7A04FFDE 		e_bge %cr1,.L22
 484              	.LVL54:
 485              	.L26:
 486              		.loc 1 208 0
 487 0054 C501     		se_lwz %r0,20(%r1)
 488              	.LBB50:
 489              	.LBB51:
 490              		.loc 2 680 0
 491 0056 187F8004 		e_addi %r3,%r31,4
 492              	.LVL55:
 493 005a 6384     		se_bgeni %r4,24
 494              	.LBE51:
 495              	.LBE50:
 496              		.loc 1 208 0
 497 005c 1BC10808 		e_lmw %r30,8(%r1)
 498              	.LVL56:
 499 0060 0090     		se_mtlr %r0
 500              		.cfi_restore 65
 501 0062 20F1     		se_addi %r1,16
 502              	.LCFI9:
 503              		.cfi_restore 31
 504              		.cfi_restore 30
 505              		.cfi_def_cfa_offset 0
 506              	.LBB53:
 507              	.LBB52:
 508              		.loc 2 680 0
 509 0064 78000000 		e_b chEvtBroadcastFlagsI
 510              	.LVL57:
 511              	.LBE52:
 512              	.LBE53:
 513              		.cfi_endproc
GAS LISTING C:\Users\jean\AppData\Local\Temp\ccsnqUbK.s 			page 10


 514              	.LFE56:
 515              		.size	sdIncomingDataI, .-sdIncomingDataI
 516              		.section	.text.sdRequestDataI,"axv",@progbits
 517              		.align 1
 518              		.p2align 4,,15
 519              		.globl sdRequestDataI
 520              		.type	sdRequestDataI, @function
 521              	sdRequestDataI:
 522              	.LFB57:
 523              		.loc 1 225 0
 524              		.cfi_startproc
 525              	.LVL58:
 526 0000 182106F0 		e_stwu %r1,-16(%r1)
 527              	.LCFI10:
 528              		.cfi_def_cfa_offset 16
 529 0004 0080     		se_mflr %r0
 530 0006 1BC10908 		e_stmw %r30,8(%r1)
 531 000a D501     		se_stw %r0,20(%r1)
 532              		.cfi_offset 65, 4
 533              		.cfi_offset 30, -8
 534              		.cfi_offset 31, -4
 535              		.loc 1 225 0
 536 000c 013F     		se_mr %r31,%r3
 537              		.loc 1 231 0
 538 000e 18638030 		e_addi %r3,%r3,48
 539              	.LVL59:
 540 0012 78000001 		e_bl chOQGetI
 541              	.LVL60:
 542              		.loc 1 232 0
 543 0016 013E     		se_mr %r30,%r3
 544 0018 2A0E     		se_cmpi %r30,0
 545 001a 7A100012 		e_blt %cr0,.L29
 546              		.loc 1 235 0
 547 001e C501     		se_lwz %r0,20(%r1)
 548 0020 0090     		se_mtlr %r0
 549              		.cfi_remember_state
 550              		.cfi_restore 65
 551 0022 01E3     		se_mr %r3,%r30
 552 0024 1BC10808 		e_lmw %r30,8(%r1)
 553              	.LVL61:
 554 0028 20F1     		se_addi %r1,16
 555              	.LCFI11:
 556              		.cfi_restore 31
 557              		.cfi_restore 30
 558              		.cfi_def_cfa_offset 0
 559 002a 0004     		se_blr
 560              	.LVL62:
 561              	.L29:
 562              	.LCFI12:
 563              		.cfi_restore_state
 564              	.LBB54:
 565              	.LBB55:
 566              		.loc 2 680 0
 567 002c 187F8004 		e_addi %r3,%r31,4
 568              	.LVL63:
 569 0030 4884     		se_li %r4,8
 570 0032 78000001 		e_bl chEvtBroadcastFlagsI
GAS LISTING C:\Users\jean\AppData\Local\Temp\ccsnqUbK.s 			page 11


 571              	.LVL64:
 572              	.LBE55:
 573              	.LBE54:
 574              		.loc 1 235 0
 575 0036 C501     		se_lwz %r0,20(%r1)
 576 0038 0090     		se_mtlr %r0
 577              		.cfi_restore 65
 578 003a 01E3     		se_mr %r3,%r30
 579 003c 1BC10808 		e_lmw %r30,8(%r1)
 580              	.LVL65:
 581 0040 20F1     		se_addi %r1,16
 582              	.LCFI13:
 583              		.cfi_restore 30
 584              		.cfi_restore 31
 585              		.cfi_def_cfa_offset 0
 586 0042 0004     		se_blr
 587              		.cfi_endproc
 588              	.LFE57:
 589              		.size	sdRequestDataI, .-sdRequestDataI
 590              		.section	.rodata.vmt,"a",@progbits
 591              		.align 2
 592              		.set	.LANCHOR0,. + 0
 593              		.type	vmt, @object
 594              		.size	vmt, 32
 595              	vmt:
 596 0000 00000000 		.long	write
 597 0004 00000000 		.long	read
 598 0008 00000000 		.long	put
 599 000c 00000000 		.long	get
 600 0010 00000000 		.long	putt
 601 0014 00000000 		.long	gett
 602 0018 00000000 		.long	writet
 603 001c 00000000 		.long	readt
 604              		.section	".text","axv"
 605              	.Letext0:
 606              		.file 4 "c:\\spc5studio\\eclipse\\plugins\\com.st.tools.spc5.tools.gnu.gcc.ppcvle.win32_1.0.0.2016
 607              		.file 5 "c:\\spc5studio\\eclipse\\plugins\\com.st.tools.spc5.tools.gnu.gcc.ppcvle.win32_1.0.0.2016
 608              		.file 6 "c:\\spc5studio\\eclipse\\plugins\\com.st.tools.spc5.tools.gnu.gcc.ppcvle.win32_1.0.0.2016
 609              		.file 7 "./components/chibios_rt_spc560dxx_kernel_port_component/lib/include/chtypes.h"
 610              		.file 8 "./components/chibios_rt_portable_kernel_component/lib/include/chlists.h"
 611              		.file 9 "./components/chibios_rt_portable_kernel_component/lib/include/chthreads.h"
 612              		.file 10 "./components/chibios_rt_spc560dxx_kernel_port_component/lib/include/chcore.h"
 613              		.file 11 "./components/chibios_rt_portable_kernel_component/lib/include/chvt.h"
 614              		.file 12 "./components/chibios_rt_portable_kernel_component/lib/include/chmtx.h"
 615              		.file 13 "./components/chibios_rt_portable_kernel_component/lib/include/chevents.h"
 616              		.file 14 "./components/chibios_rt_portable_kernel_component/lib/include/chqueues.h"
 617              		.file 15 "./components/portable_spc5_hal_component/lib/include/hal_queues.h"
 618              		.file 16 "./components/portable_spc5_hal_component/lib/include/serial.h"
 619              		.file 17 "./components/spc560dxx_hal_drivers_component/lib/include/spc5_linflex.h"
 620              		.file 18 "./components/spc560dxx_hal_drivers_component/lib/include/serial_lld.h"
 621              		.file 19 "./components/chibios_rt_portable_kernel_component/lib/include/chschd.h"