GAS LISTING C:\Users\jean\AppData\Local\Temp\ccCELxuE.s 			page 1


   1              		.file	"shellcmd.c"
   2              		.section	".text","axv"
   3              	.Ltext0:
   4              		.cfi_sections	.debug_frame
   5              		.section	.text.cliGauche,"axv",@progbits
   6              		.align 1
   7              		.p2align 4,,15
   8              		.globl cliGauche
   9              		.type	cliGauche, @function
  10              	cliGauche:
  11              	.LFB57:
  12              		.file 1 "./source/shellcmd.c"
  13              		.loc 1 334 0
  14              		.cfi_startproc
  15              		.loc 1 335 0
  16 0000 71400001 		e_li %r10,1
  17 0004 7120E000 		e_lis %r9,bCliGOn@ha
  18 0008 35490000 		e_stb %r10,bCliGOn@l(%r9)
  19 000c 0004     		se_blr
  20              		.cfi_endproc
  21              	.LFE57:
  22              		.size	cliGauche, .-cliGauche
  23              		.section	.text.cliDroit,"axv",@progbits
  24              		.align 1
  25              		.p2align 4,,15
  26              		.globl cliDroit
  27              		.type	cliDroit, @function
  28              	cliDroit:
  29              	.LFB58:
  30              		.loc 1 338 0
  31              		.cfi_startproc
  32              		.loc 1 339 0
  33 0000 71400001 		e_li %r10,1
  34 0004 7120E000 		e_lis %r9,bCliDOn@ha
  35 0008 35490000 		e_stb %r10,bCliDOn@l(%r9)
  36 000c 0004     		se_blr
  37              		.cfi_endproc
  38              	.LFE58:
  39              		.size	cliDroit, .-cliDroit
  40              		.section	.text.chprintf,"axv",@progbits
  41              		.align 1
  42              		.p2align 4,,15
  43              		.type	chprintf, @function
  44              	chprintf:
  45              	.LFB44:
  46              		.file 2 "./components/chibios_rt_portable_output_formatter_component/lib/include/chprintf.h"
  47              		.loc 2 69 0
  48              		.cfi_startproc
  49              	.LVL0:
  50 0000 182106D0 		e_stwu %r1,-48(%r1)
  51              	.LCFI0:
  52              		.cfi_def_cfa_offset 48
  53 0004 0080     		se_mflr %r0
  54 0006 D651     		se_stw %r5,24(%r1)
  55 0008 DD01     		se_stw %r0,52(%r1)
  56              		.cfi_offset 65, 4
  57              		.loc 2 69 0
GAS LISTING C:\Users\jean\AppData\Local\Temp\ccCELxuE.s 			page 2


  58 000a 55210028 		e_stw %r9,40(%r1)
  59 000e D761     		se_stw %r6,28(%r1)
  60 0010 D871     		se_stw %r7,32(%r1)
  61 0012 55010024 		e_stw %r8,36(%r1)
  62 0016 5541002C 		e_stw %r10,44(%r1)
  63              		.loc 2 72 0
  64 001a 71200002 		e_li %r9,2
  65              		.loc 2 73 0
  66 001e 18A18008 		e_addi %r5,%r1,8
  67              		.loc 2 72 0
  68 0022 35210008 		e_stb %r9,8(%r1)
  69 0026 71200000 		e_li %r9,0
  70 002a 35210009 		e_stb %r9,9(%r1)
  71 002e 19218038 		e_addi %r9,%r1,56
  72 0032 5521000C 		e_stw %r9,12(%r1)
  73 0036 19218010 		e_addi %r9,%r1,16
  74 003a 55210010 		e_stw %r9,16(%r1)
  75              		.loc 2 73 0
  76 003e 78000001 		e_bl chvprintf
  77              	.LVL1:
  78              		.loc 2 75 0
  79 0042 CD01     		se_lwz %r0,52(%r1)
  80 0044 0090     		se_mtlr %r0
  81              		.cfi_restore 65
  82 0046 18218030 		e_addi %r1,%r1,48
  83              	.LCFI1:
  84              		.cfi_def_cfa_offset 0
  85 004a 0004     		se_blr
  86              		.cfi_endproc
  87              	.LFE44:
  88              		.size	chprintf, .-chprintf
  89              		.section	.text.stopdemo,"axv",@progbits
  90              		.align 1
  91              		.p2align 4,,15
  92              		.globl stopdemo
  93              		.type	stopdemo, @function
  94              	stopdemo:
  95              	.LFB61:
  96              		.loc 1 393 0
  97              		.cfi_startproc
  98              	.LVL2:
  99              		.loc 1 396 0
 100 0000 2A04     		se_cmpi %r4,0
 101 0002 7A02000E 		e_bne %cr0,.L7
 102              		.loc 1 401 0
 103 0006 7120E000 		e_lis %r9,.LANCHOR0@ha
 104 000a 34890000 		e_stb %r4,.LANCHOR0@l(%r9)
 105 000e 0004     		se_blr
 106              	.L7:
 107              		.loc 1 397 0
 108 0010 7080E000 		e_lis %r4,.LC0@ha
 109              	.LVL3:
 110              		.loc 1 402 0
 111              		.loc 1 397 0
 112 0014 1C840000 		e_la %r4,.LC0@l(%r4)
 113 0018 78000000 		e_b chprintf
 114              	.LVL4:
GAS LISTING C:\Users\jean\AppData\Local\Temp\ccCELxuE.s 			page 3


 115              		.cfi_endproc
 116              	.LFE61:
 117              		.size	stopdemo, .-stopdemo
 118              		.section	.text.conduire,"axv",@progbits
 119              		.align 1
 120              		.p2align 4,,15
 121              		.globl conduire
 122              		.type	conduire, @function
 123              	conduire:
 124              	.LFB54:
 125              		.loc 1 276 0
 126              		.cfi_startproc
 127 0000 182106F8 		e_stwu %r1,-8(%r1)
 128              	.LCFI2:
 129              		.cfi_def_cfa_offset 8
 130 0004 0080     		se_mflr %r0
 131              		.loc 1 278 0
 132 0006 708003E8 		e_li %r4,1000
 133              		.loc 1 276 0
 134 000a D301     		se_stw %r0,12(%r1)
 135              		.cfi_offset 65, 4
 136              		.loc 1 278 0
 137 000c 4813     		se_li %r3,1
 138 000e 78000001 		e_bl drivecmd
 139              	.LVL5:
 140              		.loc 1 279 0
 141 0012 706001F4 		e_li %r3,500
 142 0016 78000001 		e_bl chThdSleep
 143              	.LVL6:
 144              		.loc 1 280 0
 145 001a 4813     		se_li %r3,1
 146 001c 78000001 		e_bl turncmd
 147              	.LVL7:
 148              		.loc 1 281 0
 149 0020 706003E8 		e_li %r3,1000
 150 0024 78000001 		e_bl chThdSleep
 151              	.LVL8:
 152              		.loc 1 282 0
 153 0028 4813     		se_li %r3,1
 154 002a 70820388 		e_li %r4,5000
 155 002e 78000001 		e_bl drivecmd
 156              	.LVL9:
 157              		.loc 1 283 0
 158 0032 706003E8 		e_li %r3,1000
 159 0036 78000001 		e_bl chThdSleep
 160              	.LVL10:
 161              		.loc 1 285 0
 162 003a C301     		se_lwz %r0,12(%r1)
 163              		.loc 1 284 0
 164 003c 4803     		se_li %r3,0
 165              		.loc 1 285 0
 166 003e 0090     		se_mtlr %r0
 167              		.cfi_restore 65
 168 0040 2071     		se_addi %r1,8
 169              	.LCFI3:
 170              		.cfi_def_cfa_offset 0
 171              		.loc 1 284 0
GAS LISTING C:\Users\jean\AppData\Local\Temp\ccCELxuE.s 			page 4


 172 0042 78000000 		e_b turncmd
 173              	.LVL11:
 174              		.cfi_endproc
 175              	.LFE54:
 176              		.size	conduire, .-conduire
 177              		.section	.text.ThreadFullDemo,"axv",@progbits
 178              		.align 1
 179              		.p2align 4,,15
 180              		.type	ThreadFullDemo, @function
 181              	ThreadFullDemo:
 182              	.LFB47:
 183              		.loc 1 69 0
 184              		.cfi_startproc
 185              	.LVL12:
 186 0000 182106E8 		e_stwu %r1,-24(%r1)
 187              	.LCFI4:
 188              		.cfi_def_cfa_offset 24
 189              		.loc 1 71 0
 190 0004 7120E000 		e_lis %r9,rlist+24@ha
 191              		.loc 1 69 0
 192 0008 1B810908 		e_stmw %r28,8(%r1)
 193              		.loc 1 71 0
 194 000c 51490000 		e_lwz %r10,rlist+24@l(%r9)
 195              		.loc 1 69 0
 196 0010 0080     		se_mflr %r0
 197              		.cfi_offset 28, -16
 198              		.cfi_offset 29, -12
 199              		.cfi_offset 30, -8
 200              		.cfi_offset 31, -4
 201              		.cfi_register 65, 0
 202              		.loc 1 73 0
 203 0012 73E0E000 		e_lis %r31,.LANCHOR0@ha
 204              		.loc 1 69 0
 205 0016 D701     		se_stw %r0,28(%r1)
 206              		.cfi_offset 65, 4
 207              		.loc 1 71 0
 208 0018 7120E000 		e_lis %r9,.LC1@ha
 209 001c 1D290000 		e_la %r9,.LC1@l(%r9)
 210 0020 552A0018 		e_stw %r9,24(%r10)
 211              		.loc 1 73 0
 212 0024 313F0000 		e_lbz %r9,.LANCHOR0@l(%r31)
 213 0028 1829A800 		e_cmpi %cr1,%r9,0
 214 002c 7A1600CA 		e_beq %cr1,.L11
 215              		.loc 1 133 0
 216 0030 73C0E000 		e_lis %r30,bLightOn@ha
 217 0034 1FFF0000 		e_la %r31,.LANCHOR0@l(%r31)
 218 0038 1FDE0000 		e_la %r30,bLightOn@l(%r30)
 219 003c 481C     		se_li %r28,1
 220              		.loc 1 140 0
 221 003e 480D     		se_li %r29,0
 222 0040 78000098 		e_b .L10
 223              	.LVL13:
 224              	.L32:
 225              		.loc 1 87 0
 226 0044 70820388 		e_li %r4,5000
 227 0048 4823     		se_li %r3,2
 228 004a 78000001 		e_bl drivecmd
GAS LISTING C:\Users\jean\AppData\Local\Temp\ccCELxuE.s 			page 5


 229              	.LVL14:
 230              		.loc 1 91 0
 231 004e 70620388 		e_li %r3,5000
 232 0052 78000001 		e_bl chThdSleep
 233              	.LVL15:
 234              		.loc 1 94 0
 235 0056 313F0000 		e_lbz %r9,0(%r31)
 236 005a 1829A800 		e_cmpi %cr1,%r9,0
 237 005e 7A1600AC 		e_beq %cr1,.L13
 238              		.loc 1 95 0
 239 0062 4813     		se_li %r3,1
 240 0064 78000001 		e_bl turncmd
 241              	.LVL16:
 242              		.loc 1 101 0
 243 0068 70620388 		e_li %r3,5000
 244 006c 78000001 		e_bl chThdSleep
 245              	.LVL17:
 246              		.loc 1 104 0
 247 0070 313F0000 		e_lbz %r9,0(%r31)
 248 0074 1829A800 		e_cmpi %cr1,%r9,0
 249 0078 7A160092 		e_beq %cr1,.L13
 250              		.loc 1 105 0
 251 007c 4823     		se_li %r3,2
 252 007e 78000001 		e_bl turncmd
 253              	.LVL18:
 254              		.loc 1 111 0
 255 0082 70620388 		e_li %r3,5000
 256 0086 78000001 		e_bl chThdSleep
 257              	.LVL19:
 258              		.loc 1 114 0
 259 008a 313F0000 		e_lbz %r9,0(%r31)
 260 008e 1829A800 		e_cmpi %cr1,%r9,0
 261 0092 7A160078 		e_beq %cr1,.L13
 262              		.loc 1 115 0
 263 0096 4803     		se_li %r3,0
 264 0098 78000001 		e_bl turncmd
 265              	.LVL20:
 266              		.loc 1 121 0
 267 009c 70620388 		e_li %r3,5000
 268 00a0 78000001 		e_bl chThdSleep
 269              	.LVL21:
 270              		.loc 1 124 0
 271 00a4 313F0000 		e_lbz %r9,0(%r31)
 272 00a8 1829A800 		e_cmpi %cr1,%r9,0
 273 00ac 7A16005E 		e_beq %cr1,.L13
 274              		.loc 1 125 0
 275 00b0 78000001 		e_bl stopcmd
 276              	.LVL22:
 277              		.loc 1 132 0
 278 00b4 313F0000 		e_lbz %r9,0(%r31)
 279 00b8 1829A800 		e_cmpi %cr1,%r9,0
 280 00bc 7A16004E 		e_beq %cr1,.L13
 281              		.loc 1 133 0
 282 00c0 90CE     		se_stb %r28,0(%r30)
 283              		.loc 1 139 0
 284 00c2 70690620 		e_li %r3,20000
 285 00c6 78000001 		e_bl chThdSleep
GAS LISTING C:\Users\jean\AppData\Local\Temp\ccCELxuE.s 			page 6


 286              	.LVL23:
 287              		.loc 1 73 0
 288 00ca 313F0000 		e_lbz %r9,0(%r31)
 289              		.loc 1 140 0
 290 00ce 90DE     		se_stb %r29,0(%r30)
 291              		.loc 1 73 0
 292 00d0 1829A800 		e_cmpi %cr1,%r9,0
 293 00d4 7A160022 		e_beq %cr1,.L11
 294              	.L10:
 295              		.loc 1 77 0
 296 00d8 70820388 		e_li %r4,5000
 297 00dc 4813     		se_li %r3,1
 298 00de 78000001 		e_bl drivecmd
 299              	.LVL24:
 300              		.loc 1 83 0
 301 00e2 70620388 		e_li %r3,5000
 302 00e6 78000001 		e_bl chThdSleep
 303              	.LVL25:
 304              		.loc 1 86 0
 305 00ea 313F0000 		e_lbz %r9,0(%r31)
 306 00ee 1829A800 		e_cmpi %cr1,%r9,0
 307 00f2 7A06FF52 		e_bne %cr1,.L32
 308              	.L11:
 309              		.loc 1 143 0
 310 00f6 4803     		se_li %r3,0
 311 00f8 78000001 		e_bl chThdExit
 312              	.LVL26:
 313              		.loc 1 146 0
 314 00fc C701     		se_lwz %r0,28(%r1)
 315 00fe 0090     		se_mtlr %r0
 316              		.cfi_remember_state
 317              		.cfi_restore 65
 318 0100 1B810808 		e_lmw %r28,8(%r1)
 319 0104 4803     		se_li %r3,0
 320 0106 2171     		se_addi %r1,24
 321              	.LCFI5:
 322              		.cfi_restore 31
 323              		.cfi_restore 30
 324              		.cfi_restore 29
 325              		.cfi_restore 28
 326              		.cfi_def_cfa_offset 0
 327 0108 0004     		se_blr
 328              	.L13:
 329              	.LCFI6:
 330              		.cfi_restore_state
 331              		.loc 1 97 0
 332 010a 78000001 		e_bl stopcmd
 333              	.LVL27:
 334              		.loc 1 143 0
 335 010e 4803     		se_li %r3,0
 336 0110 78000001 		e_bl chThdExit
 337              	.LVL28:
 338              		.loc 1 146 0
 339 0114 C701     		se_lwz %r0,28(%r1)
 340 0116 0090     		se_mtlr %r0
 341              		.cfi_restore 65
 342 0118 1B810808 		e_lmw %r28,8(%r1)
GAS LISTING C:\Users\jean\AppData\Local\Temp\ccCELxuE.s 			page 7


 343 011c 4803     		se_li %r3,0
 344 011e 2171     		se_addi %r1,24
 345              	.LCFI7:
 346              		.cfi_restore 28
 347              		.cfi_restore 29
 348              		.cfi_restore 30
 349              		.cfi_restore 31
 350              		.cfi_def_cfa_offset 0
 351 0120 0004     		se_blr
 352              		.cfi_endproc
 353              	.LFE47:
 354              		.size	ThreadFullDemo, .-ThreadFullDemo
 355              		.section	.text.cmd_mem,"axv",@progbits
 356              		.align 1
 357              		.p2align 4,,15
 358              		.globl cmd_mem
 359              		.type	cmd_mem, @function
 360              	cmd_mem:
 361              	.LFB48:
 362              		.loc 1 151 0
 363              		.cfi_startproc
 364              	.LVL29:
 365 0000 182106E0 		e_stwu %r1,-32(%r1)
 366              	.LCFI8:
 367              		.cfi_def_cfa_offset 32
 368 0004 0080     		se_mflr %r0
 369 0006 1BC10918 		e_stmw %r30,24(%r1)
 370 000a D901     		se_stw %r0,36(%r1)
 371              		.cfi_offset 65, 4
 372              		.cfi_offset 30, -8
 373              		.cfi_offset 31, -4
 374              		.loc 1 151 0
 375 000c 013F     		se_mr %r31,%r3
 376              		.loc 1 155 0
 377 000e 1824A800 		e_cmpi %cr1,%r4,0
 378 0012 7A05001C 		e_ble %cr1,.L34
 379              		.loc 1 156 0
 380 0016 7080E000 		e_lis %r4,.LC2@ha
 381              	.LVL30:
 382 001a 1C840000 		e_la %r4,.LC2@l(%r4)
 383 001e 78000001 		e_bl chprintf
 384              	.LVL31:
 385              		.loc 1 163 0
 386 0022 C901     		se_lwz %r0,36(%r1)
 387 0024 0090     		se_mtlr %r0
 388              		.cfi_remember_state
 389              		.cfi_restore 65
 390 0026 1BC10818 		e_lmw %r30,24(%r1)
 391              	.LVL32:
 392 002a 21F1     		se_addi %r1,32
 393              	.LCFI9:
 394              		.cfi_restore 31
 395              		.cfi_restore 30
 396              		.cfi_def_cfa_offset 0
 397 002c 0004     		se_blr
 398              	.LVL33:
 399              	.L34:
GAS LISTING C:\Users\jean\AppData\Local\Temp\ccCELxuE.s 			page 8


 400              	.LCFI10:
 401              		.cfi_restore_state
 402              	.LBB4:
 403              	.LBB5:
 404              		.loc 1 159 0
 405 002e 18818008 		e_addi %r4,%r1,8
 406              	.LVL34:
 407 0032 4803     		se_li %r3,0
 408              	.LVL35:
 409 0034 78000001 		e_bl chHeapStatus
 410              	.LVL36:
 411 0038 013E     		se_mr %r30,%r3
 412              	.LVL37:
 413              		.loc 1 160 0
 414 003a 78000001 		e_bl chCoreStatus
 415              	.LVL38:
 416 003e 7080E000 		e_lis %r4,.LC3@ha
 417 0042 0135     		se_mr %r5,%r3
 418 0044 1C840000 		e_la %r4,.LC3@l(%r4)
 419 0048 01F3     		se_mr %r3,%r31
 420 004a 78000001 		e_bl chprintf
 421              	.LVL39:
 422              		.loc 1 161 0
 423 004e 01F3     		se_mr %r3,%r31
 424 0050 01E5     		se_mr %r5,%r30
 425 0052 7080E000 		e_lis %r4,.LC4@ha
 426 0056 1C840000 		e_la %r4,.LC4@l(%r4)
 427 005a 78000001 		e_bl chprintf
 428              	.LVL40:
 429              		.loc 1 162 0
 430 005e 01F3     		se_mr %r3,%r31
 431 0060 C251     		se_lwz %r5,8(%r1)
 432 0062 7080E000 		e_lis %r4,.LC5@ha
 433 0066 1C840000 		e_la %r4,.LC5@l(%r4)
 434 006a 78000001 		e_bl chprintf
 435              	.LVL41:
 436              	.LBE5:
 437              	.LBE4:
 438              		.loc 1 163 0
 439 006e C901     		se_lwz %r0,36(%r1)
 440 0070 0090     		se_mtlr %r0
 441              		.cfi_restore 65
 442 0072 1BC10818 		e_lmw %r30,24(%r1)
 443              	.LVL42:
 444 0076 21F1     		se_addi %r1,32
 445              	.LCFI11:
 446              		.cfi_restore 30
 447              		.cfi_restore 31
 448              		.cfi_def_cfa_offset 0
 449 0078 0004     		se_blr
 450              		.cfi_endproc
 451              	.LFE48:
 452              		.size	cmd_mem, .-cmd_mem
 453              		.section	.text.stopgps,"axv",@progbits
 454              		.align 1
 455              		.p2align 4,,15
 456              		.globl stopgps
GAS LISTING C:\Users\jean\AppData\Local\Temp\ccCELxuE.s 			page 9


 457              		.type	stopgps, @function
 458              	stopgps:
 459              	.LFB52:
 460              		.loc 1 236 0
 461              		.cfi_startproc
 462              	.LVL43:
 463 0000 182106F0 		e_stwu %r1,-16(%r1)
 464              	.LCFI12:
 465              		.cfi_def_cfa_offset 16
 466 0004 0080     		se_mflr %r0
 467 0006 1BC10908 		e_stmw %r30,8(%r1)
 468 000a D501     		se_stw %r0,20(%r1)
 469              		.cfi_offset 65, 4
 470              		.cfi_offset 30, -8
 471              		.cfi_offset 31, -4
 472              		.loc 1 239 0
 473 000c 1824A800 		e_cmpi %cr1,%r4,0
 474 0010 7A150020 		e_bgt %cr1,.L45
 475              	.LVL44:
 476              	.LBB8:
 477              	.LBB9:
 478              		.loc 1 247 0
 479 0014 73E0E000 		e_lis %r31,bGpsRunning@ha
 480 0018 313F0000 		e_lbz %r9,bGpsRunning@l(%r31)
 481 001c 1829A800 		e_cmpi %cr1,%r9,0
 482 0020 7A060026 		e_bne %cr1,.L46
 483              	.LVL45:
 484              	.L36:
 485              	.LBE9:
 486              	.LBE8:
 487              		.loc 1 254 0
 488 0024 C501     		se_lwz %r0,20(%r1)
 489 0026 0090     		se_mtlr %r0
 490              		.cfi_remember_state
 491              		.cfi_restore 65
 492 0028 1BC10808 		e_lmw %r30,8(%r1)
 493 002c 20F1     		se_addi %r1,16
 494              	.LCFI13:
 495              		.cfi_restore 31
 496              		.cfi_restore 30
 497              		.cfi_def_cfa_offset 0
 498 002e 0004     		se_blr
 499              	.LVL46:
 500              	.L45:
 501              	.LCFI14:
 502              		.cfi_restore_state
 503 0030 C501     		se_lwz %r0,20(%r1)
 504 0032 1BC10808 		e_lmw %r30,8(%r1)
 505              		.loc 1 240 0
 506 0036 7080E000 		e_lis %r4,.LC6@ha
 507              	.LVL47:
 508              		.loc 1 254 0
 509              		.loc 1 240 0
 510 003a 1C840000 		e_la %r4,.LC6@l(%r4)
 511              		.loc 1 254 0
 512 003e 0090     		se_mtlr %r0
 513              		.cfi_remember_state
GAS LISTING C:\Users\jean\AppData\Local\Temp\ccCELxuE.s 			page 10


 514              		.cfi_restore 65
 515 0040 20F1     		se_addi %r1,16
 516              	.LCFI15:
 517              		.cfi_restore 31
 518              		.cfi_restore 30
 519              		.cfi_def_cfa_offset 0
 520              	.LBB14:
 521              	.LBB10:
 522              		.loc 1 252 0
 523 0042 78000000 		e_b chprintf
 524              	.LVL48:
 525              	.L46:
 526              	.LCFI16:
 527              		.cfi_restore_state
 528              		.loc 1 248 0
 529 0046 71200000 		e_li %r9,0
 530 004a 013E     		se_mr %r30,%r3
 531 004c 353F0000 		e_stb %r9,bGpsRunning@l(%r31)
 532              		.loc 1 249 0
 533 0050 7080E000 		e_lis %r4,.LC7@ha
 534              	.LVL49:
 535 0054 1C840000 		e_la %r4,.LC7@l(%r4)
 536 0058 78000001 		e_bl chprintf
 537              	.LVL50:
 538              		.loc 1 251 0
 539 005c 313F0000 		e_lbz %r9,bGpsRunning@l(%r31)
 540 0060 1829A800 		e_cmpi %cr1,%r9,0
 541 0064 7A16FFC0 		e_beq %cr1,.L36
 542              	.LBE10:
 543              	.LBE14:
 544              		.loc 1 254 0
 545 0068 C501     		se_lwz %r0,20(%r1)
 546              	.LBB15:
 547              	.LBB11:
 548              		.loc 1 252 0
 549 006a 01E3     		se_mr %r3,%r30
 550 006c 7080E000 		e_lis %r4,.LC8@ha
 551              	.LBE11:
 552              	.LBE15:
 553              		.loc 1 254 0
 554 0070 1BC10808 		e_lmw %r30,8(%r1)
 555              	.LVL51:
 556              	.LBB16:
 557              	.LBB12:
 558              		.loc 1 252 0
 559 0074 1C840000 		e_la %r4,.LC8@l(%r4)
 560              	.LBE12:
 561              	.LBE16:
 562              		.loc 1 254 0
 563 0078 0090     		se_mtlr %r0
 564              		.cfi_restore 65
 565 007a 20F1     		se_addi %r1,16
 566              	.LCFI17:
 567              		.cfi_restore 30
 568              		.cfi_restore 31
 569              		.cfi_def_cfa_offset 0
 570              	.LBB17:
GAS LISTING C:\Users\jean\AppData\Local\Temp\ccCELxuE.s 			page 11


 571              	.LBB13:
 572              		.loc 1 252 0
 573 007c 78000000 		e_b chprintf
 574              	.LVL52:
 575              	.LBE13:
 576              	.LBE17:
 577              		.cfi_endproc
 578              	.LFE52:
 579              		.size	stopgps, .-stopgps
 580              		.section	.text.speed,"axv",@progbits
 581              		.align 1
 582              		.p2align 4,,15
 583              		.globl speed
 584              		.type	speed, @function
 585              	speed:
 586              	.LFB53:
 587              		.loc 1 259 0
 588              		.cfi_startproc
 589              	.LVL53:
 590              		.loc 1 262 0
 591 0000 1824A800 		e_cmpi %cr1,%r4,0
 592 0004 7A050010 		e_ble %cr1,.L48
 593              		.loc 1 263 0
 594 0008 7080E000 		e_lis %r4,.LC9@ha
 595              	.LVL54:
 596              		.loc 1 271 0
 597              		.loc 1 263 0
 598 000c 1C840000 		e_la %r4,.LC9@l(%r4)
 599 0010 78000000 		e_b chprintf
 600              	.LVL55:
 601              	.L48:
 602              	.LBB20:
 603              	.LBB21:
 604              		.loc 1 270 0
 605 0014 7080E000 		e_lis %r4,.LC10@ha
 606              	.LVL56:
 607 0018 7120E000 		e_lis %r9,counter@ha
 608 001c 1C840000 		e_la %r4,.LC10@l(%r4)
 609 0020 50A90000 		e_lwz %r5,counter@l(%r9)
 610              	.LVL57:
 611              	.LBE21:
 612              	.LBE20:
 613              		.loc 1 271 0
 614              	.LBB23:
 615              	.LBB22:
 616              		.loc 1 270 0
 617 0024 78000000 		e_b chprintf
 618              	.LVL58:
 619              	.LBE22:
 620              	.LBE23:
 621              		.cfi_endproc
 622              	.LFE53:
 623              		.size	speed, .-speed
 624              		.section	.text.cmd_threads,"axv",@progbits
 625              		.align 1
 626              		.p2align 4,,15
 627              		.globl cmd_threads
GAS LISTING C:\Users\jean\AppData\Local\Temp\ccCELxuE.s 			page 12


 628              		.type	cmd_threads, @function
 629              	cmd_threads:
 630              	.LFB49:
 631              		.loc 1 168 0
 632              		.cfi_startproc
 633              	.LVL59:
 634 0000 182106E8 		e_stwu %r1,-24(%r1)
 635              	.LCFI18:
 636              		.cfi_def_cfa_offset 24
 637 0004 0080     		se_mflr %r0
 638 0006 1B810908 		e_stmw %r28,8(%r1)
 639 000a D701     		se_stw %r0,28(%r1)
 640              		.cfi_offset 65, 4
 641              		.cfi_offset 28, -16
 642              		.cfi_offset 29, -12
 643              		.cfi_offset 30, -8
 644              		.cfi_offset 31, -4
 645              		.loc 1 168 0
 646 000c 013E     		se_mr %r30,%r3
 647              		.loc 1 173 0
 648 000e 1824A800 		e_cmpi %cr1,%r4,0
 649 0012 7A05001A 		e_ble %cr1,.L50
 650              		.loc 1 186 0
 651 0016 C701     		se_lwz %r0,28(%r1)
 652 0018 1B810808 		e_lmw %r28,8(%r1)
 653              		.loc 1 174 0
 654 001c 7080E000 		e_lis %r4,.LC11@ha
 655              	.LVL60:
 656              		.loc 1 186 0
 657              		.loc 1 174 0
 658 0020 1C840000 		e_la %r4,.LC11@l(%r4)
 659              		.loc 1 186 0
 660 0024 0090     		se_mtlr %r0
 661              		.cfi_remember_state
 662              		.cfi_restore 65
 663 0026 2171     		se_addi %r1,24
 664              	.LCFI19:
 665              		.cfi_restore 31
 666              		.cfi_restore 30
 667              		.cfi_restore 29
 668              		.cfi_restore 28
 669              		.cfi_def_cfa_offset 0
 670              		.loc 1 174 0
 671 0028 78000000 		e_b chprintf
 672              	.LVL61:
 673              	.L50:
 674              	.LCFI20:
 675              		.cfi_restore_state
 676              	.LBB26:
 677              	.LBB27:
 678              		.loc 1 177 0
 679 002c 7080E000 		e_lis %r4,.LC12@ha
 680              	.LVL62:
 681 0030 7380E000 		e_lis %r28,.LC13@ha
 682 0034 1C840000 		e_la %r4,.LC12@l(%r4)
 683 0038 73A0E000 		e_lis %r29,.LANCHOR1@ha
 684 003c 78000001 		e_bl chprintf
GAS LISTING C:\Users\jean\AppData\Local\Temp\ccCELxuE.s 			page 13


 685              	.LVL63:
 686 0040 1F9C0000 		e_la %r28,.LC13@l(%r28)
 687              		.loc 1 178 0
 688 0044 78000001 		e_bl chRegFirstThread
 689              	.LVL64:
 690 0048 1FBD0000 		e_la %r29,.LANCHOR1@l(%r29)
 691 004c 013F     		se_mr %r31,%r3
 692              	.LVL65:
 693              	.L51:
 694              		.loc 1 180 0
 695 004e 515F0020 		e_lwz %r10,32(%r31)
 696              		.loc 1 182 0
 697 0052 311F001E 		e_lbz %r8,30(%r31)
 698              		.loc 1 180 0
 699 0056 313F001C 		e_lbz %r9,28(%r31)
 700 005a 01F5     		se_mr %r5,%r31
 701 005c C36F     		se_lwz %r6,12(%r31)
 702 005e C27F     		se_lwz %r7,8(%r31)
 703 0060 01E3     		se_mr %r3,%r30
 704              	.LVL66:
 705 0062 01C4     		se_mr %r4,%r28
 706 0064 190884FF 		e_addi %r8,%r8,-1
 707 0068 7D291070 		e_slwi %r9,%r9,2
 708 006c 7D3D482E 		lwzx %r9,%r29,%r9
 709 0070 78000001 		e_bl chprintf
 710              	.LVL67:
 711              		.loc 1 184 0
 712 0074 01F3     		se_mr %r3,%r31
 713 0076 78000001 		e_bl chRegNextThread
 714              	.LVL68:
 715              		.loc 1 185 0
 716 007a 013F     		se_mr %r31,%r3
 717 007c 2A0F     		se_cmpi %r31,0
 718 007e 7A02FFD0 		e_bne %cr0,.L51
 719              	.LBE27:
 720              	.LBE26:
 721              		.loc 1 186 0
 722 0082 C701     		se_lwz %r0,28(%r1)
 723 0084 0090     		se_mtlr %r0
 724              		.cfi_restore 65
 725 0086 1B810808 		e_lmw %r28,8(%r1)
 726              	.LVL69:
 727 008a 2171     		se_addi %r1,24
 728              	.LCFI21:
 729              		.cfi_restore 31
 730              		.cfi_restore 30
 731              		.cfi_restore 29
 732              		.cfi_restore 28
 733              		.cfi_def_cfa_offset 0
 734 008c 0004     		se_blr
 735              		.cfi_endproc
 736              	.LFE49:
 737              		.size	cmd_threads, .-cmd_threads
 738              		.section	.text.startgps,"axv",@progbits
 739              		.align 1
 740              		.p2align 4,,15
 741              		.globl startgps
GAS LISTING C:\Users\jean\AppData\Local\Temp\ccCELxuE.s 			page 14


 742              		.type	startgps, @function
 743              	startgps:
 744              	.LFB51:
 745              		.loc 1 211 0
 746              		.cfi_startproc
 747              	.LVL70:
 748 0000 182106F8 		e_stwu %r1,-8(%r1)
 749              	.LCFI22:
 750              		.cfi_def_cfa_offset 8
 751 0004 0080     		se_mflr %r0
 752              		.loc 1 214 0
 753 0006 1824A800 		e_cmpi %cr1,%r4,0
 754              		.loc 1 211 0
 755 000a D301     		se_stw %r0,12(%r1)
 756              		.cfi_offset 65, 4
 757              		.loc 1 214 0
 758 000c 7A15006C 		e_bgt %cr1,.L59
 759              		.loc 1 222 0
 760 0010 7140E000 		e_lis %r10,bGpsRunning@ha
 761 0014 312A0000 		e_lbz %r9,bGpsRunning@l(%r10)
 762 0018 1829A800 		e_cmpi %cr1,%r9,0
 763 001c 7A160016 		e_beq %cr1,.L60
 764              		.loc 1 231 0
 765 0020 C301     		se_lwz %r0,12(%r1)
 766              		.loc 1 229 0
 767 0022 7080E000 		e_lis %r4,.LC16@ha
 768              	.LVL71:
 769              		.loc 1 231 0
 770              		.loc 1 229 0
 771 0026 1C840000 		e_la %r4,.LC16@l(%r4)
 772              		.loc 1 231 0
 773 002a 0090     		se_mtlr %r0
 774              		.cfi_remember_state
 775              		.cfi_restore 65
 776 002c 2071     		se_addi %r1,8
 777              	.LCFI23:
 778              		.cfi_def_cfa_offset 0
 779              		.loc 1 229 0
 780 002e 78000000 		e_b chprintf
 781              	.LVL72:
 782              	.L60:
 783              	.LCFI24:
 784              		.cfi_restore_state
 785              	.LBB30:
 786              	.LBB31:
 787              		.loc 1 223 0
 788 0032 71200001 		e_li %r9,1
 789              		.loc 1 224 0
 790 0036 7080E000 		e_lis %r4,.LC15@ha
 791              	.LVL73:
 792              		.loc 1 223 0
 793 003a 352A0000 		e_stb %r9,bGpsRunning@l(%r10)
 794              		.loc 1 224 0
 795 003e 1C840000 		e_la %r4,.LC15@l(%r4)
 796 0042 78000001 		e_bl chprintf
 797              	.LVL74:
 798              		.loc 1 225 0
GAS LISTING C:\Users\jean\AppData\Local\Temp\ccCELxuE.s 			page 15


 799 0046 7060E000 		e_lis %r3,waThreadGPS@ha
 800 004a 70800268 		e_li %r4,616
 801 004e 1C630000 		e_la %r3,waThreadGPS@l(%r3)
 802 0052 4C05     		se_li %r5,64
 803 0054 70C0E000 		e_lis %r6,ThreadGPS@ha
 804 0058 70E0E000 		e_lis %r7,SD2@ha
 805 005c 1CC60000 		e_la %r6,ThreadGPS@l(%r6)
 806 0060 1CE70000 		e_la %r7,SD2@l(%r7)
 807 0064 78000001 		e_bl chThdCreateStatic
 808              	.LVL75:
 809              	.LBE31:
 810              	.LBE30:
 811              		.loc 1 231 0
 812 0068 C301     		se_lwz %r0,12(%r1)
 813 006a 0090     		se_mtlr %r0
 814              		.cfi_remember_state
 815              		.cfi_restore 65
 816              	.LBB34:
 817              	.LBB32:
 818              		.loc 1 225 0
 819 006c 7120E000 		e_lis %r9,tpgps@ha
 820              	.LBE32:
 821              	.LBE34:
 822              		.loc 1 231 0
 823              	.LBB35:
 824              	.LBB33:
 825              		.loc 1 225 0
 826 0070 54690000 		e_stw %r3,tpgps@l(%r9)
 827              	.LBE33:
 828              	.LBE35:
 829              		.loc 1 231 0
 830 0074 2071     		se_addi %r1,8
 831              	.LCFI25:
 832              		.cfi_def_cfa_offset 0
 833 0076 0004     		se_blr
 834              	.LVL76:
 835              	.L59:
 836              	.LCFI26:
 837              		.cfi_restore_state
 838 0078 C301     		se_lwz %r0,12(%r1)
 839              		.loc 1 215 0
 840 007a 7080E000 		e_lis %r4,.LC14@ha
 841              	.LVL77:
 842              		.loc 1 231 0
 843              		.loc 1 215 0
 844 007e 1C840000 		e_la %r4,.LC14@l(%r4)
 845              		.loc 1 231 0
 846 0082 0090     		se_mtlr %r0
 847              		.cfi_restore 65
 848 0084 2071     		se_addi %r1,8
 849              	.LCFI27:
 850              		.cfi_def_cfa_offset 0
 851              		.loc 1 229 0
 852 0086 78000000 		e_b chprintf
 853              	.LVL78:
 854              		.cfi_endproc
 855              	.LFE51:
GAS LISTING C:\Users\jean\AppData\Local\Temp\ccCELxuE.s 			page 16


 856              		.size	startgps, .-startgps
 857              		.section	.text.startdemo,"axv",@progbits
 858              		.align 1
 859              		.p2align 4,,15
 860              		.globl startdemo
 861              		.type	startdemo, @function
 862              	startdemo:
 863              	.LFB60:
 864              		.loc 1 368 0
 865              		.cfi_startproc
 866              	.LVL79:
 867              		.loc 1 368 0
 868 0000 0137     		se_mr %r7,%r3
 869              		.loc 1 371 0
 870 0002 1824A800 		e_cmpi %cr1,%r4,0
 871 0006 7A060042 		e_bne %cr1,.L64
 872              		.loc 1 376 0
 873 000a 7140E000 		e_lis %r10,.LANCHOR0@ha
 874 000e 312A0000 		e_lbz %r9,.LANCHOR0@l(%r10)
 875 0012 1829A800 		e_cmpi %cr1,%r9,0
 876 0016 7A160010 		e_beq %cr1,.L65
 877              		.loc 1 385 0
 878 001a 7080E000 		e_lis %r4,.LC18@ha
 879              	.LVL80:
 880              		.loc 1 388 0
 881              		.loc 1 385 0
 882 001e 1C840000 		e_la %r4,.LC18@l(%r4)
 883 0022 78000000 		e_b chprintf
 884              	.LVL81:
 885              	.L65:
 886              	.LBB38:
 887              	.LBB39:
 888              		.loc 1 377 0
 889 0026 71200001 		e_li %r9,1
 890              		.loc 1 381 0
 891 002a 7060E000 		e_lis %r3,.LANCHOR2@ha
 892              	.LVL82:
 893 002e 70C0E000 		e_lis %r6,ThreadFullDemo@ha
 894              		.loc 1 377 0
 895 0032 352A0000 		e_stb %r9,.LANCHOR0@l(%r10)
 896              		.loc 1 381 0
 897 0036 1C630000 		e_la %r3,.LANCHOR2@l(%r3)
 898 003a 70800268 		e_li %r4,616
 899              	.LVL83:
 900 003e 4C05     		se_li %r5,64
 901              	.LVL84:
 902 0040 1CC60000 		e_la %r6,ThreadFullDemo@l(%r6)
 903              	.LBE39:
 904              	.LBE38:
 905              		.loc 1 388 0
 906              	.LBB41:
 907              	.LBB40:
 908              		.loc 1 381 0
 909 0044 78000000 		e_b chThdCreateStatic
 910              	.LVL85:
 911              	.L64:
 912              	.LBE40:
GAS LISTING C:\Users\jean\AppData\Local\Temp\ccCELxuE.s 			page 17


 913              	.LBE41:
 914              		.loc 1 372 0
 915 0048 7080E000 		e_lis %r4,.LC17@ha
 916              	.LVL86:
 917              		.loc 1 388 0
 918              		.loc 1 372 0
 919 004c 1C840000 		e_la %r4,.LC17@l(%r4)
 920 0050 78000000 		e_b chprintf
 921              	.LVL87:
 922              		.cfi_endproc
 923              	.LFE60:
 924              		.size	startdemo, .-startdemo
 925              		.section	.text.drive,"axv",@progbits
 926              		.align 1
 927              		.p2align 4,,15
 928              		.globl drive
 929              		.type	drive, @function
 930              	drive:
 931              	.LFB55:
 932              		.loc 1 292 0
 933              		.cfi_startproc
 934              	.LVL88:
 935 0000 182106E8 		e_stwu %r1,-24(%r1)
 936              	.LCFI28:
 937              		.cfi_def_cfa_offset 24
 938 0004 0080     		se_mflr %r0
 939 0006 1BA1090C 		e_stmw %r29,12(%r1)
 940 000a D701     		se_stw %r0,28(%r1)
 941              		.cfi_offset 65, 4
 942              		.cfi_offset 29, -12
 943              		.cfi_offset 30, -8
 944              		.cfi_offset 31, -4
 945              		.loc 1 298 0
 946 000c 1824A802 		e_cmpi %cr1,%r4,2
 947 0010 7A16001A 		e_beq %cr1,.L67
 948              		.loc 1 313 0
 949 0014 C701     		se_lwz %r0,28(%r1)
 950 0016 1BA1080C 		e_lmw %r29,12(%r1)
 951              		.loc 1 299 0
 952 001a 7080E000 		e_lis %r4,.LC19@ha
 953              	.LVL89:
 954              		.loc 1 313 0
 955              		.loc 1 299 0
 956 001e 1C840000 		e_la %r4,.LC19@l(%r4)
 957              		.loc 1 313 0
 958 0022 0090     		se_mtlr %r0
 959              		.cfi_remember_state
 960              		.cfi_restore 65
 961 0024 2171     		se_addi %r1,24
 962              	.LCFI29:
 963              		.cfi_restore 31
 964              		.cfi_restore 30
 965              		.cfi_restore 29
 966              		.cfi_def_cfa_offset 0
 967              	.LBB44:
 968              	.LBB45:
 969              		.loc 1 307 0
GAS LISTING C:\Users\jean\AppData\Local\Temp\ccCELxuE.s 			page 18


 970 0026 78000000 		e_b chprintf
 971              	.LVL90:
 972              	.L67:
 973              	.LCFI30:
 974              		.cfi_restore_state
 975 002a 015F     		se_mr %r31,%r5
 976 002c 013E     		se_mr %r30,%r3
 977              	.LVL91:
 978              		.loc 1 303 0
 979 002e C035     		se_lwz %r3,0(%r5)
 980              	.LVL92:
 981 0030 78000001 		e_bl atoi
 982              	.LVL93:
 983 0034 013D     		se_mr %r29,%r3
 984              	.LVL94:
 985              		.loc 1 304 0
 986 0036 C13F     		se_lwz %r3,4(%r31)
 987              	.LVL95:
 988 0038 78000001 		e_bl atoi
 989              	.LVL96:
 990 003c 0134     		se_mr %r4,%r3
 991              	.LVL97:
 992              		.loc 1 306 0
 993 003e 7083AF10 		e_cmpl16i %r3,10000
 994 0042 7A110014 		e_bgt %cr0,.L70
 995              	.LBE45:
 996              	.LBE44:
 997              		.loc 1 313 0
 998 0046 C701     		se_lwz %r0,28(%r1)
 999              	.LBB51:
 1000              	.LBB46:
 1001              		.loc 1 310 0
 1002 0048 01D3     		se_mr %r3,%r29
 1003              	.LVL98:
 1004              	.LBE46:
 1005              	.LBE51:
 1006              		.loc 1 313 0
 1007 004a 0090     		se_mtlr %r0
 1008              		.cfi_remember_state
 1009              		.cfi_restore 65
 1010 004c 1BA1080C 		e_lmw %r29,12(%r1)
 1011              	.LVL99:
 1012 0050 2171     		se_addi %r1,24
 1013              	.LCFI31:
 1014              		.cfi_restore 31
 1015              		.cfi_restore 30
 1016              		.cfi_restore 29
 1017              		.cfi_def_cfa_offset 0
 1018              	.LBB52:
 1019              	.LBB47:
 1020              		.loc 1 310 0
 1021 0052 78000000 		e_b drivecmd
 1022              	.LVL100:
 1023              	.L70:
 1024              	.LCFI32:
 1025              		.cfi_restore_state
 1026              	.LBE47:
GAS LISTING C:\Users\jean\AppData\Local\Temp\ccCELxuE.s 			page 19


 1027              	.LBE52:
 1028              		.loc 1 313 0
 1029 0056 C701     		se_lwz %r0,28(%r1)
 1030              	.LBB53:
 1031              	.LBB48:
 1032              		.loc 1 307 0
 1033 0058 01E3     		se_mr %r3,%r30
 1034              	.LVL101:
 1035 005a 7080E000 		e_lis %r4,.LC20@ha
 1036              	.LVL102:
 1037              	.LBE48:
 1038              	.LBE53:
 1039              		.loc 1 313 0
 1040 005e 1BA1080C 		e_lmw %r29,12(%r1)
 1041              	.LVL103:
 1042              	.LBB54:
 1043              	.LBB49:
 1044              		.loc 1 307 0
 1045 0062 1C840000 		e_la %r4,.LC20@l(%r4)
 1046              	.LBE49:
 1047              	.LBE54:
 1048              		.loc 1 313 0
 1049 0066 0090     		se_mtlr %r0
 1050              		.cfi_restore 65
 1051 0068 2171     		se_addi %r1,24
 1052              	.LCFI33:
 1053              		.cfi_restore 29
 1054              		.cfi_restore 30
 1055              		.cfi_restore 31
 1056              		.cfi_def_cfa_offset 0
 1057              	.LBB55:
 1058              	.LBB50:
 1059              		.loc 1 307 0
 1060 006a 78000000 		e_b chprintf
 1061              	.LVL104:
 1062              	.LBE50:
 1063              	.LBE55:
 1064              		.cfi_endproc
 1065              	.LFE55:
 1066              		.size	drive, .-drive
 1067              		.section	.text.turn,"axv",@progbits
 1068              		.align 1
 1069              		.p2align 4,,15
 1070              		.globl turn
 1071              		.type	turn, @function
 1072              	turn:
 1073              	.LFB56:
 1074              		.loc 1 318 0
 1075              		.cfi_startproc
 1076              	.LVL105:
 1077 0000 182106F8 		e_stwu %r1,-8(%r1)
 1078              	.LCFI34:
 1079              		.cfi_def_cfa_offset 8
 1080 0004 0080     		se_mflr %r0
 1081              		.loc 1 323 0
 1082 0006 1824A801 		e_cmpi %cr1,%r4,1
 1083              		.loc 1 318 0
GAS LISTING C:\Users\jean\AppData\Local\Temp\ccCELxuE.s 			page 20


 1084 000a D301     		se_stw %r0,12(%r1)
 1085              		.cfi_offset 65, 4
 1086              		.loc 1 323 0
 1087 000c 7A160016 		e_beq %cr1,.L72
 1088              		.loc 1 332 0
 1089 0010 C301     		se_lwz %r0,12(%r1)
 1090              		.loc 1 324 0
 1091 0012 7080E000 		e_lis %r4,.LC21@ha
 1092              	.LVL106:
 1093              		.loc 1 332 0
 1094              		.loc 1 324 0
 1095 0016 1C840000 		e_la %r4,.LC21@l(%r4)
 1096              		.loc 1 332 0
 1097 001a 0090     		se_mtlr %r0
 1098              		.cfi_remember_state
 1099              		.cfi_restore 65
 1100 001c 2071     		se_addi %r1,8
 1101              	.LCFI35:
 1102              		.cfi_def_cfa_offset 0
 1103              		.loc 1 324 0
 1104 001e 78000000 		e_b chprintf
 1105              	.LVL107:
 1106              	.L72:
 1107              	.LCFI36:
 1108              		.cfi_restore_state
 1109              	.LBB58:
 1110              	.LBB59:
 1111              		.loc 1 328 0
 1112 0022 C035     		se_lwz %r3,0(%r5)
 1113              	.LVL108:
 1114 0024 78000001 		e_bl atoi
 1115              	.LVL109:
 1116              	.LBE59:
 1117              	.LBE58:
 1118              		.loc 1 332 0
 1119 0028 C301     		se_lwz %r0,12(%r1)
 1120 002a 0090     		se_mtlr %r0
 1121              		.cfi_restore 65
 1122 002c 2071     		se_addi %r1,8
 1123              	.LCFI37:
 1124              		.cfi_def_cfa_offset 0
 1125              	.LBB61:
 1126              	.LBB60:
 1127              		.loc 1 331 0
 1128 002e 78000000 		e_b turncmd
 1129              	.LVL110:
 1130              	.LBE60:
 1131              	.LBE61:
 1132              		.cfi_endproc
 1133              	.LFE56:
 1134              		.size	turn, .-turn
 1135              		.section	.text.blink,"axv",@progbits
 1136              		.align 1
 1137              		.p2align 4,,15
 1138              		.globl blink
 1139              		.type	blink, @function
 1140              	blink:
GAS LISTING C:\Users\jean\AppData\Local\Temp\ccCELxuE.s 			page 21


 1141              	.LFB59:
 1142              		.loc 1 345 0
 1143              		.cfi_startproc
 1144              	.LVL111:
 1145 0000 182106F8 		e_stwu %r1,-8(%r1)
 1146              	.LCFI38:
 1147              		.cfi_def_cfa_offset 8
 1148 0004 0080     		se_mflr %r0
 1149              		.loc 1 350 0
 1150 0006 1824A800 		e_cmpi %cr1,%r4,0
 1151              		.loc 1 345 0
 1152 000a D301     		se_stw %r0,12(%r1)
 1153              		.cfi_offset 65, 4
 1154              		.loc 1 350 0
 1155 000c 7A160034 		e_beq %cr1,.L77
 1156              	.LVL112:
 1157              	.LBB64:
 1158              	.LBB65:
 1159              		.loc 1 355 0
 1160 0010 C035     		se_lwz %r3,0(%r5)
 1161              	.LVL113:
 1162 0012 78000001 		e_bl atoi
 1163              	.LVL114:
 1164              		.loc 1 357 0
 1165 0016 2A03     		se_cmpi %r3,0
 1166 0018 7A020014 		e_bne %cr0,.L78
 1167              	.LBE65:
 1168              	.LBE64:
 1169              		.loc 1 363 0
 1170 001c C301     		se_lwz %r0,12(%r1)
 1171 001e 0090     		se_mtlr %r0
 1172              		.cfi_remember_state
 1173              		.cfi_restore 65
 1174              	.LBB70:
 1175              	.LBB66:
 1176              		.loc 1 361 0
 1177 0020 7120E000 		e_lis %r9,bLightOn@ha
 1178              	.LBE66:
 1179              	.LBE70:
 1180              		.loc 1 363 0
 1181              	.LBB71:
 1182              	.LBB67:
 1183              		.loc 1 361 0
 1184 0024 34690000 		e_stb %r3,bLightOn@l(%r9)
 1185              	.LBE67:
 1186              	.LBE71:
 1187              		.loc 1 363 0
 1188 0028 2071     		se_addi %r1,8
 1189              	.LCFI39:
 1190              		.cfi_def_cfa_offset 0
 1191 002a 0004     		se_blr
 1192              	.L78:
 1193              	.LCFI40:
 1194              		.cfi_restore_state
 1195 002c C301     		se_lwz %r0,12(%r1)
 1196 002e 0090     		se_mtlr %r0
 1197              		.cfi_remember_state
GAS LISTING C:\Users\jean\AppData\Local\Temp\ccCELxuE.s 			page 22


 1198              		.cfi_restore 65
 1199              	.LBB72:
 1200              	.LBB68:
 1201              		.loc 1 358 0
 1202 0030 71400001 		e_li %r10,1
 1203 0034 7120E000 		e_lis %r9,bLightOn@ha
 1204              	.LBE68:
 1205              	.LBE72:
 1206              		.loc 1 363 0
 1207              	.LBB73:
 1208              	.LBB69:
 1209              		.loc 1 358 0
 1210 0038 35490000 		e_stb %r10,bLightOn@l(%r9)
 1211              	.LBE69:
 1212              	.LBE73:
 1213              		.loc 1 363 0
 1214 003c 2071     		se_addi %r1,8
 1215              	.LCFI41:
 1216              		.cfi_def_cfa_offset 0
 1217 003e 0004     		se_blr
 1218              	.LVL115:
 1219              	.L77:
 1220              	.LCFI42:
 1221              		.cfi_restore_state
 1222 0040 C301     		se_lwz %r0,12(%r1)
 1223              		.loc 1 351 0
 1224 0042 7080E000 		e_lis %r4,.LC22@ha
 1225              	.LVL116:
 1226              		.loc 1 363 0
 1227              		.loc 1 351 0
 1228 0046 1C840000 		e_la %r4,.LC22@l(%r4)
 1229              		.loc 1 363 0
 1230 004a 0090     		se_mtlr %r0
 1231              		.cfi_restore 65
 1232 004c 2071     		se_addi %r1,8
 1233              	.LCFI43:
 1234              		.cfi_def_cfa_offset 0
 1235              		.loc 1 351 0
 1236 004e 78000000 		e_b chprintf
 1237              	.LVL117:
 1238              		.cfi_endproc
 1239              	.LFE59:
 1240              		.size	blink, .-blink
 1241              		.section	.text.cmd_at,"axv",@progbits
 1242              		.align 1
 1243              		.p2align 4,,15
 1244              		.type	cmd_at, @function
 1245              	cmd_at:
 1246              	.LFB50:
 1247              		.loc 1 191 0
 1248              		.cfi_startproc
 1249              	.LVL118:
 1250 0000 182106D0 		e_stwu %r1,-48(%r1)
 1251              	.LCFI44:
 1252              		.cfi_def_cfa_offset 48
 1253 0004 0080     		se_mflr %r0
 1254 0006 DBF1     		se_stw %r31,44(%r1)
GAS LISTING C:\Users\jean\AppData\Local\Temp\ccCELxuE.s 			page 23


 1255 0008 DD01     		se_stw %r0,52(%r1)
 1256              		.cfi_offset 65, 4
 1257              		.cfi_offset 31, -4
 1258              		.loc 1 191 0
 1259 000a 013F     		se_mr %r31,%r3
 1260 000c 0251     		se_mtar %r9,%r5
 1261              		.loc 1 196 0
 1262 000e 1824A800 		e_cmpi %cr1,%r4,0
 1263 0012 7A160038 		e_beq %cr1,.L82
 1264              		.loc 1 203 0
 1265 0016 50690000 		e_lwz %r3,0(%r9)
 1266              	.LVL119:
 1267 001a 70A003E8 		e_li %r5,1000
 1268              	.LVL120:
 1269 001e 18818008 		e_addi %r4,%r1,8
 1270              	.LVL121:
 1271 0022 78000001 		e_bl get_string
 1272              	.LVL122:
 1273              		.loc 1 204 0
 1274 0026 01F3     		se_mr %r3,%r31
 1275 0028 18818008 		e_addi %r4,%r1,8
 1276 002c 78000001 		e_bl chprintf
 1277              	.LVL123:
 1278              		.loc 1 205 0
 1279 0030 01F3     		se_mr %r3,%r31
 1280 0032 7080E000 		e_lis %r4,.LC25@ha
 1281 0036 1C840000 		e_la %r4,.LC25@l(%r4)
 1282 003a 78000001 		e_bl chprintf
 1283              	.LVL124:
 1284              		.loc 1 206 0
 1285 003e CD01     		se_lwz %r0,52(%r1)
 1286 0040 0090     		se_mtlr %r0
 1287              		.cfi_remember_state
 1288              		.cfi_restore 65
 1289 0042 CBF1     		se_lwz %r31,44(%r1)
 1290              	.LVL125:
 1291 0044 18218030 		e_addi %r1,%r1,48
 1292              	.LCFI45:
 1293              		.cfi_restore 31
 1294              		.cfi_def_cfa_offset 0
 1295 0048 0004     		se_blr
 1296              	.LVL126:
 1297              	.L82:
 1298              	.LCFI46:
 1299              		.cfi_restore_state
 1300              	.LBB76:
 1301              	.LBB77:
 1302              		.loc 1 197 0
 1303 004a 7080E000 		e_lis %r4,.LC23@ha
 1304              	.LVL127:
 1305 004e 1C840000 		e_la %r4,.LC23@l(%r4)
 1306 0052 78000001 		e_bl chprintf
 1307              	.LVL128:
 1308              		.loc 1 198 0
 1309 0056 01F3     		se_mr %r3,%r31
 1310 0058 7080E000 		e_lis %r4,.LC24@ha
 1311 005c 1C840000 		e_la %r4,.LC24@l(%r4)
GAS LISTING C:\Users\jean\AppData\Local\Temp\ccCELxuE.s 			page 24


 1312 0060 78000001 		e_bl chprintf
 1313              	.LVL129:
 1314              	.LBE77:
 1315              	.LBE76:
 1316              		.loc 1 206 0
 1317 0064 CD01     		se_lwz %r0,52(%r1)
 1318 0066 0090     		se_mtlr %r0
 1319              		.cfi_restore 65
 1320 0068 CBF1     		se_lwz %r31,44(%r1)
 1321              	.LVL130:
 1322 006a 18218030 		e_addi %r1,%r1,48
 1323              	.LCFI47:
 1324              		.cfi_restore 31
 1325              		.cfi_def_cfa_offset 0
 1326 006e 0004     		se_blr
 1327              		.cfi_endproc
 1328              	.LFE50:
 1329              		.size	cmd_at, .-cmd_at
 1330              		.section	.text.ThreadCarBlinker,"axv",@progbits
 1331              		.align 1
 1332              		.p2align 4,,15
 1333              		.globl ThreadCarBlinker
 1334              		.type	ThreadCarBlinker, @function
 1335              	ThreadCarBlinker:
 1336              	.LFB46:
 1337              		.loc 1 38 0
 1338              		.cfi_startproc
 1339              	.LVL131:
 1340 0000 182106E8 		e_stwu %r1,-24(%r1)
 1341              	.LCFI48:
 1342              		.cfi_def_cfa_offset 24
 1343              		.loc 1 40 0
 1344 0004 7120E000 		e_lis %r9,rlist+24@ha
 1345              		.loc 1 38 0
 1346 0008 1BA1090C 		e_stmw %r29,12(%r1)
 1347              		.loc 1 40 0
 1348 000c 51490000 		e_lwz %r10,rlist+24@l(%r9)
 1349              		.loc 1 38 0
 1350 0010 0080     		se_mflr %r0
 1351              		.cfi_offset 29, -12
 1352              		.cfi_offset 30, -8
 1353              		.cfi_offset 31, -4
 1354              		.cfi_register 65, 0
 1355              		.loc 1 42 0
 1356 0012 73C0E000 		e_lis %r30,.LANCHOR3@ha
 1357              		.loc 1 38 0
 1358 0016 D701     		se_stw %r0,28(%r1)
 1359              		.cfi_offset 65, 4
 1360              		.loc 1 40 0
 1361 0018 7120E000 		e_lis %r9,.LC26@ha
 1362 001c 1D290000 		e_la %r9,.LC26@l(%r9)
 1363 0020 552A0018 		e_stw %r9,24(%r10)
 1364              		.loc 1 42 0
 1365 0024 513E0000 		e_lwz %r9,.LANCHOR3@l(%r30)
 1366 0028 1829A800 		e_cmpi %cr1,%r9,0
 1367 002c 7A16005E 		e_beq %cr1,.L89
 1368 0030 1FDE0000 		e_la %r30,.LANCHOR3@l(%r30)
GAS LISTING C:\Users\jean\AppData\Local\Temp\ccCELxuE.s 			page 25


 1369              		.loc 1 50 0
 1370 0034 73F8E3F9 		e_lis %r31,0xc3f9
 1371 0038 480D     		se_li %r29,0
 1372 003a 78000028 		e_b .L88
 1373              	.LVL132:
 1374              	.L85:
 1375              		.loc 1 46 0
 1376 003e 1829A802 		e_cmpi %cr1,%r9,2
 1377 0042 7A16006C 		e_beq %cr1,.L92
 1378              		.loc 1 50 0
 1379 0046 37BF0602 		e_stb %r29,1538(%r31)
 1380              		.loc 1 51 0
 1381 004a 37BF0601 		e_stb %r29,1537(%r31)
 1382              	.L86:
 1383              		.loc 1 54 0
 1384 004e 706001F4 		e_li %r3,500
 1385 0052 78000001 		e_bl chThdSleep
 1386              	.LVL133:
 1387              		.loc 1 42 0
 1388 0056 513E0000 		e_lwz %r9,0(%r30)
 1389 005a 1829A800 		e_cmpi %cr1,%r9,0
 1390 005e 7A16002C 		e_beq %cr1,.L89
 1391              	.L88:
 1392              		.loc 1 43 0
 1393 0062 1829A801 		e_cmpi %cr1,%r9,1
 1394 0066 7A06FFD8 		e_bne %cr1,.L85
 1395              		.loc 1 44 0
 1396 006a 313F0602 		e_lbz %r9,1538(%r31)
 1397              		.loc 1 54 0
 1398 006e 706001F4 		e_li %r3,500
 1399              		.loc 1 44 0
 1400 0072 7D2948F8 		nor %r9,%r9,%r9
 1401 0076 353F0602 		e_stb %r9,1538(%r31)
 1402              		.loc 1 54 0
 1403 007a 78000001 		e_bl chThdSleep
 1404              	.LVL134:
 1405              		.loc 1 42 0
 1406 007e 513E0000 		e_lwz %r9,0(%r30)
 1407 0082 1829A800 		e_cmpi %cr1,%r9,0
 1408 0086 7A06FFDC 		e_bne %cr1,.L88
 1409              	.L89:
 1410              		.loc 1 57 0
 1411 008a 7138E3F9 		e_lis %r9,0xc3f9
 1412 008e 71400000 		e_li %r10,0
 1413              		.loc 1 60 0
 1414 0092 4803     		se_li %r3,0
 1415              		.loc 1 57 0
 1416 0094 35490602 		e_stb %r10,1538(%r9)
 1417              		.loc 1 58 0
 1418 0098 35490601 		e_stb %r10,1537(%r9)
 1419              		.loc 1 60 0
 1420 009c 78000001 		e_bl chThdExit
 1421              	.LVL135:
 1422              		.loc 1 63 0
 1423 00a0 C701     		se_lwz %r0,28(%r1)
 1424 00a2 0090     		se_mtlr %r0
 1425              		.cfi_remember_state
GAS LISTING C:\Users\jean\AppData\Local\Temp\ccCELxuE.s 			page 26


 1426              		.cfi_restore 65
 1427 00a4 1BA1080C 		e_lmw %r29,12(%r1)
 1428 00a8 4803     		se_li %r3,0
 1429 00aa 2171     		se_addi %r1,24
 1430              	.LCFI49:
 1431              		.cfi_restore 31
 1432              		.cfi_restore 30
 1433              		.cfi_restore 29
 1434              		.cfi_def_cfa_offset 0
 1435 00ac 0004     		se_blr
 1436              	.L92:
 1437              	.LCFI50:
 1438              		.cfi_restore_state
 1439              		.loc 1 47 0
 1440 00ae 313F0601 		e_lbz %r9,1537(%r31)
 1441 00b2 7D2948F8 		nor %r9,%r9,%r9
 1442 00b6 353F0601 		e_stb %r9,1537(%r31)
 1443 00ba 79FFFF94 		e_b .L86
 1444              		.cfi_endproc
 1445              	.LFE46:
 1446              		.size	ThreadCarBlinker, .-ThreadCarBlinker
 1447              		.globl shell_commands
 1448              		.globl waThreadCarBlinker
 1449              		.globl bFullDemoRunning
 1450              		.globl iCarBlinker
 1451              		.section	.bss.waThreadFullDemo,"aw",@nobits
 1452              		.align 3
 1453              		.set	.LANCHOR2,. + 0
 1454              		.type	waThreadFullDemo, @object
 1455              		.size	waThreadFullDemo, 616
 1456              	waThreadFullDemo:
 1457 0000 00000000 		.zero	616
 1457      00000000 
 1457      00000000 
 1457      00000000 
 1457      00000000 
 1458              		.section	.bss.iCarBlinker,"aw",@nobits
 1459              		.align 2
 1460              		.set	.LANCHOR3,. + 0
 1461              		.type	iCarBlinker, @object
 1462              		.size	iCarBlinker, 4
 1463              	iCarBlinker:
 1464 0000 00000000 		.zero	4
 1465              		.section	.bss.bFullDemoRunning,"aw",@nobits
 1466              		.set	.LANCHOR0,. + 0
 1467              		.type	bFullDemoRunning, @object
 1468              		.size	bFullDemoRunning, 1
 1469              	bFullDemoRunning:
 1470 0000 00       		.zero	1
 1471              		.section	.rodata.shell_commands,"a",@progbits
 1472              		.align 2
 1473              		.type	shell_commands, @object
 1474              		.size	shell_commands, 120
 1475              	shell_commands:
 1476 0000 00000000 		.long	.LC42
 1477 0004 00000000 		.long	cmd_mem
 1478 0008 00000000 		.long	.LC43
GAS LISTING C:\Users\jean\AppData\Local\Temp\ccCELxuE.s 			page 27


 1479 000c 00000000 		.long	cmd_threads
 1480 0010 00000000 		.long	.LC44
 1481 0014 00000000 		.long	cmd_at
 1482 0018 00000000 		.long	.LC45
 1483 001c 00000000 		.long	startgps
 1484 0020 00000000 		.long	.LC46
 1485 0024 00000000 		.long	stopgps
 1486 0028 00000000 		.long	.LC47
 1487 002c 00000000 		.long	speed
 1488 0030 00000000 		.long	.LC48
 1489 0034 00000000 		.long	drive
 1490 0038 00000000 		.long	.LC49
 1491 003c 00000000 		.long	turn
 1492 0040 00000000 		.long	.LC50
 1493 0044 00000000 		.long	blink
 1494 0048 00000000 		.long	.LC51
 1495 004c 00000000 		.long	startdemo
 1496 0050 00000000 		.long	.LC52
 1497 0054 00000000 		.long	stopdemo
 1498 0058 00000000 		.long	.LC53
 1499 005c 00000000 		.long	conduire
 1500 0060 00000000 		.long	.LC54
 1501 0064 00000000 		.long	cliGauche
 1502 0068 00000000 		.long	.LC55
 1503 006c 00000000 		.long	cliDroit
 1504 0070 00000000 		.long	0
 1505 0074 00000000 		.long	0
 1506              		.section	.rodata.str1.4,"aMS",@progbits,1
 1507              		.align 2
 1508              	.LC0:
 1509 0000 55736167 		.string	"Usage: stopdemo\r\n"
 1509      653A2073 
 1509      746F7064 
 1509      656D6F0D 
 1509      0A00
 1510 0012 0000     		.zero	2
 1511              	.LC1:
 1512 0014 54687265 		.string	"ThreadFullDemo"
 1512      61644675 
 1512      6C6C4465 
 1512      6D6F00
 1513 0023 00       		.zero	1
 1514              	.LC2:
 1515 0024 55736167 		.string	"Usage: mem\r\n"
 1515      653A206D 
 1515      656D0D0A 
 1515      00
 1516 0031 000000   		.zero	3
 1517              	.LC3:
 1518 0034 636F7265 		.string	"core free memory : %u bytes\r\n"
 1518      20667265 
 1518      65206D65 
 1518      6D6F7279 
 1518      203A2025 
 1519 0052 0000     		.zero	2
 1520              	.LC4:
 1521 0054 68656170 		.string	"heap fragments   : %u\r\n"
GAS LISTING C:\Users\jean\AppData\Local\Temp\ccCELxuE.s 			page 28


 1521      20667261 
 1521      676D656E 
 1521      74732020 
 1521      203A2025 
 1522              	.LC5:
 1523 006c 68656170 		.string	"heap free total  : %u bytes\r\n"
 1523      20667265 
 1523      6520746F 
 1523      74616C20 
 1523      203A2025 
 1524 008a 0000     		.zero	2
 1525              	.LC6:
 1526 008c 55736167 		.string	"Usage: stopgps\r\n"
 1526      653A2073 
 1526      746F7067 
 1526      70730D0A 
 1526      00
 1527 009d 000000   		.zero	3
 1528              	.LC7:
 1529 00a0 54687265 		.string	"ThreadGPS terminated\r\n"
 1529      61644750 
 1529      53207465 
 1529      726D696E 
 1529      61746564 
 1530 00b7 00       		.zero	1
 1531              	.LC8:
 1532 00b8 54687265 		.string	"ThreadGPS not running\r\n"
 1532      61644750 
 1532      53206E6F 
 1532      74207275 
 1532      6E6E696E 
 1533              	.LC9:
 1534 00d0 55736167 		.string	"Usage: speed\r\n"
 1534      653A2073 
 1534      70656564 
 1534      0D0A00
 1535 00df 00       		.zero	1
 1536              	.LC10:
 1537 00e0 53706565 		.string	"Speed %d\r\n"
 1537      64202564 
 1537      0D0A00
 1538 00eb 00       		.zero	1
 1539              	.LC11:
 1540 00ec 55736167 		.string	"Usage: threads\r\n"
 1540      653A2074 
 1540      68726561 
 1540      64730D0A 
 1540      00
 1541 00fd 000000   		.zero	3
 1542              	.LC12:
 1543 0100 20202020 		.string	"    addr    stack prio refs     state time\r\n"
 1543      61646472 
 1543      20202020 
 1543      73746163 
 1543      6B207072 
 1544 012d 000000   		.zero	3
 1545              	.LC13:
GAS LISTING C:\Users\jean\AppData\Local\Temp\ccCELxuE.s 			page 29


 1546 0130 252E386C 		.string	"%.8lx %.8lx %4lu %4lu %9s %lu\r\n"
 1546      7820252E 
 1546      386C7820 
 1546      25346C75 
 1546      2025346C 
 1547              	.LC14:
 1548 0150 55736167 		.string	"Usage: startgps\r\n"
 1548      653A2073 
 1548      74617274 
 1548      6770730D 
 1548      0A00
 1549 0162 0000     		.zero	2
 1550              	.LC15:
 1551 0164 54687265 		.string	"ThreadGPS started\r\n"
 1551      61644750 
 1551      53207374 
 1551      61727465 
 1551      640D0A00 
 1552              	.LC16:
 1553 0178 54687265 		.string	"ThreadGPS already started\r\n"
 1553      61644750 
 1553      5320616C 
 1553      72656164 
 1553      79207374 
 1554              	.LC17:
 1555 0194 55736167 		.string	"Usage: startdemo\r\n"
 1555      653A2073 
 1555      74617274 
 1555      64656D6F 
 1555      0D0A00
 1556 01a7 00       		.zero	1
 1557              	.LC18:
 1558 01a8 46756C6C 		.string	"Full Demo Already running\r\n"
 1558      2044656D 
 1558      6F20416C 
 1558      72656164 
 1558      79207275 
 1559              	.LC19:
 1560 01c4 55736167 		.string	"Usage: drive <DIRECTION (0/1/2)> <SPEED (0-10000)>\r\n"
 1560      653A2064 
 1560      72697665 
 1560      203C4449 
 1560      52454354 
 1561 01f9 000000   		.zero	3
 1562              	.LC20:
 1563 01fc 506C6561 		.string	"Please between 0 and 10000\r\n"
 1563      73652062 
 1563      65747765 
 1563      656E2030 
 1563      20616E64 
 1564 0219 000000   		.zero	3
 1565              	.LC21:
 1566 021c 55736167 		.string	"Usage: turn <DIRECTION (0/1/2)>\r\n"
 1566      653A2074 
 1566      75726E20 
 1566      3C444952 
 1566      45435449 
GAS LISTING C:\Users\jean\AppData\Local\Temp\ccCELxuE.s 			page 30


 1567 023e 0000     		.zero	2
 1568              	.LC22:
 1569 0240 55736167 		.string	"Usage: blink <0/1>\r\n"
 1569      653A2062 
 1569      6C696E6B 
 1569      203C302F 
 1569      313E0D0A 
 1570 0255 000000   		.zero	3
 1571              	.LC23:
 1572 0258 55736167 		.string	"Usage: send <ATCOMMAND>\r\n"
 1572      653A2073 
 1572      656E6420 
 1572      3C415443 
 1572      4F4D4D41 
 1573 0272 0000     		.zero	2
 1574              	.LC24:
 1575 0274 5741524E 		.string	"WARNING : BT device should not be connected on any terminal\r\n"
 1575      494E4720 
 1575      3A204254 
 1575      20646576 
 1575      69636520 
 1576 02b2 0000     		.zero	2
 1577              	.LC25:
 1578 02b4 0D0A00   		.string	"\r\n"
 1579 02b7 00       		.zero	1
 1580              	.LC26:
 1581 02b8 54687265 		.string	"ThreadCarBlinker"
 1581      61644361 
 1581      72426C69 
 1581      6E6B6572 
 1581      00
 1582 02c9 000000   		.zero	3
 1583              	.LC27:
 1584 02cc 52454144 		.string	"READY"
 1584      5900
 1585 02d2 0000     		.zero	2
 1586              	.LC28:
 1587 02d4 43555252 		.string	"CURRENT"
 1587      454E5400 
 1588              	.LC29:
 1589 02dc 53555350 		.string	"SUSPENDED"
 1589      454E4445 
 1589      4400
 1590 02e6 0000     		.zero	2
 1591              	.LC30:
 1592 02e8 57545345 		.string	"WTSEM"
 1592      4D00
 1593 02ee 0000     		.zero	2
 1594              	.LC31:
 1595 02f0 57544D54 		.string	"WTMTX"
 1595      5800
 1596 02f6 0000     		.zero	2
 1597              	.LC32:
 1598 02f8 5754434F 		.string	"WTCOND"
 1598      4E4400
 1599 02ff 00       		.zero	1
 1600              	.LC33:
GAS LISTING C:\Users\jean\AppData\Local\Temp\ccCELxuE.s 			page 31


 1601 0300 534C4545 		.string	"SLEEPING"
 1601      50494E47 
 1601      00
 1602 0309 000000   		.zero	3
 1603              	.LC34:
 1604 030c 57544558 		.string	"WTEXIT"
 1604      495400
 1605 0313 00       		.zero	1
 1606              	.LC35:
 1607 0314 57544F52 		.string	"WTOREVT"
 1607      45565400 
 1608              	.LC36:
 1609 031c 5754414E 		.string	"WTANDEVT"
 1609      44455654 
 1609      00
 1610 0325 000000   		.zero	3
 1611              	.LC37:
 1612 0328 534E444D 		.string	"SNDMSGQ"
 1612      53475100 
 1613              	.LC38:
 1614 0330 534E444D 		.string	"SNDMSG"
 1614      534700
 1615 0337 00       		.zero	1
 1616              	.LC39:
 1617 0338 57544D53 		.string	"WTMSG"
 1617      4700
 1618 033e 0000     		.zero	2
 1619              	.LC40:
 1620 0340 57545155 		.string	"WTQUEUE"
 1620      45554500 
 1621              	.LC41:
 1622 0348 46494E41 		.string	"FINAL"
 1622      4C00
 1623 034e 0000     		.zero	2
 1624              	.LC42:
 1625 0350 6D656D00 		.string	"mem"
 1626              	.LC43:
 1627 0354 74687265 		.string	"threads"
 1627      61647300 
 1628              	.LC44:
 1629 035c 73656E64 		.string	"send"
 1629      00
 1630 0361 000000   		.zero	3
 1631              	.LC45:
 1632 0364 73746172 		.string	"startgps"
 1632      74677073 
 1632      00
 1633 036d 000000   		.zero	3
 1634              	.LC46:
 1635 0370 73746F70 		.string	"stopgps"
 1635      67707300 
 1636              	.LC47:
 1637 0378 73706565 		.string	"speed"
 1637      6400
 1638 037e 0000     		.zero	2
 1639              	.LC48:
 1640 0380 64726976 		.string	"drive"
GAS LISTING C:\Users\jean\AppData\Local\Temp\ccCELxuE.s 			page 32


 1640      6500
 1641 0386 0000     		.zero	2
 1642              	.LC49:
 1643 0388 7475726E 		.string	"turn"
 1643      00
 1644 038d 000000   		.zero	3
 1645              	.LC50:
 1646 0390 626C696E 		.string	"blink"
 1646      6B00
 1647 0396 0000     		.zero	2
 1648              	.LC51:
 1649 0398 73746172 		.string	"startdemo"
 1649      7464656D 
 1649      6F00
 1650 03a2 0000     		.zero	2
 1651              	.LC52:
 1652 03a4 73746F70 		.string	"stopdemo"
 1652      64656D6F 
 1652      00
 1653 03ad 000000   		.zero	3
 1654              	.LC53:
 1655 03b0 636F6E64 		.string	"conduire"
 1655      75697265 
 1655      00
 1656 03b9 000000   		.zero	3
 1657              	.LC54:
 1658 03bc 636C6947 		.string	"cliGauche"
 1658      61756368 
 1658      6500
 1659 03c6 0000     		.zero	2
 1660              	.LC55:
 1661 03c8 636C6944 		.string	"cliDroit"
 1661      726F6974 
 1661      00
 1662              		.section	.rodata.states.9687,"a",@progbits
 1663              		.align 2
 1664              		.set	.LANCHOR1,. + 0
 1665              		.type	states.9687, @object
 1666              		.size	states.9687, 60
 1667              	states.9687:
 1668 0000 00000000 		.long	.LC27
 1669 0004 00000000 		.long	.LC28
 1670 0008 00000000 		.long	.LC29
 1671 000c 00000000 		.long	.LC30
 1672 0010 00000000 		.long	.LC31
 1673 0014 00000000 		.long	.LC32
 1674 0018 00000000 		.long	.LC33
 1675 001c 00000000 		.long	.LC34
 1676 0020 00000000 		.long	.LC35
 1677 0024 00000000 		.long	.LC36
 1678 0028 00000000 		.long	.LC37
 1679 002c 00000000 		.long	.LC38
 1680 0030 00000000 		.long	.LC39
 1681 0034 00000000 		.long	.LC40
 1682 0038 00000000 		.long	.LC41
 1683              		.section	.bss.waThreadCarBlinker,"aw",@nobits
 1684              		.align 3
GAS LISTING C:\Users\jean\AppData\Local\Temp\ccCELxuE.s 			page 33


 1685              		.type	waThreadCarBlinker, @object
 1686              		.size	waThreadCarBlinker, 616
 1687              	waThreadCarBlinker:
 1688 0000 00000000 		.zero	616
 1688      00000000 
 1688      00000000 
 1688      00000000 
 1688      00000000 
 1689              		.section	".text","axv"
 1690              	.Letext0:
 1691              		.file 3 "c:\\spc5studio\\eclipse\\plugins\\com.st.tools.spc5.tools.gnu.gcc.ppcvle.win32_1.0.0.2016
 1692              		.file 4 "c:\\spc5studio\\eclipse\\plugins\\com.st.tools.spc5.tools.gnu.gcc.ppcvle.win32_1.0.0.2016
 1693              		.file 5 "c:\\spc5studio\\eclipse\\plugins\\com.st.tools.spc5.tools.gnu.gcc.ppcvle.win32_1.0.0.2016
 1694              		.file 6 "./components/chibios_rt_spc560dxx_kernel_port_component/lib/include/chtypes.h"
 1695              		.file 7 "./components/chibios_rt_portable_kernel_component/lib/include/chlists.h"
 1696              		.file 8 "./components/chibios_rt_portable_kernel_component/lib/include/chthreads.h"
 1697              		.file 9 "./components/chibios_rt_spc560dxx_kernel_port_component/lib/include/chcore.h"
 1698              		.file 10 "./components/chibios_rt_portable_kernel_component/lib/include/chvt.h"
 1699              		.file 11 "./components/chibios_rt_portable_kernel_component/lib/include/chschd.h"
 1700              		.file 12 "./components/chibios_rt_portable_kernel_component/lib/include/chmtx.h"
 1701              		.file 13 "./components/chibios_rt_portable_kernel_component/lib/include/chevents.h"
 1702              		.file 14 "./components/chibios_rt_portable_kernel_component/lib/include/chmemcore.h"
 1703              		.file 15 "./components/chibios_rt_portable_kernel_component/lib/include/chheap.h"
 1704              		.file 16 "./components/chibios_rt_portable_kernel_component/lib/include/chqueues.h"
 1705              		.file 17 "./components/chibios_rt_portable_kernel_component/lib/include/chstreams.h"
 1706              		.file 18 "./components/chibios_rt_spc5xx_osal_component/lib/include/osal.h"
 1707              		.file 19 "./components/spc560dxx_hal_drivers_component/lib/include/xpc560d.h"
 1708              		.file 20 "./components/portable_spc5_hal_component/lib/include/hal_queues.h"
 1709              		.file 21 "./components/portable_spc5_hal_component/lib/include/serial.h"
 1710              		.file 22 "./components/spc560dxx_hal_drivers_component/lib/include/spc5_linflex.h"
 1711              		.file 23 "./components/chibios_rt_portable_mini_shell_component/lib/include/shell.h"
 1712              		.file 24 "c:\\spc5studio\\eclipse\\plugins\\com.st.tools.spc5.tools.gnu.gcc.ppcvle.win32_1.0.0.201
 1713              		.file 25 "<built-in>"
 1714              		.file 26 "./source/shellcmd.h"
 1715              		.file 27 "./source/shellbt.h"
 1716              		.file 28 "./source/speedsensor.h"
 1717              		.file 29 "./source/carcommand.h"
 1718              		.file 30 "./components/chibios_rt_portable_kernel_component/lib/include/chregistry.h"
 1719              		.file 31 "c:\\spc5studio\\eclipse\\plugins\\com.st.tools.spc5.tools.gnu.gcc.ppcvle.win32_1.0.0.201
 1720              		.file 32 "./components/spc560dxx_hal_drivers_component/lib/include/serial_lld.h"
 1721              		.file 33 "./source/serial_input.h"