GAS LISTING C:\Users\jean\AppData\Local\Temp\cc469ATC.s 			page 1


   1              		.file	"shell.c"
   2              		.section	".text","axv"
   3              	.Ltext0:
   4              		.cfi_sections	.debug_frame
   5              		.section	.text.chprintf,"axv",@progbits
   6              		.align 1
   7              		.p2align 4,,15
   8              		.type	chprintf, @function
   9              	chprintf:
  10              	.LFB44:
  11              		.file 1 "./components/chibios_rt_portable_output_formatter_component/lib/include/chprintf.h"
  12              		.loc 1 69 0
  13              		.cfi_startproc
  14              	.LVL0:
  15 0000 182106D0 		e_stwu %r1,-48(%r1)
  16              	.LCFI0:
  17              		.cfi_def_cfa_offset 48
  18 0004 0080     		se_mflr %r0
  19 0006 D651     		se_stw %r5,24(%r1)
  20 0008 DD01     		se_stw %r0,52(%r1)
  21              		.cfi_offset 65, 4
  22              		.loc 1 69 0
  23 000a 55210028 		e_stw %r9,40(%r1)
  24 000e D761     		se_stw %r6,28(%r1)
  25 0010 D871     		se_stw %r7,32(%r1)
  26 0012 55010024 		e_stw %r8,36(%r1)
  27 0016 5541002C 		e_stw %r10,44(%r1)
  28              		.loc 1 72 0
  29 001a 71200002 		e_li %r9,2
  30              		.loc 1 73 0
  31 001e 18A18008 		e_addi %r5,%r1,8
  32              		.loc 1 72 0
  33 0022 35210008 		e_stb %r9,8(%r1)
  34 0026 71200000 		e_li %r9,0
  35 002a 35210009 		e_stb %r9,9(%r1)
  36 002e 19218038 		e_addi %r9,%r1,56
  37 0032 5521000C 		e_stw %r9,12(%r1)
  38 0036 19218010 		e_addi %r9,%r1,16
  39 003a 55210010 		e_stw %r9,16(%r1)
  40              		.loc 1 73 0
  41 003e 78000001 		e_bl chvprintf
  42              	.LVL1:
  43              		.loc 1 75 0
  44 0042 CD01     		se_lwz %r0,52(%r1)
  45 0044 0090     		se_mtlr %r0
  46              		.cfi_restore 65
  47 0046 18218030 		e_addi %r1,%r1,48
  48              	.LCFI1:
  49              		.cfi_def_cfa_offset 0
  50 004a 0004     		se_blr
  51              		.cfi_endproc
  52              	.LFE44:
  53              		.size	chprintf, .-chprintf
  54              		.section	.text.cmd_systime,"axv",@progbits
  55              		.align 1
  56              		.p2align 4,,15
  57              		.type	cmd_systime, @function
GAS LISTING C:\Users\jean\AppData\Local\Temp\cc469ATC.s 			page 2


  58              	cmd_systime:
  59              	.LFB49:
  60              		.file 2 "./components/chibios_rt_portable_mini_shell_component/lib/src/shell.c"
  61              		.loc 2 99 0
  62              		.cfi_startproc
  63              	.LVL2:
  64              		.loc 2 102 0
  65 0000 1824A800 		e_cmpi %cr1,%r4,0
  66 0004 7A050018 		e_ble %cr1,.L3
  67              	.LVL3:
  68              	.LBB26:
  69              	.LBB27:
  70              		.loc 2 56 0
  71 0008 7080E000 		e_lis %r4,.LC0@ha
  72              	.LVL4:
  73 000c 70A0E000 		e_lis %r5,.LC1@ha
  74              	.LVL5:
  75 0010 1C840000 		e_la %r4,.LC0@l(%r4)
  76 0014 1CA50000 		e_la %r5,.LC1@l(%r5)
  77              	.LBE27:
  78              	.LBE26:
  79              		.loc 2 107 0
  80              	.LBB29:
  81              	.LBB28:
  82              		.loc 2 56 0
  83 0018 78000000 		e_b chprintf
  84              	.LVL6:
  85              	.L3:
  86              	.LBE28:
  87              	.LBE29:
  88              	.LBB30:
  89              	.LBB31:
  90              		.loc 2 106 0
  91 001c 7080E000 		e_lis %r4,.LC2@ha
  92              	.LVL7:
  93 0020 7120E000 		e_lis %r9,vtlist@ha
  94 0024 1C840000 		e_la %r4,.LC2@l(%r4)
  95 0028 1D290000 		e_la %r9,vtlist@l(%r9)
  96 002c 50A9000C 		e_lwz %r5,12(%r9)
  97              	.LVL8:
  98              	.LBE31:
  99              	.LBE30:
 100              		.loc 2 107 0
 101              	.LBB33:
 102              	.LBB32:
 103              		.loc 2 106 0
 104 0030 78000000 		e_b chprintf
 105              	.LVL9:
 106              	.LBE32:
 107              	.LBE33:
 108              		.cfi_endproc
 109              	.LFE49:
 110              		.size	cmd_systime, .-cmd_systime
 111              		.section	.text.cmd_info,"axv",@progbits
 112              		.align 1
 113              		.p2align 4,,15
 114              		.type	cmd_info, @function
GAS LISTING C:\Users\jean\AppData\Local\Temp\cc469ATC.s 			page 3


 115              	cmd_info:
 116              	.LFB48:
 117              		.loc 2 67 0
 118              		.cfi_startproc
 119              	.LVL10:
 120 0000 182106F0 		e_stwu %r1,-16(%r1)
 121              	.LCFI2:
 122              		.cfi_def_cfa_offset 16
 123 0004 0080     		se_mflr %r0
 124 0006 D3F1     		se_stw %r31,12(%r1)
 125 0008 D501     		se_stw %r0,20(%r1)
 126              		.cfi_offset 65, 4
 127              		.cfi_offset 31, -4
 128              		.loc 2 67 0
 129 000a 013F     		se_mr %r31,%r3
 130              		.loc 2 70 0
 131 000c 1824A800 		e_cmpi %cr1,%r4,0
 132 0010 7A050020 		e_ble %cr1,.L6
 133              	.LVL11:
 134              		.loc 2 97 0
 135 0014 C501     		se_lwz %r0,20(%r1)
 136 0016 C3F1     		se_lwz %r31,12(%r1)
 137              	.LBB40:
 138              	.LBB41:
 139              		.loc 2 56 0
 140 0018 7080E000 		e_lis %r4,.LC0@ha
 141              	.LVL12:
 142 001c 70A0E000 		e_lis %r5,.LC3@ha
 143              	.LVL13:
 144              	.LBE41:
 145              	.LBE40:
 146              		.loc 2 97 0
 147              	.LBB44:
 148              	.LBB42:
 149              		.loc 2 56 0
 150 0020 1C840000 		e_la %r4,.LC0@l(%r4)
 151 0024 1CA50000 		e_la %r5,.LC3@l(%r5)
 152              	.LBE42:
 153              	.LBE44:
 154              		.loc 2 97 0
 155 0028 0090     		se_mtlr %r0
 156              		.cfi_remember_state
 157              		.cfi_restore 65
 158 002a 20F1     		se_addi %r1,16
 159              	.LCFI3:
 160              		.cfi_restore 31
 161              		.cfi_def_cfa_offset 0
 162              	.LBB45:
 163              	.LBB43:
 164              		.loc 2 56 0
 165 002c 78000000 		e_b chprintf
 166              	.LVL14:
 167              	.L6:
 168              	.LCFI4:
 169              		.cfi_restore_state
 170              	.LBE43:
 171              	.LBE45:
GAS LISTING C:\Users\jean\AppData\Local\Temp\cc469ATC.s 			page 4


 172              	.LBB46:
 173              	.LBB47:
 174              		.loc 2 75 0
 175 0030 7080E000 		e_lis %r4,.LC4@ha
 176              	.LVL15:
 177 0034 70A0E000 		e_lis %r5,.LC5@ha
 178              	.LVL16:
 179 0038 1C840000 		e_la %r4,.LC4@l(%r4)
 180 003c 1CA50000 		e_la %r5,.LC5@l(%r5)
 181 0040 78000001 		e_bl chprintf
 182              	.LVL17:
 183              		.loc 2 77 0
 184 0044 01F3     		se_mr %r3,%r31
 185 0046 7080E000 		e_lis %r4,.LC6@ha
 186 004a 70A0E000 		e_lis %r5,.LC7@ha
 187 004e 1C840000 		e_la %r4,.LC6@l(%r4)
 188 0052 1CA50000 		e_la %r5,.LC7@l(%r5)
 189 0056 78000001 		e_bl chprintf
 190              	.LVL18:
 191              		.loc 2 79 0
 192 005a 01F3     		se_mr %r3,%r31
 193 005c 7080E000 		e_lis %r4,.LC8@ha
 194 0060 70A0E000 		e_lis %r5,.LC9@ha
 195 0064 1C840000 		e_la %r4,.LC8@l(%r4)
 196 0068 1CA50000 		e_la %r5,.LC9@l(%r5)
 197 006c 78000001 		e_bl chprintf
 198              	.LVL19:
 199              		.loc 2 81 0
 200 0070 01F3     		se_mr %r3,%r31
 201 0072 7080E000 		e_lis %r4,.LC10@ha
 202 0076 70A0E000 		e_lis %r5,.LC11@ha
 203 007a 1C840000 		e_la %r4,.LC10@l(%r4)
 204 007e 1CA50000 		e_la %r5,.LC11@l(%r5)
 205 0082 78000001 		e_bl chprintf
 206              	.LVL20:
 207              		.loc 2 84 0
 208 0086 01F3     		se_mr %r3,%r31
 209 0088 7080E000 		e_lis %r4,.LC12@ha
 210 008c 70A0E000 		e_lis %r5,.LC13@ha
 211 0090 1C840000 		e_la %r4,.LC12@l(%r4)
 212 0094 1CA50000 		e_la %r5,.LC13@l(%r5)
 213 0098 78000001 		e_bl chprintf
 214              	.LVL21:
 215              		.loc 2 87 0
 216 009c 01F3     		se_mr %r3,%r31
 217 009e 7080E000 		e_lis %r4,.LC14@ha
 218 00a2 70A0E000 		e_lis %r5,.LC15@ha
 219 00a6 1C840000 		e_la %r4,.LC14@l(%r4)
 220 00aa 1CA50000 		e_la %r5,.LC15@l(%r5)
 221 00ae 78000001 		e_bl chprintf
 222              	.LVL22:
 223              		.loc 2 90 0
 224 00b2 01F3     		se_mr %r3,%r31
 225 00b4 7080E000 		e_lis %r4,.LC16@ha
 226 00b8 70A0E000 		e_lis %r5,.LC17@ha
 227 00bc 1C840000 		e_la %r4,.LC16@l(%r4)
 228 00c0 1CA50000 		e_la %r5,.LC17@l(%r5)
GAS LISTING C:\Users\jean\AppData\Local\Temp\cc469ATC.s 			page 5


 229 00c4 78000001 		e_bl chprintf
 230              	.LVL23:
 231              	.LBE47:
 232              	.LBE46:
 233              		.loc 2 97 0
 234 00c8 C501     		se_lwz %r0,20(%r1)
 235              	.LBB52:
 236              	.LBB48:
 237              		.loc 2 94 0
 238 00ca 01F3     		se_mr %r3,%r31
 239 00cc 7080E000 		e_lis %r4,.LC18@ha
 240              	.LBE48:
 241              	.LBE52:
 242              		.loc 2 97 0
 243 00d0 C3F1     		se_lwz %r31,12(%r1)
 244              	.LVL24:
 245              	.LBB53:
 246              	.LBB49:
 247              		.loc 2 94 0
 248 00d2 70A0E000 		e_lis %r5,.LC19@ha
 249 00d6 70C0E000 		e_lis %r6,.LC20@ha
 250 00da 70E0E000 		e_lis %r7,.LC21@ha
 251              	.LBE49:
 252              	.LBE53:
 253              		.loc 2 97 0
 254              	.LBB54:
 255              	.LBB50:
 256              		.loc 2 94 0
 257 00de 1C840000 		e_la %r4,.LC18@l(%r4)
 258 00e2 1CA50000 		e_la %r5,.LC19@l(%r5)
 259 00e6 1CC60000 		e_la %r6,.LC20@l(%r6)
 260 00ea 1CE70000 		e_la %r7,.LC21@l(%r7)
 261              	.LBE50:
 262              	.LBE54:
 263              		.loc 2 97 0
 264 00ee 0090     		se_mtlr %r0
 265              		.cfi_restore 65
 266 00f0 20F1     		se_addi %r1,16
 267              	.LCFI5:
 268              		.cfi_restore 31
 269              		.cfi_def_cfa_offset 0
 270              	.LBB55:
 271              	.LBB51:
 272              		.loc 2 94 0
 273 00f2 78000000 		e_b chprintf
 274              	.LVL25:
 275              	.LBE51:
 276              	.LBE55:
 277              		.cfi_endproc
 278              	.LFE48:
 279              		.size	cmd_info, .-cmd_info
 280              		.section	.text._strtok.constprop.2,"axv",@progbits
 281              		.align 1
 282              		.p2align 4,,15
 283              		.type	_strtok.constprop.2, @function
 284              	_strtok.constprop.2:
 285              	.LFB59:
GAS LISTING C:\Users\jean\AppData\Local\Temp\cc469ATC.s 			page 6


 286              		.loc 2 37 0
 287              		.cfi_startproc
 288              	.LVL26:
 289 0000 182106E8 		e_stwu %r1,-24(%r1)
 290              	.LCFI6:
 291              		.cfi_def_cfa_offset 24
 292 0004 0080     		se_mflr %r0
 293 0006 1BA1090C 		e_stmw %r29,12(%r1)
 294 000a D701     		se_stw %r0,28(%r1)
 295              		.cfi_offset 65, 4
 296              		.cfi_offset 29, -12
 297              		.cfi_offset 30, -8
 298              		.cfi_offset 31, -4
 299              		.loc 2 39 0
 300 000c 013F     		se_mr %r31,%r3
 301              		.loc 2 37 0
 302 000e 014D     		se_mr %r29,%r4
 303              		.loc 2 39 0
 304 0010 2A0F     		se_cmpi %r31,0
 305 0012 7A12005E 		e_beq %cr0,.L8
 306              		.loc 2 40 0
 307 0016 D0F4     		se_stw %r31,0(%r4)
 308              	.LVL27:
 309              		.loc 2 46 0
 310 0018 01F3     		se_mr %r3,%r31
 311 001a 73C0E000 		e_lis %r30,.LC22@ha
 312 001e 1FDE0000 		e_la %r30,.LC22@l(%r30)
 313 0022 01E4     		se_mr %r4,%r30
 314              	.LVL28:
 315 0024 78000001 		e_bl strspn
 316              	.LVL29:
 317              		.loc 2 47 0
 318 0028 01E4     		se_mr %r4,%r30
 319              		.loc 2 46 0
 320 002a 043F     		se_add %r31,%r3
 321              	.LVL30:
 322              		.loc 2 47 0
 323 002c 01F3     		se_mr %r3,%r31
 324 002e 78000001 		e_bl strpbrk
 325              	.LVL31:
 326              		.loc 2 48 0
 327 0032 2A03     		se_cmpi %r3,0
 328 0034 7A120066 		e_beq %cr0,.L18
 329              	.L11:
 330              		.loc 2 49 0
 331 0038 19238001 		e_addi %r9,%r3,1
 332 003c 553D0000 		e_stw %r9,0(%r29)
 333 0040 71200000 		e_li %r9,0
 334 0044 35230000 		e_stb %r9,0(%r3)
 335              	.L12:
 336              		.loc 2 51 0
 337 0048 313F0000 		e_lbz %r9,0(%r31)
 338 004c 1829A800 		e_cmpi %cr1,%r9,0
 339 0050 7A060012 		e_bne %cr1,.L19
 340              	.L13:
 341              		.loc 2 52 0
 342 0054 C701     		se_lwz %r0,28(%r1)
GAS LISTING C:\Users\jean\AppData\Local\Temp\cc469ATC.s 			page 7


 343 0056 0090     		se_mtlr %r0
 344              		.cfi_remember_state
 345              		.cfi_restore 65
 346 0058 1BA1080C 		e_lmw %r29,12(%r1)
 347              	.LVL32:
 348              		.loc 2 44 0
 349 005c 4803     		se_li %r3,0
 350              		.loc 2 52 0
 351 005e 2171     		se_addi %r1,24
 352              	.LCFI7:
 353              		.cfi_restore 31
 354              		.cfi_restore 30
 355              		.cfi_restore 29
 356              		.cfi_def_cfa_offset 0
 357 0060 0004     		se_blr
 358              	.LVL33:
 359              	.L19:
 360              	.LCFI8:
 361              		.cfi_restore_state
 362 0062 C701     		se_lwz %r0,28(%r1)
 363 0064 0090     		se_mtlr %r0
 364              		.cfi_remember_state
 365              		.cfi_restore 65
 366              		.loc 2 51 0
 367 0066 01F3     		se_mr %r3,%r31
 368              		.loc 2 52 0
 369 0068 1BA1080C 		e_lmw %r29,12(%r1)
 370              	.LVL34:
 371 006c 2171     		se_addi %r1,24
 372              	.LCFI9:
 373              		.cfi_restore 29
 374              		.cfi_restore 30
 375              		.cfi_restore 31
 376              		.cfi_def_cfa_offset 0
 377 006e 0004     		se_blr
 378              	.LVL35:
 379              	.L8:
 380              	.LCFI10:
 381              		.cfi_restore_state
 382              		.loc 2 41 0
 383 0070 C0F4     		se_lwz %r31,0(%r4)
 384              	.LVL36:
 385              		.loc 2 43 0
 386 0072 183FA800 		e_cmpi %cr1,%r31,0
 387 0076 7A16FFDE 		e_beq %cr1,.L13
 388              		.loc 2 46 0
 389 007a 01F3     		se_mr %r3,%r31
 390              	.LVL37:
 391 007c 73C0E000 		e_lis %r30,.LC22@ha
 392 0080 1FDE0000 		e_la %r30,.LC22@l(%r30)
 393 0084 01E4     		se_mr %r4,%r30
 394              	.LVL38:
 395 0086 78000001 		e_bl strspn
 396              	.LVL39:
 397              		.loc 2 47 0
 398 008a 01E4     		se_mr %r4,%r30
 399              		.loc 2 46 0
GAS LISTING C:\Users\jean\AppData\Local\Temp\cc469ATC.s 			page 8


 400 008c 043F     		se_add %r31,%r3
 401              	.LVL40:
 402              		.loc 2 47 0
 403 008e 01F3     		se_mr %r3,%r31
 404 0090 78000001 		e_bl strpbrk
 405              	.LVL41:
 406              		.loc 2 48 0
 407 0094 2A03     		se_cmpi %r3,0
 408 0096 7A02FFA2 		e_bne %cr0,.L11
 409              	.L18:
 410              		.loc 2 47 0
 411 009a D03D     		se_stw %r3,0(%r29)
 412 009c 79FFFFAC 		e_b .L12
 413              		.cfi_endproc
 414              	.LFE59:
 415              		.size	_strtok.constprop.2, .-_strtok.constprop.2
 416              		.section	.text.shellInit,"axv",@progbits
 417              		.align 1
 418              		.p2align 4,,15
 419              		.globl shellInit
 420              		.type	shellInit, @function
 421              	shellInit:
 422              	.LFB52:
 423              		.loc 2 204 0
 424              		.cfi_startproc
 425              		.loc 2 206 0
 426 0000 7120E000 		e_lis %r9,.LANCHOR0@ha
 427 0004 1D490000 		e_la %r10,.LANCHOR0@l(%r9)
 428 0008 55490000 		e_stw %r10,.LANCHOR0@l(%r9)
 429 000c 0004     		se_blr
 430              		.cfi_endproc
 431              	.LFE52:
 432              		.size	shellInit, .-shellInit
 433              		.section	.text.shellExit,"axv",@progbits
 434              		.align 1
 435              		.p2align 4,,15
 436              		.globl shellExit
 437              		.type	shellExit, @function
 438              	shellExit:
 439              	.LFB53:
 440              		.loc 2 218 0
 441              		.cfi_startproc
 442              	.LVL42:
 443 0000 182106F0 		e_stwu %r1,-16(%r1)
 444              	.LCFI11:
 445              		.cfi_def_cfa_offset 16
 446 0004 0080     		se_mflr %r0
 447 0006 D3F1     		se_stw %r31,12(%r1)
 448 0008 D501     		se_stw %r0,20(%r1)
 449              		.cfi_offset 65, 4
 450              		.cfi_offset 31, -4
 451              		.loc 2 218 0
 452 000a 013F     		se_mr %r31,%r3
 453              	.LBB56:
 454              	.LBB57:
 455              		.file 3 "./components/chibios_rt_portable_kernel_component/lib/include/chsys.h"
 456              		.loc 3 149 0
GAS LISTING C:\Users\jean\AppData\Local\Temp\cc469ATC.s 			page 9


 457              	 # 149 "./components/chibios_rt_portable_kernel_component/lib/include/chsys.h" 1
 458 000c 7C000146 		wrteei  0
 459              	 # 0 "" 2
 460              	.LBE57:
 461              	.LBE56:
 462              		.loc 2 223 0
 463 0010 4804     		se_li %r4,0
 464 0012 7060E000 		e_lis %r3,.LANCHOR0@ha
 465              	.LVL43:
 466 0016 1C630000 		e_la %r3,.LANCHOR0@l(%r3)
 467 001a 78000001 		e_bl chEvtBroadcastFlagsI
 468              	.LVL44:
 469              		.loc 2 225 0
 470 001e C501     		se_lwz %r0,20(%r1)
 471              		.loc 2 224 0
 472 0020 01F3     		se_mr %r3,%r31
 473              		.loc 2 225 0
 474 0022 0090     		se_mtlr %r0
 475              		.cfi_restore 65
 476 0024 C3F1     		se_lwz %r31,12(%r1)
 477              	.LVL45:
 478 0026 20F1     		se_addi %r1,16
 479              	.LCFI12:
 480              		.cfi_restore 31
 481              		.cfi_def_cfa_offset 0
 482              		.loc 2 224 0
 483 0028 78000000 		e_b chThdExitS
 484              	.LVL46:
 485              		.cfi_endproc
 486              	.LFE53:
 487              		.size	shellExit, .-shellExit
 488              		.section	.text.shellCreate,"axv",@progbits
 489              		.align 1
 490              		.p2align 4,,15
 491              		.globl shellCreate
 492              		.type	shellCreate, @function
 493              	shellCreate:
 494              	.LFB54:
 495              		.loc 2 240 0
 496              		.cfi_startproc
 497              	.LVL47:
 498              		.loc 2 240 0
 499 0000 0137     		se_mr %r7,%r3
 500              		.loc 2 242 0
 501 0002 70C0E000 		e_lis %r6,shell_thread@ha
 502 0006 4803     		se_li %r3,0
 503              	.LVL48:
 504 0008 1CC60000 		e_la %r6,shell_thread@l(%r6)
 505              		.loc 2 243 0
 506              		.loc 2 242 0
 507 000c 78000000 		e_b chThdCreateFromHeap
 508              	.LVL49:
 509              		.cfi_endproc
 510              	.LFE54:
 511              		.size	shellCreate, .-shellCreate
 512              		.section	.text.shellCreateStatic,"axv",@progbits
 513              		.align 1
GAS LISTING C:\Users\jean\AppData\Local\Temp\cc469ATC.s 			page 10


 514              		.p2align 4,,15
 515              		.globl shellCreateStatic
 516              		.type	shellCreateStatic, @function
 517              	shellCreateStatic:
 518              	.LFB55:
 519              		.loc 2 258 0
 520              		.cfi_startproc
 521              	.LVL50:
 522              		.loc 2 258 0
 523 0000 0137     		se_mr %r7,%r3
 524              		.loc 2 261 0
 525              		.loc 2 260 0
 526 0002 0143     		se_mr %r3,%r4
 527              	.LVL51:
 528 0004 0154     		se_mr %r4,%r5
 529              	.LVL52:
 530 0006 0165     		se_mr %r5,%r6
 531              	.LVL53:
 532 0008 70C0E000 		e_lis %r6,shell_thread@ha
 533              	.LVL54:
 534 000c 1CC60000 		e_la %r6,shell_thread@l(%r6)
 535 0010 78000000 		e_b chThdCreateStatic
 536              	.LVL55:
 537              		.cfi_endproc
 538              	.LFE55:
 539              		.size	shellCreateStatic, .-shellCreateStatic
 540              		.section	.text.shellGetLine,"axv",@progbits
 541              		.align 1
 542              		.p2align 4,,15
 543              		.globl shellGetLine
 544              		.type	shellGetLine, @function
 545              	shellGetLine:
 546              	.LFB56:
 547              		.loc 2 275 0
 548              		.cfi_startproc
 549              	.LVL56:
 550 0000 182106D8 		e_stwu %r1,-40(%r1)
 551              	.LCFI13:
 552              		.cfi_def_cfa_offset 40
 553 0004 0080     		se_mflr %r0
 554 0006 1B810918 		e_stmw %r28,24(%r1)
 555              	.LBB58:
 556              		.loc 2 303 0
 557 000a 18A584FF 		e_addi %r5,%r5,-1
 558              	.LVL57:
 559              	.LBE58:
 560              		.loc 2 275 0
 561 000e DB01     		se_stw %r0,44(%r1)
 562              		.cfi_offset 65, 4
 563              		.cfi_offset 28, -16
 564              		.cfi_offset 29, -12
 565              		.cfi_offset 30, -8
 566              		.cfi_offset 31, -4
 567              		.loc 2 275 0
 568 0010 014D     		se_mr %r29,%r4
 569              	.LVL58:
 570 0012 013F     		se_mr %r31,%r3
GAS LISTING C:\Users\jean\AppData\Local\Temp\cc469ATC.s 			page 11


 571 0014 014E     		se_mr %r30,%r4
 572              	.LBB59:
 573              		.loc 2 303 0
 574 0016 7F842A14 		add %r28,%r4,%r5
 575              	.LVL59:
 576              	.L25:
 577              		.loc 2 281 0
 578 001a 513F0000 		e_lwz %r9,0(%r31)
 579 001e 18818008 		e_addi %r4,%r1,8
 580 0022 51290004 		e_lwz %r9,4(%r9)
 581 0026 01F3     		se_mr %r3,%r31
 582 0028 4815     		se_li %r5,1
 583 002a 7D2903A6 		mtctr %r9
 584 002e 0007     		se_bctrl
 585              	.LVL60:
 586 0030 1823A800 		e_cmpi %cr1,%r3,0
 587 0034 7A16006C 		e_beq %cr1,.L34
 588              	.L42:
 589              		.loc 2 283 0
 590 0038 8841     		se_lbz %r4,8(%r1)
 591 003a 18A4A804 		e_cmpli %cr1,%r4,4
 592 003e 7A1600B4 		e_beq %cr1,.L40
 593              		.loc 2 287 0
 594 0042 18A4A808 		e_cmpli %cr1,%r4,8
 595 0046 7A16006A 		e_beq %cr1,.L28
 596              		.loc 2 287 0 is_stmt 0 discriminator 1
 597 004a 18A4A87F 		e_cmpli %cr1,%r4,127
 598 004e 7A160062 		e_beq %cr1,.L28
 599              		.loc 2 296 0 is_stmt 1
 600 0052 18A4A80D 		e_cmpli %cr1,%r4,13
 601 0056 7A1600BA 		e_beq %cr1,.L41
 602              		.loc 2 301 0
 603 005a 18A4A81F 		e_cmpli %cr1,%r4,31
 604 005e 7A05FFBC 		e_ble %cr1,.L25
 605              		.loc 2 303 0
 606 0062 0DCE     		se_cmpl %r30,%r28
 607 0064 7A00FFB6 		e_bge %cr0,.L25
 608              		.loc 2 304 0
 609 0068 513F0000 		e_lwz %r9,0(%r31)
 610 006c 01F3     		se_mr %r3,%r31
 611 006e 51290008 		e_lwz %r9,8(%r9)
 612 0072 7D2903A6 		mtctr %r9
 613              		.loc 2 305 0
 614 0076 200E     		se_addi %r30,1
 615              	.LVL61:
 616              		.loc 2 304 0
 617 0078 0007     		se_bctrl
 618              	.LVL62:
 619              		.loc 2 305 0
 620 007a 31210008 		e_lbz %r9,8(%r1)
 621              		.loc 2 281 0
 622 007e 18818008 		e_addi %r4,%r1,8
 623              		.loc 2 305 0
 624 0082 353EFFFF 		e_stb %r9,-1(%r30)
 625              	.LVL63:
 626              		.loc 2 281 0
 627 0086 01F3     		se_mr %r3,%r31
GAS LISTING C:\Users\jean\AppData\Local\Temp\cc469ATC.s 			page 12


 628 0088 513F0000 		e_lwz %r9,0(%r31)
 629 008c 4815     		se_li %r5,1
 630 008e 51290004 		e_lwz %r9,4(%r9)
 631 0092 7D2903A6 		mtctr %r9
 632 0096 0007     		se_bctrl
 633              	.LVL64:
 634 0098 1823A800 		e_cmpi %cr1,%r3,0
 635 009c 7A06FF9C 		e_bne %cr1,.L42
 636              	.L34:
 637              	.LBE59:
 638              		.loc 2 308 0
 639 00a0 CB01     		se_lwz %r0,44(%r1)
 640 00a2 0090     		se_mtlr %r0
 641              		.cfi_remember_state
 642              		.cfi_restore 65
 643 00a4 1B810818 		e_lmw %r28,24(%r1)
 644              	.LVL65:
 645              	.LBB60:
 646              		.loc 2 282 0
 647 00a8 4813     		se_li %r3,1
 648              	.LBE60:
 649              		.loc 2 308 0
 650 00aa 18218028 		e_addi %r1,%r1,40
 651              	.LCFI14:
 652              		.cfi_restore 31
 653              		.cfi_restore 30
 654              		.cfi_restore 29
 655              		.cfi_restore 28
 656              		.cfi_def_cfa_offset 0
 657 00ae 0004     		se_blr
 658              	.LVL66:
 659              	.L28:
 660              	.LCFI15:
 661              		.cfi_restore_state
 662              	.LBB61:
 663              		.loc 2 289 0
 664 00b0 01F3     		se_mr %r3,%r31
 665              		.loc 2 288 0
 666 00b2 0DDE     		se_cmpl %r30,%r29
 667 00b4 7A12FF66 		e_beq %cr0,.L25
 668              	.LVL67:
 669              		.loc 2 289 0
 670 00b8 513F0000 		e_lwz %r9,0(%r31)
 671 00bc 51290008 		e_lwz %r9,8(%r9)
 672 00c0 7D2903A6 		mtctr %r9
 673              		.loc 2 292 0
 674 00c4 1BDE84FF 		e_addi %r30,%r30,-1
 675              	.LVL68:
 676              		.loc 2 289 0
 677 00c8 0007     		se_bctrl
 678              	.LVL69:
 679              		.loc 2 290 0
 680 00ca 513F0000 		e_lwz %r9,0(%r31)
 681 00ce 01F3     		se_mr %r3,%r31
 682 00d0 51290008 		e_lwz %r9,8(%r9)
 683 00d4 4A04     		se_li %r4,32
 684 00d6 7D2903A6 		mtctr %r9
GAS LISTING C:\Users\jean\AppData\Local\Temp\cc469ATC.s 			page 13


 685 00da 0007     		se_bctrl
 686              	.LVL70:
 687              		.loc 2 291 0
 688 00dc 513F0000 		e_lwz %r9,0(%r31)
 689 00e0 01F3     		se_mr %r3,%r31
 690 00e2 51290008 		e_lwz %r9,8(%r9)
 691 00e6 8841     		se_lbz %r4,8(%r1)
 692 00e8 7D2903A6 		mtctr %r9
 693 00ec 0007     		se_bctrl
 694              	.LVL71:
 695 00ee 79FFFF2C 		e_b .L25
 696              	.L40:
 697              		.loc 2 284 0
 698 00f2 01F3     		se_mr %r3,%r31
 699 00f4 7080E000 		e_lis %r4,.LC23@ha
 700 00f8 1C840000 		e_la %r4,.LC23@l(%r4)
 701 00fc 78000001 		e_bl chprintf
 702              	.LVL72:
 703              	.LBE61:
 704              		.loc 2 308 0
 705 0100 CB01     		se_lwz %r0,44(%r1)
 706 0102 0090     		se_mtlr %r0
 707              		.cfi_remember_state
 708              		.cfi_restore 65
 709 0104 1B810818 		e_lmw %r28,24(%r1)
 710              	.LVL73:
 711              	.LBB62:
 712              		.loc 2 285 0
 713 0108 4813     		se_li %r3,1
 714              	.LBE62:
 715              		.loc 2 308 0
 716 010a 18218028 		e_addi %r1,%r1,40
 717              	.LCFI16:
 718              		.cfi_restore 28
 719              		.cfi_restore 29
 720              		.cfi_restore 30
 721              		.cfi_restore 31
 722              		.cfi_def_cfa_offset 0
 723 010e 0004     		se_blr
 724              	.LVL74:
 725              	.L41:
 726              	.LCFI17:
 727              		.cfi_restore_state
 728              	.LBB63:
 729              		.loc 2 297 0
 730 0110 01F3     		se_mr %r3,%r31
 731 0112 7080E000 		e_lis %r4,.LC24@ha
 732 0116 1C840000 		e_la %r4,.LC24@l(%r4)
 733 011a 78000001 		e_bl chprintf
 734              	.LVL75:
 735              		.loc 2 298 0
 736 011e 71200000 		e_li %r9,0
 737 0122 353E0000 		e_stb %r9,0(%r30)
 738              	.LBE63:
 739              		.loc 2 308 0
 740 0126 CB01     		se_lwz %r0,44(%r1)
 741 0128 0090     		se_mtlr %r0
GAS LISTING C:\Users\jean\AppData\Local\Temp\cc469ATC.s 			page 14


 742              		.cfi_restore 65
 743 012a 1B810818 		e_lmw %r28,24(%r1)
 744              	.LVL76:
 745              	.LBB64:
 746              		.loc 2 299 0
 747 012e 4803     		se_li %r3,0
 748              	.LBE64:
 749              		.loc 2 308 0
 750 0130 18218028 		e_addi %r1,%r1,40
 751              	.LCFI18:
 752              		.cfi_restore 28
 753              		.cfi_restore 29
 754              		.cfi_restore 30
 755              		.cfi_restore 31
 756              		.cfi_def_cfa_offset 0
 757 0134 0004     		se_blr
 758              		.cfi_endproc
 759              	.LFE56:
 760              		.size	shellGetLine, .-shellGetLine
 761              		.section	.text.shell_thread,"axv",@progbits
 762              		.align 1
 763              		.p2align 4,,15
 764              		.type	shell_thread, @function
 765              	shell_thread:
 766              	.LFB51:
 767              		.loc 2 141 0
 768              		.cfi_startproc
 769              	.LVL77:
 770 0000 701F7F58 		e_li %r0,-168
 771              		.loc 2 148 0
 772 0004 7120E000 		e_lis %r9,rlist+24@ha
 773              		.loc 2 141 0
 774 0008 7C21016E 		stwux %r1,%r1,%r0
 775              	.LCFI19:
 776              		.cfi_def_cfa_offset 168
 777              		.loc 2 148 0
 778 000c 51490000 		e_lwz %r10,rlist+24@l(%r9)
 779              		.loc 2 141 0
 780 0010 56410070 		e_stw %r18,112(%r1)
 781 0014 56610074 		e_stw %r19,116(%r1)
 782 0018 56810078 		e_stw %r20,120(%r1)
 783 001c 56A1007C 		e_stw %r21,124(%r1)
 784 0020 56C10080 		e_stw %r22,128(%r1)
 785 0024 56E10084 		e_stw %r23,132(%r1)
 786 0028 57010088 		e_stw %r24,136(%r1)
 787 002c 57410090 		e_stw %r26,144(%r1)
 788 0030 57610094 		e_stw %r27,148(%r1)
 789 0034 57810098 		e_stw %r28,152(%r1)
 790 0038 0080     		se_mflr %r0
 791 003a 5621006C 		e_stw %r17,108(%r1)
 792 003e 540100AC 		e_stw %r0,172(%r1)
 793 0042 5721008C 		e_stw %r25,140(%r1)
 794              		.cfi_offset 18, -56
 795              		.cfi_offset 19, -52
 796              		.cfi_offset 20, -48
 797              		.cfi_offset 21, -44
 798              		.cfi_offset 22, -40
GAS LISTING C:\Users\jean\AppData\Local\Temp\cc469ATC.s 			page 15


 799              		.cfi_offset 23, -36
 800              		.cfi_offset 24, -32
 801              		.cfi_offset 26, -24
 802              		.cfi_offset 27, -20
 803              		.cfi_offset 28, -16
 804              		.cfi_offset 65, 4
 805              		.cfi_offset 17, -60
 806              		.cfi_offset 25, -28
 807              		.loc 2 143 0
 808 0046 C0C3     		se_lwz %r28,0(%r3)
 809              	.LVL78:
 810              		.loc 2 144 0
 811 0048 52630004 		e_lwz %r19,4(%r3)
 812              	.LVL79:
 813              		.loc 2 141 0
 814 004c 57A1009C 		e_stw %r29,156(%r1)
 815 0050 57C100A0 		e_stw %r30,160(%r1)
 816 0054 57E100A4 		e_stw %r31,164(%r1)
 817              		.cfi_offset 29, -12
 818              		.cfi_offset 30, -8
 819              		.cfi_offset 31, -4
 820              		.loc 2 149 0
 821 0058 01C3     		se_mr %r3,%r28
 822              	.LVL80:
 823              		.loc 2 148 0
 824 005a 7120E000 		e_lis %r9,.LC25@ha
 825              		.loc 2 149 0
 826 005e 7080E000 		e_lis %r4,.LC26@ha
 827              		.loc 2 148 0
 828 0062 1D290000 		e_la %r9,.LC25@l(%r9)
 829              		.loc 2 149 0
 830 0066 1C840000 		e_la %r4,.LC26@l(%r4)
 831              		.loc 2 148 0
 832 006a 552A0018 		e_stw %r9,24(%r10)
 833 006e 7360E000 		e_lis %r27,.LC27@ha
 834              		.loc 2 161 0
 835 0072 7340E000 		e_lis %r26,.LC29@ha
 836              		.loc 2 169 0
 837 0076 72E0E000 		e_lis %r23,.LC30@ha
 838              		.loc 2 176 0
 839 007a 72C0E000 		e_lis %r22,.LC31@ha
 840              		.loc 2 181 0
 841 007e 7280E000 		e_lis %r20,.LC32@ha
 842              	.LBB77:
 843              	.LBB78:
 844              		.loc 2 61 0
 845 0082 72A0E000 		e_lis %r21,.LANCHOR1@ha
 846 0086 7300E000 		e_lis %r24,.LC33@ha
 847              	.LBE78:
 848              	.LBE77:
 849              		.loc 2 149 0
 850 008a 78000001 		e_bl chprintf
 851              	.LVL81:
 852              		.loc 2 185 0
 853 008e 7240E000 		e_lis %r18,.LC24@ha
 854 0092 1F7B0000 		e_la %r27,.LC27@l(%r27)
 855              		.loc 2 161 0
GAS LISTING C:\Users\jean\AppData\Local\Temp\cc469ATC.s 			page 16


 856 0096 1F5A0000 		e_la %r26,.LC29@l(%r26)
 857              		.loc 2 169 0
 858 009a 1EF70000 		e_la %r23,.LC30@l(%r23)
 859              		.loc 2 176 0
 860 009e 1ED60000 		e_la %r22,.LC31@l(%r22)
 861              		.loc 2 181 0
 862 00a2 1E940000 		e_la %r20,.LC32@l(%r20)
 863              	.LBB82:
 864              	.LBB79:
 865              		.loc 2 61 0
 866 00a6 1EB50000 		e_la %r21,.LANCHOR1@l(%r21)
 867 00aa 1F180000 		e_la %r24,.LC33@l(%r24)
 868              	.L44:
 869              	.LBE79:
 870              	.LBE82:
 871              		.loc 2 156 0
 872 00ae 1BA1805C 		e_addi %r29,%r1,92
 873              		.loc 2 158 0
 874 00b2 4809     		se_li %r25,0
 875              	.L45:
 876              		.loc 2 151 0
 877 00b4 01C3     		se_mr %r3,%r28
 878 00b6 01B4     		se_mr %r4,%r27
 879 00b8 78000001 		e_bl chprintf
 880              	.LVL82:
 881              		.loc 2 152 0
 882 00bc 01C3     		se_mr %r3,%r28
 883 00be 18818008 		e_addi %r4,%r1,8
 884 00c2 4C05     		se_li %r5,64
 885 00c4 78000001 		e_bl shellGetLine
 886              	.LVL83:
 887 00c8 1823A800 		e_cmpi %cr1,%r3,0
 888 00cc 7A0600AC 		e_bne %cr1,.L90
 889              	.L46:
 890              		.loc 2 156 0
 891 00d0 01D4     		se_mr %r4,%r29
 892 00d2 18618008 		e_addi %r3,%r1,8
 893 00d6 1BC18044 		e_addi %r30,%r1,68
 894 00da 78000001 		e_bl _strtok.constprop.2
 895              	.LVL84:
 896              		.loc 2 158 0
 897 00de 480F     		se_li %r31,0
 898              		.loc 2 156 0
 899 00e0 0239     		se_mtar %r17,%r3
 900              	.LVL85:
 901              		.loc 2 159 0
 902 00e2 01D4     		se_mr %r4,%r29
 903 00e4 4803     		se_li %r3,0
 904              	.LVL86:
 905 00e6 78000001 		e_bl _strtok.constprop.2
 906              	.LVL87:
 907 00ea 2A03     		se_cmpi %r3,0
 908 00ec 7A120020 		e_beq %cr0,.L91
 909              	.LVL88:
 910              	.L51:
 911              		.loc 2 160 0
 912 00f0 183FA804 		e_cmpi %cr1,%r31,4
GAS LISTING C:\Users\jean\AppData\Local\Temp\cc469ATC.s 			page 17


 913 00f4 7A16005C 		e_beq %cr1,.L92
 914              		.loc 2 165 0
 915 00f8 187E0604 		e_stwu %r3,4(%r30)
 916              		.loc 2 159 0
 917 00fc 01D4     		se_mr %r4,%r29
 918 00fe 4803     		se_li %r3,0
 919              	.LVL89:
 920              		.loc 2 165 0
 921 0100 200F     		se_addi %r31,1
 922              	.LVL90:
 923              		.loc 2 159 0
 924 0102 78000001 		e_bl _strtok.constprop.2
 925              	.LVL91:
 926 0106 2A03     		se_cmpi %r3,0
 927 0108 7A02FFE8 		e_bne %cr0,.L51
 928              	.L91:
 929              		.loc 2 167 0
 930 010c 7FE91070 		e_slwi %r9,%r31,2
 931 0110 19418008 		e_addi %r10,%r1,8
 932              		.loc 2 168 0
 933 0114 1831A800 		e_cmpi %cr1,%r17,0
 934              		.loc 2 167 0
 935 0118 7D2A4A14 		add %r9,%r10,%r9
 936 011c 54690040 		e_stw %r3,64(%r9)
 937              		.loc 2 168 0
 938 0120 7A16FF94 		e_beq %cr1,.L45
 939              		.loc 2 169 0
 940 0124 0393     		se_mfar %r3,%r17
 941              	.LVL92:
 942 0126 03F4     		se_mfar %r4,%r23
 943 0128 78000001 		e_bl strcasecmp
 944              	.LVL93:
 945 012c 1823A800 		e_cmpi %cr1,%r3,0
 946 0130 7A0600A6 		e_bne %cr1,.L52
 947              		.loc 2 170 0
 948 0134 183FA800 		e_cmpi %cr1,%r31,0
 949 0138 7A16004E 		e_beq %cr1,.L47
 950              	.LVL94:
 951              	.LBB83:
 952              	.LBB84:
 953              		.loc 2 56 0
 954 013c 01C3     		se_mr %r3,%r28
 955 013e 7080E000 		e_lis %r4,.LC0@ha
 956 0142 03F5     		se_mfar %r5,%r23
 957 0144 1C840000 		e_la %r4,.LC0@l(%r4)
 958 0148 78000001 		e_bl chprintf
 959              	.LVL95:
 960              	.LBE84:
 961              	.LBE83:
 962              		.loc 2 172 0
 963 014c 79FFFF62 		e_b .L44
 964              	.LVL96:
 965              	.L92:
 966              		.loc 2 161 0
 967 0150 01C3     		se_mr %r3,%r28
 968              	.LVL97:
 969 0152 01A4     		se_mr %r4,%r26
GAS LISTING C:\Users\jean\AppData\Local\Temp\cc469ATC.s 			page 18


 970 0154 78000001 		e_bl chprintf
 971              	.LVL98:
 972              		.loc 2 151 0
 973 0158 01C3     		se_mr %r3,%r28
 974 015a 01B4     		se_mr %r4,%r27
 975              		.loc 2 167 0
 976 015c 57210058 		e_stw %r25,88(%r1)
 977              		.loc 2 151 0
 978 0160 78000001 		e_bl chprintf
 979              	.LVL99:
 980              		.loc 2 152 0
 981 0164 01C3     		se_mr %r3,%r28
 982 0166 18818008 		e_addi %r4,%r1,8
 983 016a 4C05     		se_li %r5,64
 984 016c 78000001 		e_bl shellGetLine
 985              	.LVL100:
 986 0170 1823A800 		e_cmpi %cr1,%r3,0
 987 0174 7A16FF5C 		e_beq %cr1,.L46
 988              	.LVL101:
 989              	.L90:
 990              		.loc 2 153 0
 991 0178 7080E000 		e_lis %r4,.LC28@ha
 992 017c 01C3     		se_mr %r3,%r28
 993 017e 1C840000 		e_la %r4,.LC28@l(%r4)
 994 0182 78000001 		e_bl chprintf
 995              	.LVL102:
 996              	.L47:
 997              		.loc 2 194 0
 998 0186 4803     		se_li %r3,0
 999 0188 78000001 		e_bl shellExit
 1000              	.LVL103:
 1001              		.loc 2 197 0
 1002 018c 500100AC 		e_lwz %r0,172(%r1)
 1003 0190 0090     		se_mtlr %r0
 1004              		.cfi_remember_state
 1005              		.cfi_restore 65
 1006 0192 5221006C 		e_lwz %r17,108(%r1)
 1007 0196 52410070 		e_lwz %r18,112(%r1)
 1008 019a 52610074 		e_lwz %r19,116(%r1)
 1009              	.LVL104:
 1010 019e 52810078 		e_lwz %r20,120(%r1)
 1011 01a2 52A1007C 		e_lwz %r21,124(%r1)
 1012 01a6 52C10080 		e_lwz %r22,128(%r1)
 1013 01aa 52E10084 		e_lwz %r23,132(%r1)
 1014 01ae 53010088 		e_lwz %r24,136(%r1)
 1015 01b2 5321008C 		e_lwz %r25,140(%r1)
 1016 01b6 53410090 		e_lwz %r26,144(%r1)
 1017 01ba 53610094 		e_lwz %r27,148(%r1)
 1018 01be 53810098 		e_lwz %r28,152(%r1)
 1019              	.LVL105:
 1020 01c2 53A1009C 		e_lwz %r29,156(%r1)
 1021 01c6 53C100A0 		e_lwz %r30,160(%r1)
 1022 01ca 53E100A4 		e_lwz %r31,164(%r1)
 1023 01ce 4803     		se_li %r3,0
 1024 01d0 182180A8 		e_addi %r1,%r1,168
 1025              	.LCFI20:
 1026              		.cfi_restore 31
GAS LISTING C:\Users\jean\AppData\Local\Temp\cc469ATC.s 			page 19


 1027              		.cfi_restore 30
 1028              		.cfi_restore 29
 1029              		.cfi_restore 28
 1030              		.cfi_restore 27
 1031              		.cfi_restore 26
 1032              		.cfi_restore 25
 1033              		.cfi_restore 24
 1034              		.cfi_restore 23
 1035              		.cfi_restore 22
 1036              		.cfi_restore 21
 1037              		.cfi_restore 20
 1038              		.cfi_restore 19
 1039              		.cfi_restore 18
 1040              		.cfi_restore 17
 1041              		.cfi_def_cfa_offset 0
 1042 01d4 0004     		se_blr
 1043              	.LVL106:
 1044              	.L52:
 1045              	.LCFI21:
 1046              		.cfi_restore_state
 1047              		.loc 2 176 0
 1048 01d6 0393     		se_mfar %r3,%r17
 1049 01d8 03E4     		se_mfar %r4,%r22
 1050 01da 78000001 		e_bl strcasecmp
 1051              	.LVL107:
 1052 01de 1823A800 		e_cmpi %cr1,%r3,0
 1053 01e2 7A060020 		e_bne %cr1,.L93
 1054              	.LBB85:
 1055              	.LBB86:
 1056              		.loc 2 56 0
 1057 01e6 01C3     		se_mr %r3,%r28
 1058              	.LBE86:
 1059              	.LBE85:
 1060              		.loc 2 177 0
 1061 01e8 183FA800 		e_cmpi %cr1,%r31,0
 1062 01ec 7A160058 		e_beq %cr1,.L57
 1063              	.LVL108:
 1064              	.LBB88:
 1065              	.LBB87:
 1066              		.loc 2 56 0
 1067 01f0 7080E000 		e_lis %r4,.LC0@ha
 1068 01f4 03E5     		se_mfar %r5,%r22
 1069 01f6 1C840000 		e_la %r4,.LC0@l(%r4)
 1070 01fa 78000001 		e_bl chprintf
 1071              	.LVL109:
 1072              	.LBE87:
 1073              	.LBE88:
 1074              		.loc 2 179 0
 1075 01fe 79FFFEB0 		e_b .L44
 1076              	.LVL110:
 1077              	.L93:
 1078              	.LBB89:
 1079              	.LBB90:
 1080              		.loc 2 121 0
 1081 0202 50750000 		e_lwz %r3,0(%r21)
 1082 0206 03DE     		se_mfar %r30,%r21
 1083 0208 1823A800 		e_cmpi %cr1,%r3,0
GAS LISTING C:\Users\jean\AppData\Local\Temp\cc469ATC.s 			page 20


 1084 020c 7A060014 		e_bne %cr1,.L79
 1085 0210 78000094 		e_b .L56
 1086              	.LVL111:
 1087              	.L94:
 1088 0214 187E0208 		e_lwzu %r3,8(%r30)
 1089              	.LVL112:
 1090 0218 1823A800 		e_cmpi %cr1,%r3,0
 1091 021c 7A160088 		e_beq %cr1,.L56
 1092              	.LVL113:
 1093              	.L79:
 1094              		.loc 2 122 0
 1095 0220 0394     		se_mfar %r4,%r17
 1096 0222 78000001 		e_bl strcasecmp
 1097              	.LVL114:
 1098 0226 1823A800 		e_cmpi %cr1,%r3,0
 1099 022a 7A06FFEA 		e_bne %cr1,.L94
 1100              	.LVL115:
 1101              	.L89:
 1102              	.LBE90:
 1103              	.LBE89:
 1104              	.LBB91:
 1105              	.LBB92:
 1106              		.loc 2 123 0
 1107 022e 513E0004 		e_lwz %r9,4(%r30)
 1108 0232 01C3     		se_mr %r3,%r28
 1109 0234 01F4     		se_mr %r4,%r31
 1110 0236 18A18048 		e_addi %r5,%r1,72
 1111 023a 7D2903A6 		mtctr %r9
 1112 023e 0007     		se_bctrl
 1113              	.LVL116:
 1114 0240 79FFFE6E 		e_b .L44
 1115              	.LVL117:
 1116              	.L57:
 1117              	.LBE92:
 1118              	.LBE91:
 1119              		.loc 2 181 0
 1120 0244 03C4     		se_mfar %r4,%r20
 1121              	.LBB94:
 1122              	.LBB80:
 1123              		.loc 2 61 0
 1124 0246 03DF     		se_mfar %r31,%r21
 1125              	.LVL118:
 1126              	.LBE80:
 1127              	.LBE94:
 1128              		.loc 2 181 0
 1129 0248 78000001 		e_bl chprintf
 1130              	.LVL119:
 1131              	.LBB95:
 1132              	.LBB81:
 1133              		.loc 2 61 0
 1134 024c 50B50000 		e_lwz %r5,0(%r21)
 1135 0250 1825A800 		e_cmpi %cr1,%r5,0
 1136 0254 7A160018 		e_beq %cr1,.L62
 1137              	.LVL120:
 1138              	.L61:
 1139              		.loc 2 62 0
 1140 0258 01C3     		se_mr %r3,%r28
GAS LISTING C:\Users\jean\AppData\Local\Temp\cc469ATC.s 			page 21


 1141 025a 0184     		se_mr %r4,%r24
 1142 025c 78000001 		e_bl chprintf
 1143              	.LVL121:
 1144              		.loc 2 61 0
 1145 0260 18BF0208 		e_lwzu %r5,8(%r31)
 1146              	.LVL122:
 1147 0264 1825A800 		e_cmpi %cr1,%r5,0
 1148 0268 7A06FFF0 		e_bne %cr1,.L61
 1149              	.LVL123:
 1150              	.L62:
 1151              	.LBE81:
 1152              	.LBE95:
 1153              		.loc 2 183 0
 1154 026c 1833A800 		e_cmpi %cr1,%r19,0
 1155 0270 7A160026 		e_beq %cr1,.L60
 1156              	.LVL124:
 1157              	.LBB96:
 1158              	.LBB97:
 1159              		.loc 2 61 0
 1160 0274 50B30000 		e_lwz %r5,0(%r19)
 1161 0278 1825A800 		e_cmpi %cr1,%r5,0
 1162 027c 7A16001A 		e_beq %cr1,.L60
 1163 0280 03BF     		se_mfar %r31,%r19
 1164              	.LVL125:
 1165              	.L63:
 1166              		.loc 2 62 0
 1167 0282 01C3     		se_mr %r3,%r28
 1168 0284 0184     		se_mr %r4,%r24
 1169 0286 78000001 		e_bl chprintf
 1170              	.LVL126:
 1171              		.loc 2 61 0
 1172 028a 18BF0208 		e_lwzu %r5,8(%r31)
 1173              	.LVL127:
 1174 028e 1825A800 		e_cmpi %cr1,%r5,0
 1175 0292 7A06FFF0 		e_bne %cr1,.L63
 1176              	.LVL128:
 1177              	.L60:
 1178              	.LBE97:
 1179              	.LBE96:
 1180              		.loc 2 185 0
 1181 0296 01C3     		se_mr %r3,%r28
 1182 0298 1C920000 		e_la %r4,.LC24@l(%r18)
 1183 029c 78000001 		e_bl chprintf
 1184              	.LVL129:
 1185 02a0 79FFFE0E 		e_b .L44
 1186              	.LVL130:
 1187              	.L56:
 1188              		.loc 2 187 0
 1189 02a4 1833A800 		e_cmpi %cr1,%r19,0
 1190 02a8 7A160034 		e_beq %cr1,.L68
 1191              	.LVL131:
 1192              	.LBB98:
 1193              	.LBB93:
 1194              		.loc 2 121 0
 1195 02ac 50730000 		e_lwz %r3,0(%r19)
 1196 02b0 03BE     		se_mfar %r30,%r19
 1197 02b2 1823A800 		e_cmpi %cr1,%r3,0
GAS LISTING C:\Users\jean\AppData\Local\Temp\cc469ATC.s 			page 22


 1198 02b6 7A060014 		e_bne %cr1,.L78
 1199 02ba 78000022 		e_b .L68
 1200              	.LVL132:
 1201              	.L66:
 1202 02be 187E0208 		e_lwzu %r3,8(%r30)
 1203              	.LVL133:
 1204 02c2 1823A800 		e_cmpi %cr1,%r3,0
 1205 02c6 7A160016 		e_beq %cr1,.L68
 1206              	.LVL134:
 1207              	.L78:
 1208              		.loc 2 122 0
 1209 02ca 0394     		se_mfar %r4,%r17
 1210 02cc 78000001 		e_bl strcasecmp
 1211              	.LVL135:
 1212 02d0 1823A800 		e_cmpi %cr1,%r3,0
 1213 02d4 7A06FFEA 		e_bne %cr1,.L66
 1214 02d8 79FFFF56 		e_b .L89
 1215              	.LVL136:
 1216              	.L68:
 1217              	.LBE93:
 1218              	.LBE98:
 1219              		.loc 2 189 0
 1220 02dc 01C3     		se_mr %r3,%r28
 1221 02de 0395     		se_mfar %r5,%r17
 1222 02e0 7080E000 		e_lis %r4,.LC34@ha
 1223 02e4 1C840000 		e_la %r4,.LC34@l(%r4)
 1224 02e8 78000001 		e_bl chprintf
 1225              	.LVL137:
 1226              		.loc 2 190 0
 1227 02ec 01C3     		se_mr %r3,%r28
 1228 02ee 7080E000 		e_lis %r4,.LC35@ha
 1229 02f2 1C840000 		e_la %r4,.LC35@l(%r4)
 1230 02f6 78000001 		e_bl chprintf
 1231              	.LVL138:
 1232 02fa 79FFFDB4 		e_b .L44
 1233              		.cfi_endproc
 1234              	.LFE51:
 1235              		.size	shell_thread, .-shell_thread
 1236              		.globl shell_terminated
 1237              		.section	.data.local_commands,"aw",@progbits
 1238              		.align 2
 1239              		.set	.LANCHOR1,. + 0
 1240              		.type	local_commands, @object
 1241              		.size	local_commands, 24
 1242              	local_commands:
 1243 0000 00000000 		.long	.LC3
 1244 0004 00000000 		.long	cmd_info
 1245 0008 00000000 		.long	.LC1
 1246 000c 00000000 		.long	cmd_systime
 1247 0010 00000000 		.long	0
 1248 0014 00000000 		.long	0
 1249              		.section	.rodata.str1.4,"aMS",@progbits,1
 1250              		.align 2
 1251              	.LC0:
 1252 0000 55736167 		.string	"Usage: %s\r\n"
 1252      653A2025 
 1252      730D0A00 
GAS LISTING C:\Users\jean\AppData\Local\Temp\cc469ATC.s 			page 23


 1253              	.LC1:
 1254 000c 73797374 		.string	"systime"
 1254      696D6500 
 1255              	.LC2:
 1256 0014 256C750D 		.string	"%lu\r\n"
 1256      0A00
 1257 001a 0000     		.zero	2
 1258              	.LC3:
 1259 001c 696E666F 		.string	"info"
 1259      00
 1260 0021 000000   		.zero	3
 1261              	.LC4:
 1262 0024 4B65726E 		.string	"Kernel:       %s\r\n"
 1262      656C3A20 
 1262      20202020 
 1262      20202573 
 1262      0D0A00
 1263 0037 00       		.zero	1
 1264              	.LC5:
 1265 0038 322E362E 		.string	"2.6.10"
 1265      313000
 1266 003f 00       		.zero	1
 1267              	.LC6:
 1268 0040 436F6D70 		.string	"Compiler:     %s\r\n"
 1268      696C6572 
 1268      3A202020 
 1268      20202573 
 1268      0D0A00
 1269 0053 00       		.zero	1
 1270              	.LC7:
 1271 0054 47434320 		.string	"GCC 4.9.2 20141030 (Wed Jun 8 08:37:55 MSK 2016         build.sh rev= ELvle)"
 1271      342E392E 
 1271      32203230 
 1271      31343130 
 1271      33302028 
 1272 00a1 000000   		.zero	3
 1273              	.LC8:
 1274 00a4 41726368 		.string	"Architecture: %s\r\n"
 1274      69746563 
 1274      74757265 
 1274      3A202573 
 1274      0D0A00
 1275 00b7 00       		.zero	1
 1276              	.LC9:
 1277 00b8 506F7765 		.string	"Power Architecture"
 1277      72204172 
 1277      63686974 
 1277      65637475 
 1277      726500
 1278 00cb 00       		.zero	1
 1279              	.LC10:
 1280 00cc 436F7265 		.string	"Core Variant: %s\r\n"
 1280      20566172 
 1280      69616E74 
 1280      3A202573 
 1280      0D0A00
 1281 00df 00       		.zero	1
GAS LISTING C:\Users\jean\AppData\Local\Temp\cc469ATC.s 			page 24


 1282              	.LC11:
 1283 00e0 65323030 		.string	"e200z0"
 1283      7A3000
 1284 00e7 00       		.zero	1
 1285              	.LC12:
 1286 00e8 506F7274 		.string	"Port Info:    %s\r\n"
 1286      20496E66 
 1286      6F3A2020 
 1286      20202573 
 1286      0D0A00
 1287 00fb 00       		.zero	1
 1288              	.LC13:
 1289 00fc 564C4520 		.string	"VLE mode"
 1289      6D6F6465 
 1289      00
 1290 0105 000000   		.zero	3
 1291              	.LC14:
 1292 0108 506C6174 		.string	"Platform:     %s\r\n"
 1292      666F726D 
 1292      3A202020 
 1292      20202573 
 1292      0D0A00
 1293 011b 00       		.zero	1
 1294              	.LC15:
 1295 011c 53504335 		.string	"SPC560Dxx Car Body and Convenience"
 1295      36304478 
 1295      78204361 
 1295      7220426F 
 1295      64792061 
 1296 013f 00       		.zero	1
 1297              	.LC16:
 1298 0140 426F6172 		.string	"Board:        %s\r\n"
 1298      643A2020 
 1298      20202020 
 1298      20202573 
 1298      0D0A00
 1299 0153 00       		.zero	1
 1300              	.LC17:
 1301 0154 53544D69 		.string	"STMicroelectronics SPC56D Discovery"
 1301      63726F65 
 1301      6C656374 
 1301      726F6E69 
 1301      63732053 
 1302              	.LC18:
 1303 0178 4275696C 		.string	"Build time:   %s%s%s\r\n"
 1303      64207469 
 1303      6D653A20 
 1303      20202573 
 1303      25732573 
 1304 018f 00       		.zero	1
 1305              	.LC19:
 1306 0190 4A616E20 		.string	"Jan 21 2017"
 1306      32312032 
 1306      30313700 
 1307              	.LC20:
 1308 019c 202D2000 		.string	" - "
 1309              	.LC21:
GAS LISTING C:\Users\jean\AppData\Local\Temp\cc469ATC.s 			page 25


 1310 01a0 31363A30 		.string	"16:02:44"
 1310      323A3434 
 1310      00
 1311 01a9 000000   		.zero	3
 1312              	.LC22:
 1313 01ac 200900   		.string	" \t"
 1314 01af 00       		.zero	1
 1315              	.LC23:
 1316 01b0 5E4400   		.string	"^D"
 1317 01b3 00       		.zero	1
 1318              	.LC24:
 1319 01b4 0D0A00   		.string	"\r\n"
 1320 01b7 00       		.zero	1
 1321              	.LC25:
 1322 01b8 7368656C 		.string	"shell"
 1322      6C00
 1323 01be 0000     		.zero	2
 1324              	.LC26:
 1325 01c0 0D0A4368 		.string	"\r\nChibiOS/RT Shell\r\n"
 1325      6962694F 
 1325      532F5254 
 1325      20536865 
 1325      6C6C0D0A 
 1326 01d5 000000   		.zero	3
 1327              	.LC27:
 1328 01d8 63683E20 		.string	"ch> "
 1328      00
 1329 01dd 000000   		.zero	3
 1330              	.LC28:
 1331 01e0 0D0A6C6F 		.string	"\r\nlogout"
 1331      676F7574 
 1331      00
 1332 01e9 000000   		.zero	3
 1333              	.LC29:
 1334 01ec 746F6F20 		.string	"too many arguments\r\n"
 1334      6D616E79 
 1334      20617267 
 1334      756D656E 
 1334      74730D0A 
 1335 0201 000000   		.zero	3
 1336              	.LC30:
 1337 0204 65786974 		.string	"exit"
 1337      00
 1338 0209 000000   		.zero	3
 1339              	.LC31:
 1340 020c 68656C70 		.string	"help"
 1340      00
 1341 0211 000000   		.zero	3
 1342              	.LC32:
 1343 0214 436F6D6D 		.string	"Commands: help exit "
 1343      616E6473 
 1343      3A206865 
 1343      6C702065 
 1343      78697420 
 1344 0229 000000   		.zero	3
 1345              	.LC33:
 1346 022c 25732000 		.string	"%s "
GAS LISTING C:\Users\jean\AppData\Local\Temp\cc469ATC.s 			page 26


 1347              	.LC34:
 1348 0230 257300   		.string	"%s"
 1349 0233 00       		.zero	1
 1350              	.LC35:
 1351 0234 203F0D0A 		.string	" ?\r\n"
 1351      00
 1352              		.section	.bss.shell_terminated,"aw",@nobits
 1353              		.align 2
 1354              		.set	.LANCHOR0,. + 0
 1355              		.type	shell_terminated, @object
 1356              		.size	shell_terminated, 4
 1357              	shell_terminated:
 1358 0000 00000000 		.zero	4
 1359              		.section	".text","axv"
 1360              	.Letext0:
 1361              		.file 4 "c:\\spc5studio\\eclipse\\plugins\\com.st.tools.spc5.tools.gnu.gcc.ppcvle.win32_1.0.0.2016
 1362              		.file 5 "c:\\spc5studio\\eclipse\\plugins\\com.st.tools.spc5.tools.gnu.gcc.ppcvle.win32_1.0.0.2016
 1363              		.file 6 "c:\\spc5studio\\eclipse\\plugins\\com.st.tools.spc5.tools.gnu.gcc.ppcvle.win32_1.0.0.2016
 1364              		.file 7 "./components/chibios_rt_spc560dxx_kernel_port_component/lib/include/chtypes.h"
 1365              		.file 8 "./components/chibios_rt_portable_kernel_component/lib/include/chlists.h"
 1366              		.file 9 "./components/chibios_rt_portable_kernel_component/lib/include/chthreads.h"
 1367              		.file 10 "./components/chibios_rt_spc560dxx_kernel_port_component/lib/include/chcore.h"
 1368              		.file 11 "./components/chibios_rt_portable_kernel_component/lib/include/chvt.h"
 1369              		.file 12 "./components/chibios_rt_portable_kernel_component/lib/include/chschd.h"
 1370              		.file 13 "./components/chibios_rt_portable_kernel_component/lib/include/chmtx.h"
 1371              		.file 14 "./components/chibios_rt_portable_kernel_component/lib/include/chevents.h"
 1372              		.file 15 "./components/chibios_rt_portable_kernel_component/lib/include/chmemcore.h"
 1373              		.file 16 "./components/chibios_rt_portable_kernel_component/lib/include/chheap.h"
 1374              		.file 17 "./components/chibios_rt_portable_kernel_component/lib/include/chstreams.h"
 1375              		.file 18 "./components/chibios_rt_portable_mini_shell_component/lib/include/shell.h"
 1376              		.file 19 "c:\\spc5studio\\eclipse\\plugins\\com.st.tools.spc5.tools.gnu.gcc.ppcvle.win32_1.0.0.201
 1377              		.file 20 "<built-in>"
 1378              		.file 21 "c:\\spc5studio\\eclipse\\plugins\\com.st.tools.spc5.tools.gnu.gcc.ppcvle.win32_1.0.0.201
 1379              		.file 22 "./components/chibios_rt_portable_kernel_component/lib/include/chdynamic.h"