GAS LISTING C:\Users\jean\AppData\Local\Temp\ccCUZz5a.s 			page 1


   1              		.file	"spc5_edma.c"
   2              		.section	".text","axv"
   3              	.Ltext0:
   4              		.cfi_sections	.debug_frame
   5              		.section	.text.vector10,"axv",@progbits
   6              		.align 1
   7              		.p2align 4,,15
   8              		.globl vector10
   9              		.type	vector10, @function
  10              	vector10:
  11              	.LFB44:
  12              		.file 1 "./components/spc560dxx_hal_drivers_component/lib/src/spc5_edma.c"
  13              		.loc 1 68 0
  14              		.cfi_startproc
  15 0000 182106E0 		e_stwu %r1,-32(%r1)
  16              	.LCFI0:
  17              		.cfi_def_cfa_offset 32
  18 0004 0080     		se_mflr %r0
  19 0006 1B61090C 		e_stmw %r27,12(%r1)
  20 000a D901     		se_stw %r0,36(%r1)
  21              		.cfi_offset 65, 4
  22              		.cfi_offset 27, -20
  23              		.cfi_offset 28, -16
  24              		.cfi_offset 29, -12
  25              		.cfi_offset 30, -8
  26              		.cfi_offset 31, -4
  27              		.loc 1 70 0
  28 000c 73DFE7F4 		e_lis %r30,0xfff4
  29              		.loc 1 76 0
  30 0010 480F     		se_li %r31,0
  31              		.loc 1 70 0
  32 0012 651E     		se_bseti %r30,17
  33 0014 C1BE     		se_lwz %r27,4(%r30)
  34              	.LVL0:
  35              		.loc 1 76 0
  36 0016 515E002C 		e_lwz %r10,44(%r30)
  37              	.LVL1:
  38 001a 182AA800 		e_cmpi %cr1,%r10,0
  39 001e 7A16005E 		e_beq %cr1,.L1
  40              		.loc 1 84 0
  41 0022 7380E000 		e_lis %r28,.LANCHOR0@ha
  42              		.loc 1 78 0
  43 0026 481D     		se_li %r29,1
  44              		.loc 1 84 0
  45 0028 1F9C0000 		e_la %r28,.LANCHOR0@l(%r28)
  46              	.LVL2:
  47              	.L14:
  48              		.loc 1 78 0
  49 002c 7FA9F830 		slw %r9,%r29,%r31
  50 0030 7D484839 		and. %r8,%r10,%r9
  51 0034 7A120032 		e_beq %cr0,.L4
  52 0038 7FE91070 		e_slwi %r9,%r31,2
  53              		.loc 1 80 0
  54 003c 37FE001D 		e_stb %r31,29(%r30)
  55              		.loc 1 86 0
  56 0040 01F3     		se_mr %r3,%r31
  57              		.loc 1 84 0
GAS LISTING C:\Users\jean\AppData\Local\Temp\ccCUZz5a.s 			page 2


  58 0042 7D29E02E 		lwzx %r9,%r9,%r28
  59              		.loc 1 86 0
  60 0046 01B5     		se_mr %r5,%r27
  61              		.loc 1 84 0
  62 0048 1829A800 		e_cmpi %cr1,%r9,0
  63 004c 7A16001A 		e_beq %cr1,.L4
  64              	.LVL3:
  65              		.loc 1 85 0 discriminator 1
  66 0050 5149000C 		e_lwz %r10,12(%r9)
  67              	.LVL4:
  68              		.loc 1 84 0 discriminator 1
  69 0054 182AA800 		e_cmpi %cr1,%r10,0
  70 0058 7A16000E 		e_beq %cr1,.L4
  71              		.loc 1 86 0
  72 005c 50890010 		e_lwz %r4,16(%r9)
  73 0060 7D4903A6 		mtctr %r10
  74 0064 0007     		se_bctrl
  75              	.LVL5:
  76              	.L4:
  77              		.loc 1 76 0
  78 0066 515E002C 		e_lwz %r10,44(%r30)
  79              		.loc 1 90 0
  80 006a 200F     		se_addi %r31,1
  81              	.LVL6:
  82              		.loc 1 76 0
  83 006c 182AA800 		e_cmpi %cr1,%r10,0
  84 0070 7A16000C 		e_beq %cr1,.L1
  85              		.loc 1 76 0 is_stmt 0 discriminator 1
  86 0074 183FA810 		e_cmpi %cr1,%r31,16
  87 0078 7A06FFB4 		e_bne %cr1,.L14
  88              	.LVL7:
  89              	.L1:
  90              		.loc 1 94 0 is_stmt 1
  91 007c C901     		se_lwz %r0,36(%r1)
  92 007e 0090     		se_mtlr %r0
  93              		.cfi_restore 65
  94 0080 1B61080C 		e_lmw %r27,12(%r1)
  95              	.LVL8:
  96 0084 21F1     		se_addi %r1,32
  97              	.LCFI1:
  98              		.cfi_restore 31
  99              		.cfi_restore 30
 100              		.cfi_restore 29
 101              		.cfi_restore 28
 102              		.cfi_restore 27
 103              		.cfi_def_cfa_offset 0
 104 0086 0004     		se_blr
 105              		.cfi_endproc
 106              	.LFE44:
 107              		.size	vector10, .-vector10
 108              		.section	.text.vector11,"axv",@progbits
 109              		.align 1
 110              		.p2align 4,,15
 111              		.globl vector11
 112              		.type	vector11, @function
 113              	vector11:
 114              	.LFB45:
GAS LISTING C:\Users\jean\AppData\Local\Temp\ccCUZz5a.s 			page 3


 115              		.loc 1 101 0
 116              		.cfi_startproc
 117 0000 182106F0 		e_stwu %r1,-16(%r1)
 118              	.LCFI2:
 119              		.cfi_def_cfa_offset 16
 120 0004 0080     		se_mflr %r0
 121 0006 D3F1     		se_stw %r31,12(%r1)
 122 0008 D501     		se_stw %r0,20(%r1)
 123              		.cfi_offset 65, 4
 124              		.cfi_offset 31, -4
 125              		.loc 1 105 0
 126 000a 73E0E000 		e_lis %r31,.LANCHOR0@ha
 127 000e 513F0000 		e_lwz %r9,.LANCHOR0@l(%r31)
 128 0012 1829A800 		e_cmpi %cr1,%r9,0
 129 0016 7A16002C 		e_beq %cr1,.L22
 130              		.loc 1 108 0
 131 001a 71000000 		e_li %r8,0
 132 001e 715FE7F4 		e_lis %r10,0xfff4
 133              		.loc 1 109 0
 134 0022 4803     		se_li %r3,0
 135              		.loc 1 108 0
 136 0024 194AD140 		e_ori %r10,%r10,16384
 137 0028 350A001C 		e_stb %r8,28(%r10)
 138              		.loc 1 112 0
 139 002c C501     		se_lwz %r0,20(%r1)
 140              		.loc 1 109 0
 141 002e 51490008 		e_lwz %r10,8(%r9)
 142              		.loc 1 112 0
 143 0032 C3F1     		se_lwz %r31,12(%r1)
 144              		.loc 1 109 0
 145 0034 50890010 		e_lwz %r4,16(%r9)
 146 0038 7D4903A6 		mtctr %r10
 147              		.loc 1 112 0
 148 003c 0090     		se_mtlr %r0
 149              		.cfi_remember_state
 150              		.cfi_restore 65
 151 003e 20F1     		se_addi %r1,16
 152              	.LCFI3:
 153              		.cfi_restore 31
 154              		.cfi_def_cfa_offset 0
 155              		.loc 1 109 0
 156 0040 0006     		se_bctr
 157              	.LVL9:
 158              	.L22:
 159              	.LCFI4:
 160              		.cfi_restore_state
 161              	.LBB70:
 162              	.LBB71:
 163              	.LBB72:
 164              		.file 2 "./components/chibios_rt_portable_kernel_component/lib/include/chsys.h"
 165              		.loc 2 74 0
 166 0042 78000001 		e_bl port_halt
 167              	.LVL10:
 168 0046 513F0000 		e_lwz %r9,.LANCHOR0@l(%r31)
 169              	.LBE72:
 170              	.LBE71:
 171              	.LBE70:
GAS LISTING C:\Users\jean\AppData\Local\Temp\ccCUZz5a.s 			page 4


 172              		.loc 1 108 0
 173 004a 71000000 		e_li %r8,0
 174 004e 715FE7F4 		e_lis %r10,0xfff4
 175              		.loc 1 109 0
 176 0052 4803     		se_li %r3,0
 177              		.loc 1 108 0
 178 0054 194AD140 		e_ori %r10,%r10,16384
 179 0058 350A001C 		e_stb %r8,28(%r10)
 180              		.loc 1 112 0
 181 005c C501     		se_lwz %r0,20(%r1)
 182              		.loc 1 109 0
 183 005e 51490008 		e_lwz %r10,8(%r9)
 184              		.loc 1 112 0
 185 0062 C3F1     		se_lwz %r31,12(%r1)
 186              		.loc 1 109 0
 187 0064 50890010 		e_lwz %r4,16(%r9)
 188 0068 7D4903A6 		mtctr %r10
 189              		.loc 1 112 0
 190 006c 0090     		se_mtlr %r0
 191              		.cfi_restore 65
 192 006e 20F1     		se_addi %r1,16
 193              	.LCFI5:
 194              		.cfi_restore 31
 195              		.cfi_def_cfa_offset 0
 196              		.loc 1 109 0
 197 0070 0006     		se_bctr
 198              	.LVL11:
 199              		.cfi_endproc
 200              	.LFE45:
 201              		.size	vector11, .-vector11
 202              		.section	.text.vector12,"axv",@progbits
 203              		.align 1
 204              		.p2align 4,,15
 205              		.globl vector12
 206              		.type	vector12, @function
 207              	vector12:
 208              	.LFB46:
 209              		.loc 1 119 0
 210              		.cfi_startproc
 211 0000 182106F0 		e_stwu %r1,-16(%r1)
 212              	.LCFI6:
 213              		.cfi_def_cfa_offset 16
 214 0004 0080     		se_mflr %r0
 215 0006 D3F1     		se_stw %r31,12(%r1)
 216 0008 D501     		se_stw %r0,20(%r1)
 217              		.cfi_offset 65, 4
 218              		.cfi_offset 31, -4
 219              		.loc 1 123 0
 220 000a 73E0E000 		e_lis %r31,.LANCHOR0@ha
 221 000e 1FFF0000 		e_la %r31,.LANCHOR0@l(%r31)
 222 0012 513F0004 		e_lwz %r9,4(%r31)
 223 0016 1829A800 		e_cmpi %cr1,%r9,0
 224 001a 7A16002C 		e_beq %cr1,.L25
 225              		.loc 1 126 0
 226 001e 71000001 		e_li %r8,1
 227 0022 715FE7F4 		e_lis %r10,0xfff4
 228              		.loc 1 127 0
GAS LISTING C:\Users\jean\AppData\Local\Temp\ccCUZz5a.s 			page 5


 229 0026 4813     		se_li %r3,1
 230              		.loc 1 126 0
 231 0028 194AD140 		e_ori %r10,%r10,16384
 232 002c 350A001C 		e_stb %r8,28(%r10)
 233              		.loc 1 130 0
 234 0030 C501     		se_lwz %r0,20(%r1)
 235              		.loc 1 127 0
 236 0032 51490008 		e_lwz %r10,8(%r9)
 237              		.loc 1 130 0
 238 0036 C3F1     		se_lwz %r31,12(%r1)
 239              		.loc 1 127 0
 240 0038 50890010 		e_lwz %r4,16(%r9)
 241 003c 7D4903A6 		mtctr %r10
 242              		.loc 1 130 0
 243 0040 0090     		se_mtlr %r0
 244              		.cfi_remember_state
 245              		.cfi_restore 65
 246 0042 20F1     		se_addi %r1,16
 247              	.LCFI7:
 248              		.cfi_restore 31
 249              		.cfi_def_cfa_offset 0
 250              		.loc 1 127 0
 251 0044 0006     		se_bctr
 252              	.LVL12:
 253              	.L25:
 254              	.LCFI8:
 255              		.cfi_restore_state
 256              	.LBB73:
 257              	.LBB74:
 258              	.LBB75:
 259              		.loc 2 74 0
 260 0046 78000001 		e_bl port_halt
 261              	.LVL13:
 262 004a 513F0004 		e_lwz %r9,4(%r31)
 263              	.LBE75:
 264              	.LBE74:
 265              	.LBE73:
 266              		.loc 1 126 0
 267 004e 71000001 		e_li %r8,1
 268 0052 715FE7F4 		e_lis %r10,0xfff4
 269              		.loc 1 127 0
 270 0056 4813     		se_li %r3,1
 271              		.loc 1 126 0
 272 0058 194AD140 		e_ori %r10,%r10,16384
 273 005c 350A001C 		e_stb %r8,28(%r10)
 274              		.loc 1 130 0
 275 0060 C501     		se_lwz %r0,20(%r1)
 276              		.loc 1 127 0
 277 0062 51490008 		e_lwz %r10,8(%r9)
 278              		.loc 1 130 0
 279 0066 C3F1     		se_lwz %r31,12(%r1)
 280              		.loc 1 127 0
 281 0068 50890010 		e_lwz %r4,16(%r9)
 282 006c 7D4903A6 		mtctr %r10
 283              		.loc 1 130 0
 284 0070 0090     		se_mtlr %r0
 285              		.cfi_restore 65
GAS LISTING C:\Users\jean\AppData\Local\Temp\ccCUZz5a.s 			page 6


 286 0072 20F1     		se_addi %r1,16
 287              	.LCFI9:
 288              		.cfi_restore 31
 289              		.cfi_def_cfa_offset 0
 290              		.loc 1 127 0
 291 0074 0006     		se_bctr
 292              	.LVL14:
 293              		.cfi_endproc
 294              	.LFE46:
 295              		.size	vector12, .-vector12
 296              		.section	.text.vector13,"axv",@progbits
 297              		.align 1
 298              		.p2align 4,,15
 299              		.globl vector13
 300              		.type	vector13, @function
 301              	vector13:
 302              	.LFB47:
 303              		.loc 1 137 0
 304              		.cfi_startproc
 305 0000 182106F0 		e_stwu %r1,-16(%r1)
 306              	.LCFI10:
 307              		.cfi_def_cfa_offset 16
 308 0004 0080     		se_mflr %r0
 309 0006 D3F1     		se_stw %r31,12(%r1)
 310 0008 D501     		se_stw %r0,20(%r1)
 311              		.cfi_offset 65, 4
 312              		.cfi_offset 31, -4
 313              		.loc 1 141 0
 314 000a 73E0E000 		e_lis %r31,.LANCHOR0@ha
 315 000e 1FFF0000 		e_la %r31,.LANCHOR0@l(%r31)
 316 0012 513F0008 		e_lwz %r9,8(%r31)
 317 0016 1829A800 		e_cmpi %cr1,%r9,0
 318 001a 7A16002C 		e_beq %cr1,.L28
 319              		.loc 1 144 0
 320 001e 71000002 		e_li %r8,2
 321 0022 715FE7F4 		e_lis %r10,0xfff4
 322              		.loc 1 145 0
 323 0026 4823     		se_li %r3,2
 324              		.loc 1 144 0
 325 0028 194AD140 		e_ori %r10,%r10,16384
 326 002c 350A001C 		e_stb %r8,28(%r10)
 327              		.loc 1 148 0
 328 0030 C501     		se_lwz %r0,20(%r1)
 329              		.loc 1 145 0
 330 0032 51490008 		e_lwz %r10,8(%r9)
 331              		.loc 1 148 0
 332 0036 C3F1     		se_lwz %r31,12(%r1)
 333              		.loc 1 145 0
 334 0038 50890010 		e_lwz %r4,16(%r9)
 335 003c 7D4903A6 		mtctr %r10
 336              		.loc 1 148 0
 337 0040 0090     		se_mtlr %r0
 338              		.cfi_remember_state
 339              		.cfi_restore 65
 340 0042 20F1     		se_addi %r1,16
 341              	.LCFI11:
 342              		.cfi_restore 31
GAS LISTING C:\Users\jean\AppData\Local\Temp\ccCUZz5a.s 			page 7


 343              		.cfi_def_cfa_offset 0
 344              		.loc 1 145 0
 345 0044 0006     		se_bctr
 346              	.LVL15:
 347              	.L28:
 348              	.LCFI12:
 349              		.cfi_restore_state
 350              	.LBB76:
 351              	.LBB77:
 352              	.LBB78:
 353              		.loc 2 74 0
 354 0046 78000001 		e_bl port_halt
 355              	.LVL16:
 356 004a 513F0008 		e_lwz %r9,8(%r31)
 357              	.LBE78:
 358              	.LBE77:
 359              	.LBE76:
 360              		.loc 1 144 0
 361 004e 71000002 		e_li %r8,2
 362 0052 715FE7F4 		e_lis %r10,0xfff4
 363              		.loc 1 145 0
 364 0056 4823     		se_li %r3,2
 365              		.loc 1 144 0
 366 0058 194AD140 		e_ori %r10,%r10,16384
 367 005c 350A001C 		e_stb %r8,28(%r10)
 368              		.loc 1 148 0
 369 0060 C501     		se_lwz %r0,20(%r1)
 370              		.loc 1 145 0
 371 0062 51490008 		e_lwz %r10,8(%r9)
 372              		.loc 1 148 0
 373 0066 C3F1     		se_lwz %r31,12(%r1)
 374              		.loc 1 145 0
 375 0068 50890010 		e_lwz %r4,16(%r9)
 376 006c 7D4903A6 		mtctr %r10
 377              		.loc 1 148 0
 378 0070 0090     		se_mtlr %r0
 379              		.cfi_restore 65
 380 0072 20F1     		se_addi %r1,16
 381              	.LCFI13:
 382              		.cfi_restore 31
 383              		.cfi_def_cfa_offset 0
 384              		.loc 1 145 0
 385 0074 0006     		se_bctr
 386              	.LVL17:
 387              		.cfi_endproc
 388              	.LFE47:
 389              		.size	vector13, .-vector13
 390              		.section	.text.vector14,"axv",@progbits
 391              		.align 1
 392              		.p2align 4,,15
 393              		.globl vector14
 394              		.type	vector14, @function
 395              	vector14:
 396              	.LFB48:
 397              		.loc 1 155 0
 398              		.cfi_startproc
 399 0000 182106F0 		e_stwu %r1,-16(%r1)
GAS LISTING C:\Users\jean\AppData\Local\Temp\ccCUZz5a.s 			page 8


 400              	.LCFI14:
 401              		.cfi_def_cfa_offset 16
 402 0004 0080     		se_mflr %r0
 403 0006 D3F1     		se_stw %r31,12(%r1)
 404 0008 D501     		se_stw %r0,20(%r1)
 405              		.cfi_offset 65, 4
 406              		.cfi_offset 31, -4
 407              		.loc 1 159 0
 408 000a 73E0E000 		e_lis %r31,.LANCHOR0@ha
 409 000e 1FFF0000 		e_la %r31,.LANCHOR0@l(%r31)
 410 0012 513F000C 		e_lwz %r9,12(%r31)
 411 0016 1829A800 		e_cmpi %cr1,%r9,0
 412 001a 7A16002C 		e_beq %cr1,.L31
 413              		.loc 1 162 0
 414 001e 71000003 		e_li %r8,3
 415 0022 715FE7F4 		e_lis %r10,0xfff4
 416              		.loc 1 163 0
 417 0026 4833     		se_li %r3,3
 418              		.loc 1 162 0
 419 0028 194AD140 		e_ori %r10,%r10,16384
 420 002c 350A001C 		e_stb %r8,28(%r10)
 421              		.loc 1 166 0
 422 0030 C501     		se_lwz %r0,20(%r1)
 423              		.loc 1 163 0
 424 0032 51490008 		e_lwz %r10,8(%r9)
 425              		.loc 1 166 0
 426 0036 C3F1     		se_lwz %r31,12(%r1)
 427              		.loc 1 163 0
 428 0038 50890010 		e_lwz %r4,16(%r9)
 429 003c 7D4903A6 		mtctr %r10
 430              		.loc 1 166 0
 431 0040 0090     		se_mtlr %r0
 432              		.cfi_remember_state
 433              		.cfi_restore 65
 434 0042 20F1     		se_addi %r1,16
 435              	.LCFI15:
 436              		.cfi_restore 31
 437              		.cfi_def_cfa_offset 0
 438              		.loc 1 163 0
 439 0044 0006     		se_bctr
 440              	.LVL18:
 441              	.L31:
 442              	.LCFI16:
 443              		.cfi_restore_state
 444              	.LBB79:
 445              	.LBB80:
 446              	.LBB81:
 447              		.loc 2 74 0
 448 0046 78000001 		e_bl port_halt
 449              	.LVL19:
 450 004a 513F000C 		e_lwz %r9,12(%r31)
 451              	.LBE81:
 452              	.LBE80:
 453              	.LBE79:
 454              		.loc 1 162 0
 455 004e 71000003 		e_li %r8,3
 456 0052 715FE7F4 		e_lis %r10,0xfff4
GAS LISTING C:\Users\jean\AppData\Local\Temp\ccCUZz5a.s 			page 9


 457              		.loc 1 163 0
 458 0056 4833     		se_li %r3,3
 459              		.loc 1 162 0
 460 0058 194AD140 		e_ori %r10,%r10,16384
 461 005c 350A001C 		e_stb %r8,28(%r10)
 462              		.loc 1 166 0
 463 0060 C501     		se_lwz %r0,20(%r1)
 464              		.loc 1 163 0
 465 0062 51490008 		e_lwz %r10,8(%r9)
 466              		.loc 1 166 0
 467 0066 C3F1     		se_lwz %r31,12(%r1)
 468              		.loc 1 163 0
 469 0068 50890010 		e_lwz %r4,16(%r9)
 470 006c 7D4903A6 		mtctr %r10
 471              		.loc 1 166 0
 472 0070 0090     		se_mtlr %r0
 473              		.cfi_restore 65
 474 0072 20F1     		se_addi %r1,16
 475              	.LCFI17:
 476              		.cfi_restore 31
 477              		.cfi_def_cfa_offset 0
 478              		.loc 1 163 0
 479 0074 0006     		se_bctr
 480              	.LVL20:
 481              		.cfi_endproc
 482              	.LFE48:
 483              		.size	vector14, .-vector14
 484              		.section	.text.vector15,"axv",@progbits
 485              		.align 1
 486              		.p2align 4,,15
 487              		.globl vector15
 488              		.type	vector15, @function
 489              	vector15:
 490              	.LFB49:
 491              		.loc 1 173 0
 492              		.cfi_startproc
 493 0000 182106F0 		e_stwu %r1,-16(%r1)
 494              	.LCFI18:
 495              		.cfi_def_cfa_offset 16
 496 0004 0080     		se_mflr %r0
 497 0006 D3F1     		se_stw %r31,12(%r1)
 498 0008 D501     		se_stw %r0,20(%r1)
 499              		.cfi_offset 65, 4
 500              		.cfi_offset 31, -4
 501              		.loc 1 177 0
 502 000a 73E0E000 		e_lis %r31,.LANCHOR0@ha
 503 000e 1FFF0000 		e_la %r31,.LANCHOR0@l(%r31)
 504 0012 513F0010 		e_lwz %r9,16(%r31)
 505 0016 1829A800 		e_cmpi %cr1,%r9,0
 506 001a 7A16002C 		e_beq %cr1,.L34
 507              		.loc 1 180 0
 508 001e 71000004 		e_li %r8,4
 509 0022 715FE7F4 		e_lis %r10,0xfff4
 510              		.loc 1 181 0
 511 0026 4843     		se_li %r3,4
 512              		.loc 1 180 0
 513 0028 194AD140 		e_ori %r10,%r10,16384
GAS LISTING C:\Users\jean\AppData\Local\Temp\ccCUZz5a.s 			page 10


 514 002c 350A001C 		e_stb %r8,28(%r10)
 515              		.loc 1 184 0
 516 0030 C501     		se_lwz %r0,20(%r1)
 517              		.loc 1 181 0
 518 0032 51490008 		e_lwz %r10,8(%r9)
 519              		.loc 1 184 0
 520 0036 C3F1     		se_lwz %r31,12(%r1)
 521              		.loc 1 181 0
 522 0038 50890010 		e_lwz %r4,16(%r9)
 523 003c 7D4903A6 		mtctr %r10
 524              		.loc 1 184 0
 525 0040 0090     		se_mtlr %r0
 526              		.cfi_remember_state
 527              		.cfi_restore 65
 528 0042 20F1     		se_addi %r1,16
 529              	.LCFI19:
 530              		.cfi_restore 31
 531              		.cfi_def_cfa_offset 0
 532              		.loc 1 181 0
 533 0044 0006     		se_bctr
 534              	.LVL21:
 535              	.L34:
 536              	.LCFI20:
 537              		.cfi_restore_state
 538              	.LBB82:
 539              	.LBB83:
 540              	.LBB84:
 541              		.loc 2 74 0
 542 0046 78000001 		e_bl port_halt
 543              	.LVL22:
 544 004a 513F0010 		e_lwz %r9,16(%r31)
 545              	.LBE84:
 546              	.LBE83:
 547              	.LBE82:
 548              		.loc 1 180 0
 549 004e 71000004 		e_li %r8,4
 550 0052 715FE7F4 		e_lis %r10,0xfff4
 551              		.loc 1 181 0
 552 0056 4843     		se_li %r3,4
 553              		.loc 1 180 0
 554 0058 194AD140 		e_ori %r10,%r10,16384
 555 005c 350A001C 		e_stb %r8,28(%r10)
 556              		.loc 1 184 0
 557 0060 C501     		se_lwz %r0,20(%r1)
 558              		.loc 1 181 0
 559 0062 51490008 		e_lwz %r10,8(%r9)
 560              		.loc 1 184 0
 561 0066 C3F1     		se_lwz %r31,12(%r1)
 562              		.loc 1 181 0
 563 0068 50890010 		e_lwz %r4,16(%r9)
 564 006c 7D4903A6 		mtctr %r10
 565              		.loc 1 184 0
 566 0070 0090     		se_mtlr %r0
 567              		.cfi_restore 65
 568 0072 20F1     		se_addi %r1,16
 569              	.LCFI21:
 570              		.cfi_restore 31
GAS LISTING C:\Users\jean\AppData\Local\Temp\ccCUZz5a.s 			page 11


 571              		.cfi_def_cfa_offset 0
 572              		.loc 1 181 0
 573 0074 0006     		se_bctr
 574              	.LVL23:
 575              		.cfi_endproc
 576              	.LFE49:
 577              		.size	vector15, .-vector15
 578              		.section	.text.vector16,"axv",@progbits
 579              		.align 1
 580              		.p2align 4,,15
 581              		.globl vector16
 582              		.type	vector16, @function
 583              	vector16:
 584              	.LFB50:
 585              		.loc 1 191 0
 586              		.cfi_startproc
 587 0000 182106F0 		e_stwu %r1,-16(%r1)
 588              	.LCFI22:
 589              		.cfi_def_cfa_offset 16
 590 0004 0080     		se_mflr %r0
 591 0006 D3F1     		se_stw %r31,12(%r1)
 592 0008 D501     		se_stw %r0,20(%r1)
 593              		.cfi_offset 65, 4
 594              		.cfi_offset 31, -4
 595              		.loc 1 195 0
 596 000a 73E0E000 		e_lis %r31,.LANCHOR0@ha
 597 000e 1FFF0000 		e_la %r31,.LANCHOR0@l(%r31)
 598 0012 513F0014 		e_lwz %r9,20(%r31)
 599 0016 1829A800 		e_cmpi %cr1,%r9,0
 600 001a 7A16002C 		e_beq %cr1,.L37
 601              		.loc 1 198 0
 602 001e 71000005 		e_li %r8,5
 603 0022 715FE7F4 		e_lis %r10,0xfff4
 604              		.loc 1 199 0
 605 0026 4853     		se_li %r3,5
 606              		.loc 1 198 0
 607 0028 194AD140 		e_ori %r10,%r10,16384
 608 002c 350A001C 		e_stb %r8,28(%r10)
 609              		.loc 1 202 0
 610 0030 C501     		se_lwz %r0,20(%r1)
 611              		.loc 1 199 0
 612 0032 51490008 		e_lwz %r10,8(%r9)
 613              		.loc 1 202 0
 614 0036 C3F1     		se_lwz %r31,12(%r1)
 615              		.loc 1 199 0
 616 0038 50890010 		e_lwz %r4,16(%r9)
 617 003c 7D4903A6 		mtctr %r10
 618              		.loc 1 202 0
 619 0040 0090     		se_mtlr %r0
 620              		.cfi_remember_state
 621              		.cfi_restore 65
 622 0042 20F1     		se_addi %r1,16
 623              	.LCFI23:
 624              		.cfi_restore 31
 625              		.cfi_def_cfa_offset 0
 626              		.loc 1 199 0
 627 0044 0006     		se_bctr
GAS LISTING C:\Users\jean\AppData\Local\Temp\ccCUZz5a.s 			page 12


 628              	.LVL24:
 629              	.L37:
 630              	.LCFI24:
 631              		.cfi_restore_state
 632              	.LBB85:
 633              	.LBB86:
 634              	.LBB87:
 635              		.loc 2 74 0
 636 0046 78000001 		e_bl port_halt
 637              	.LVL25:
 638 004a 513F0014 		e_lwz %r9,20(%r31)
 639              	.LBE87:
 640              	.LBE86:
 641              	.LBE85:
 642              		.loc 1 198 0
 643 004e 71000005 		e_li %r8,5
 644 0052 715FE7F4 		e_lis %r10,0xfff4
 645              		.loc 1 199 0
 646 0056 4853     		se_li %r3,5
 647              		.loc 1 198 0
 648 0058 194AD140 		e_ori %r10,%r10,16384
 649 005c 350A001C 		e_stb %r8,28(%r10)
 650              		.loc 1 202 0
 651 0060 C501     		se_lwz %r0,20(%r1)
 652              		.loc 1 199 0
 653 0062 51490008 		e_lwz %r10,8(%r9)
 654              		.loc 1 202 0
 655 0066 C3F1     		se_lwz %r31,12(%r1)
 656              		.loc 1 199 0
 657 0068 50890010 		e_lwz %r4,16(%r9)
 658 006c 7D4903A6 		mtctr %r10
 659              		.loc 1 202 0
 660 0070 0090     		se_mtlr %r0
 661              		.cfi_restore 65
 662 0072 20F1     		se_addi %r1,16
 663              	.LCFI25:
 664              		.cfi_restore 31
 665              		.cfi_def_cfa_offset 0
 666              		.loc 1 199 0
 667 0074 0006     		se_bctr
 668              	.LVL26:
 669              		.cfi_endproc
 670              	.LFE50:
 671              		.size	vector16, .-vector16
 672              		.section	.text.vector17,"axv",@progbits
 673              		.align 1
 674              		.p2align 4,,15
 675              		.globl vector17
 676              		.type	vector17, @function
 677              	vector17:
 678              	.LFB51:
 679              		.loc 1 209 0
 680              		.cfi_startproc
 681 0000 182106F0 		e_stwu %r1,-16(%r1)
 682              	.LCFI26:
 683              		.cfi_def_cfa_offset 16
 684 0004 0080     		se_mflr %r0
GAS LISTING C:\Users\jean\AppData\Local\Temp\ccCUZz5a.s 			page 13


 685 0006 D3F1     		se_stw %r31,12(%r1)
 686 0008 D501     		se_stw %r0,20(%r1)
 687              		.cfi_offset 65, 4
 688              		.cfi_offset 31, -4
 689              		.loc 1 213 0
 690 000a 73E0E000 		e_lis %r31,.LANCHOR0@ha
 691 000e 1FFF0000 		e_la %r31,.LANCHOR0@l(%r31)
 692 0012 513F0018 		e_lwz %r9,24(%r31)
 693 0016 1829A800 		e_cmpi %cr1,%r9,0
 694 001a 7A16002C 		e_beq %cr1,.L40
 695              		.loc 1 216 0
 696 001e 71000006 		e_li %r8,6
 697 0022 715FE7F4 		e_lis %r10,0xfff4
 698              		.loc 1 217 0
 699 0026 4863     		se_li %r3,6
 700              		.loc 1 216 0
 701 0028 194AD140 		e_ori %r10,%r10,16384
 702 002c 350A001C 		e_stb %r8,28(%r10)
 703              		.loc 1 220 0
 704 0030 C501     		se_lwz %r0,20(%r1)
 705              		.loc 1 217 0
 706 0032 51490008 		e_lwz %r10,8(%r9)
 707              		.loc 1 220 0
 708 0036 C3F1     		se_lwz %r31,12(%r1)
 709              		.loc 1 217 0
 710 0038 50890010 		e_lwz %r4,16(%r9)
 711 003c 7D4903A6 		mtctr %r10
 712              		.loc 1 220 0
 713 0040 0090     		se_mtlr %r0
 714              		.cfi_remember_state
 715              		.cfi_restore 65
 716 0042 20F1     		se_addi %r1,16
 717              	.LCFI27:
 718              		.cfi_restore 31
 719              		.cfi_def_cfa_offset 0
 720              		.loc 1 217 0
 721 0044 0006     		se_bctr
 722              	.LVL27:
 723              	.L40:
 724              	.LCFI28:
 725              		.cfi_restore_state
 726              	.LBB88:
 727              	.LBB89:
 728              	.LBB90:
 729              		.loc 2 74 0
 730 0046 78000001 		e_bl port_halt
 731              	.LVL28:
 732 004a 513F0018 		e_lwz %r9,24(%r31)
 733              	.LBE90:
 734              	.LBE89:
 735              	.LBE88:
 736              		.loc 1 216 0
 737 004e 71000006 		e_li %r8,6
 738 0052 715FE7F4 		e_lis %r10,0xfff4
 739              		.loc 1 217 0
 740 0056 4863     		se_li %r3,6
 741              		.loc 1 216 0
GAS LISTING C:\Users\jean\AppData\Local\Temp\ccCUZz5a.s 			page 14


 742 0058 194AD140 		e_ori %r10,%r10,16384
 743 005c 350A001C 		e_stb %r8,28(%r10)
 744              		.loc 1 220 0
 745 0060 C501     		se_lwz %r0,20(%r1)
 746              		.loc 1 217 0
 747 0062 51490008 		e_lwz %r10,8(%r9)
 748              		.loc 1 220 0
 749 0066 C3F1     		se_lwz %r31,12(%r1)
 750              		.loc 1 217 0
 751 0068 50890010 		e_lwz %r4,16(%r9)
 752 006c 7D4903A6 		mtctr %r10
 753              		.loc 1 220 0
 754 0070 0090     		se_mtlr %r0
 755              		.cfi_restore 65
 756 0072 20F1     		se_addi %r1,16
 757              	.LCFI29:
 758              		.cfi_restore 31
 759              		.cfi_def_cfa_offset 0
 760              		.loc 1 217 0
 761 0074 0006     		se_bctr
 762              	.LVL29:
 763              		.cfi_endproc
 764              	.LFE51:
 765              		.size	vector17, .-vector17
 766              		.section	.text.vector18,"axv",@progbits
 767              		.align 1
 768              		.p2align 4,,15
 769              		.globl vector18
 770              		.type	vector18, @function
 771              	vector18:
 772              	.LFB52:
 773              		.loc 1 227 0
 774              		.cfi_startproc
 775 0000 182106F0 		e_stwu %r1,-16(%r1)
 776              	.LCFI30:
 777              		.cfi_def_cfa_offset 16
 778 0004 0080     		se_mflr %r0
 779 0006 D3F1     		se_stw %r31,12(%r1)
 780 0008 D501     		se_stw %r0,20(%r1)
 781              		.cfi_offset 65, 4
 782              		.cfi_offset 31, -4
 783              		.loc 1 231 0
 784 000a 73E0E000 		e_lis %r31,.LANCHOR0@ha
 785 000e 1FFF0000 		e_la %r31,.LANCHOR0@l(%r31)
 786 0012 513F001C 		e_lwz %r9,28(%r31)
 787 0016 1829A800 		e_cmpi %cr1,%r9,0
 788 001a 7A16002C 		e_beq %cr1,.L43
 789              		.loc 1 234 0
 790 001e 71000007 		e_li %r8,7
 791 0022 715FE7F4 		e_lis %r10,0xfff4
 792              		.loc 1 235 0
 793 0026 4873     		se_li %r3,7
 794              		.loc 1 234 0
 795 0028 194AD140 		e_ori %r10,%r10,16384
 796 002c 350A001C 		e_stb %r8,28(%r10)
 797              		.loc 1 238 0
 798 0030 C501     		se_lwz %r0,20(%r1)
GAS LISTING C:\Users\jean\AppData\Local\Temp\ccCUZz5a.s 			page 15


 799              		.loc 1 235 0
 800 0032 51490008 		e_lwz %r10,8(%r9)
 801              		.loc 1 238 0
 802 0036 C3F1     		se_lwz %r31,12(%r1)
 803              		.loc 1 235 0
 804 0038 50890010 		e_lwz %r4,16(%r9)
 805 003c 7D4903A6 		mtctr %r10
 806              		.loc 1 238 0
 807 0040 0090     		se_mtlr %r0
 808              		.cfi_remember_state
 809              		.cfi_restore 65
 810 0042 20F1     		se_addi %r1,16
 811              	.LCFI31:
 812              		.cfi_restore 31
 813              		.cfi_def_cfa_offset 0
 814              		.loc 1 235 0
 815 0044 0006     		se_bctr
 816              	.LVL30:
 817              	.L43:
 818              	.LCFI32:
 819              		.cfi_restore_state
 820              	.LBB91:
 821              	.LBB92:
 822              	.LBB93:
 823              		.loc 2 74 0
 824 0046 78000001 		e_bl port_halt
 825              	.LVL31:
 826 004a 513F001C 		e_lwz %r9,28(%r31)
 827              	.LBE93:
 828              	.LBE92:
 829              	.LBE91:
 830              		.loc 1 234 0
 831 004e 71000007 		e_li %r8,7
 832 0052 715FE7F4 		e_lis %r10,0xfff4
 833              		.loc 1 235 0
 834 0056 4873     		se_li %r3,7
 835              		.loc 1 234 0
 836 0058 194AD140 		e_ori %r10,%r10,16384
 837 005c 350A001C 		e_stb %r8,28(%r10)
 838              		.loc 1 238 0
 839 0060 C501     		se_lwz %r0,20(%r1)
 840              		.loc 1 235 0
 841 0062 51490008 		e_lwz %r10,8(%r9)
 842              		.loc 1 238 0
 843 0066 C3F1     		se_lwz %r31,12(%r1)
 844              		.loc 1 235 0
 845 0068 50890010 		e_lwz %r4,16(%r9)
 846 006c 7D4903A6 		mtctr %r10
 847              		.loc 1 238 0
 848 0070 0090     		se_mtlr %r0
 849              		.cfi_restore 65
 850 0072 20F1     		se_addi %r1,16
 851              	.LCFI33:
 852              		.cfi_restore 31
 853              		.cfi_def_cfa_offset 0
 854              		.loc 1 235 0
 855 0074 0006     		se_bctr
GAS LISTING C:\Users\jean\AppData\Local\Temp\ccCUZz5a.s 			page 16


 856              	.LVL32:
 857              		.cfi_endproc
 858              	.LFE52:
 859              		.size	vector18, .-vector18
 860              		.section	.text.vector19,"axv",@progbits
 861              		.align 1
 862              		.p2align 4,,15
 863              		.globl vector19
 864              		.type	vector19, @function
 865              	vector19:
 866              	.LFB53:
 867              		.loc 1 245 0
 868              		.cfi_startproc
 869 0000 182106F0 		e_stwu %r1,-16(%r1)
 870              	.LCFI34:
 871              		.cfi_def_cfa_offset 16
 872 0004 0080     		se_mflr %r0
 873 0006 D3F1     		se_stw %r31,12(%r1)
 874 0008 D501     		se_stw %r0,20(%r1)
 875              		.cfi_offset 65, 4
 876              		.cfi_offset 31, -4
 877              		.loc 1 249 0
 878 000a 73E0E000 		e_lis %r31,.LANCHOR0@ha
 879 000e 1FFF0000 		e_la %r31,.LANCHOR0@l(%r31)
 880 0012 513F0020 		e_lwz %r9,32(%r31)
 881 0016 1829A800 		e_cmpi %cr1,%r9,0
 882 001a 7A16002C 		e_beq %cr1,.L46
 883              		.loc 1 252 0
 884 001e 71000008 		e_li %r8,8
 885 0022 715FE7F4 		e_lis %r10,0xfff4
 886              		.loc 1 253 0
 887 0026 4883     		se_li %r3,8
 888              		.loc 1 252 0
 889 0028 194AD140 		e_ori %r10,%r10,16384
 890 002c 350A001C 		e_stb %r8,28(%r10)
 891              		.loc 1 256 0
 892 0030 C501     		se_lwz %r0,20(%r1)
 893              		.loc 1 253 0
 894 0032 51490008 		e_lwz %r10,8(%r9)
 895              		.loc 1 256 0
 896 0036 C3F1     		se_lwz %r31,12(%r1)
 897              		.loc 1 253 0
 898 0038 50890010 		e_lwz %r4,16(%r9)
 899 003c 7D4903A6 		mtctr %r10
 900              		.loc 1 256 0
 901 0040 0090     		se_mtlr %r0
 902              		.cfi_remember_state
 903              		.cfi_restore 65
 904 0042 20F1     		se_addi %r1,16
 905              	.LCFI35:
 906              		.cfi_restore 31
 907              		.cfi_def_cfa_offset 0
 908              		.loc 1 253 0
 909 0044 0006     		se_bctr
 910              	.LVL33:
 911              	.L46:
 912              	.LCFI36:
GAS LISTING C:\Users\jean\AppData\Local\Temp\ccCUZz5a.s 			page 17


 913              		.cfi_restore_state
 914              	.LBB94:
 915              	.LBB95:
 916              	.LBB96:
 917              		.loc 2 74 0
 918 0046 78000001 		e_bl port_halt
 919              	.LVL34:
 920 004a 513F0020 		e_lwz %r9,32(%r31)
 921              	.LBE96:
 922              	.LBE95:
 923              	.LBE94:
 924              		.loc 1 252 0
 925 004e 71000008 		e_li %r8,8
 926 0052 715FE7F4 		e_lis %r10,0xfff4
 927              		.loc 1 253 0
 928 0056 4883     		se_li %r3,8
 929              		.loc 1 252 0
 930 0058 194AD140 		e_ori %r10,%r10,16384
 931 005c 350A001C 		e_stb %r8,28(%r10)
 932              		.loc 1 256 0
 933 0060 C501     		se_lwz %r0,20(%r1)
 934              		.loc 1 253 0
 935 0062 51490008 		e_lwz %r10,8(%r9)
 936              		.loc 1 256 0
 937 0066 C3F1     		se_lwz %r31,12(%r1)
 938              		.loc 1 253 0
 939 0068 50890010 		e_lwz %r4,16(%r9)
 940 006c 7D4903A6 		mtctr %r10
 941              		.loc 1 256 0
 942 0070 0090     		se_mtlr %r0
 943              		.cfi_restore 65
 944 0072 20F1     		se_addi %r1,16
 945              	.LCFI37:
 946              		.cfi_restore 31
 947              		.cfi_def_cfa_offset 0
 948              		.loc 1 253 0
 949 0074 0006     		se_bctr
 950              	.LVL35:
 951              		.cfi_endproc
 952              	.LFE53:
 953              		.size	vector19, .-vector19
 954              		.section	.text.vector20,"axv",@progbits
 955              		.align 1
 956              		.p2align 4,,15
 957              		.globl vector20
 958              		.type	vector20, @function
 959              	vector20:
 960              	.LFB54:
 961              		.loc 1 263 0
 962              		.cfi_startproc
 963 0000 182106F0 		e_stwu %r1,-16(%r1)
 964              	.LCFI38:
 965              		.cfi_def_cfa_offset 16
 966 0004 0080     		se_mflr %r0
 967 0006 D3F1     		se_stw %r31,12(%r1)
 968 0008 D501     		se_stw %r0,20(%r1)
 969              		.cfi_offset 65, 4
GAS LISTING C:\Users\jean\AppData\Local\Temp\ccCUZz5a.s 			page 18


 970              		.cfi_offset 31, -4
 971              		.loc 1 267 0
 972 000a 73E0E000 		e_lis %r31,.LANCHOR0@ha
 973 000e 1FFF0000 		e_la %r31,.LANCHOR0@l(%r31)
 974 0012 513F0024 		e_lwz %r9,36(%r31)
 975 0016 1829A800 		e_cmpi %cr1,%r9,0
 976 001a 7A16002C 		e_beq %cr1,.L49
 977              		.loc 1 270 0
 978 001e 71000009 		e_li %r8,9
 979 0022 715FE7F4 		e_lis %r10,0xfff4
 980              		.loc 1 271 0
 981 0026 4893     		se_li %r3,9
 982              		.loc 1 270 0
 983 0028 194AD140 		e_ori %r10,%r10,16384
 984 002c 350A001C 		e_stb %r8,28(%r10)
 985              		.loc 1 274 0
 986 0030 C501     		se_lwz %r0,20(%r1)
 987              		.loc 1 271 0
 988 0032 51490008 		e_lwz %r10,8(%r9)
 989              		.loc 1 274 0
 990 0036 C3F1     		se_lwz %r31,12(%r1)
 991              		.loc 1 271 0
 992 0038 50890010 		e_lwz %r4,16(%r9)
 993 003c 7D4903A6 		mtctr %r10
 994              		.loc 1 274 0
 995 0040 0090     		se_mtlr %r0
 996              		.cfi_remember_state
 997              		.cfi_restore 65
 998 0042 20F1     		se_addi %r1,16
 999              	.LCFI39:
 1000              		.cfi_restore 31
 1001              		.cfi_def_cfa_offset 0
 1002              		.loc 1 271 0
 1003 0044 0006     		se_bctr
 1004              	.LVL36:
 1005              	.L49:
 1006              	.LCFI40:
 1007              		.cfi_restore_state
 1008              	.LBB97:
 1009              	.LBB98:
 1010              	.LBB99:
 1011              		.loc 2 74 0
 1012 0046 78000001 		e_bl port_halt
 1013              	.LVL37:
 1014 004a 513F0024 		e_lwz %r9,36(%r31)
 1015              	.LBE99:
 1016              	.LBE98:
 1017              	.LBE97:
 1018              		.loc 1 270 0
 1019 004e 71000009 		e_li %r8,9
 1020 0052 715FE7F4 		e_lis %r10,0xfff4
 1021              		.loc 1 271 0
 1022 0056 4893     		se_li %r3,9
 1023              		.loc 1 270 0
 1024 0058 194AD140 		e_ori %r10,%r10,16384
 1025 005c 350A001C 		e_stb %r8,28(%r10)
 1026              		.loc 1 274 0
GAS LISTING C:\Users\jean\AppData\Local\Temp\ccCUZz5a.s 			page 19


 1027 0060 C501     		se_lwz %r0,20(%r1)
 1028              		.loc 1 271 0
 1029 0062 51490008 		e_lwz %r10,8(%r9)
 1030              		.loc 1 274 0
 1031 0066 C3F1     		se_lwz %r31,12(%r1)
 1032              		.loc 1 271 0
 1033 0068 50890010 		e_lwz %r4,16(%r9)
 1034 006c 7D4903A6 		mtctr %r10
 1035              		.loc 1 274 0
 1036 0070 0090     		se_mtlr %r0
 1037              		.cfi_restore 65
 1038 0072 20F1     		se_addi %r1,16
 1039              	.LCFI41:
 1040              		.cfi_restore 31
 1041              		.cfi_def_cfa_offset 0
 1042              		.loc 1 271 0
 1043 0074 0006     		se_bctr
 1044              	.LVL38:
 1045              		.cfi_endproc
 1046              	.LFE54:
 1047              		.size	vector20, .-vector20
 1048              		.section	.text.vector21,"axv",@progbits
 1049              		.align 1
 1050              		.p2align 4,,15
 1051              		.globl vector21
 1052              		.type	vector21, @function
 1053              	vector21:
 1054              	.LFB55:
 1055              		.loc 1 281 0
 1056              		.cfi_startproc
 1057 0000 182106F0 		e_stwu %r1,-16(%r1)
 1058              	.LCFI42:
 1059              		.cfi_def_cfa_offset 16
 1060 0004 0080     		se_mflr %r0
 1061 0006 D3F1     		se_stw %r31,12(%r1)
 1062 0008 D501     		se_stw %r0,20(%r1)
 1063              		.cfi_offset 65, 4
 1064              		.cfi_offset 31, -4
 1065              		.loc 1 285 0
 1066 000a 73E0E000 		e_lis %r31,.LANCHOR0@ha
 1067 000e 1FFF0000 		e_la %r31,.LANCHOR0@l(%r31)
 1068 0012 513F0028 		e_lwz %r9,40(%r31)
 1069 0016 1829A800 		e_cmpi %cr1,%r9,0
 1070 001a 7A16002C 		e_beq %cr1,.L52
 1071              		.loc 1 288 0
 1072 001e 7100000A 		e_li %r8,10
 1073 0022 715FE7F4 		e_lis %r10,0xfff4
 1074              		.loc 1 289 0
 1075 0026 48A3     		se_li %r3,10
 1076              		.loc 1 288 0
 1077 0028 194AD140 		e_ori %r10,%r10,16384
 1078 002c 350A001C 		e_stb %r8,28(%r10)
 1079              		.loc 1 292 0
 1080 0030 C501     		se_lwz %r0,20(%r1)
 1081              		.loc 1 289 0
 1082 0032 51490008 		e_lwz %r10,8(%r9)
 1083              		.loc 1 292 0
GAS LISTING C:\Users\jean\AppData\Local\Temp\ccCUZz5a.s 			page 20


 1084 0036 C3F1     		se_lwz %r31,12(%r1)
 1085              		.loc 1 289 0
 1086 0038 50890010 		e_lwz %r4,16(%r9)
 1087 003c 7D4903A6 		mtctr %r10
 1088              		.loc 1 292 0
 1089 0040 0090     		se_mtlr %r0
 1090              		.cfi_remember_state
 1091              		.cfi_restore 65
 1092 0042 20F1     		se_addi %r1,16
 1093              	.LCFI43:
 1094              		.cfi_restore 31
 1095              		.cfi_def_cfa_offset 0
 1096              		.loc 1 289 0
 1097 0044 0006     		se_bctr
 1098              	.LVL39:
 1099              	.L52:
 1100              	.LCFI44:
 1101              		.cfi_restore_state
 1102              	.LBB100:
 1103              	.LBB101:
 1104              	.LBB102:
 1105              		.loc 2 74 0
 1106 0046 78000001 		e_bl port_halt
 1107              	.LVL40:
 1108 004a 513F0028 		e_lwz %r9,40(%r31)
 1109              	.LBE102:
 1110              	.LBE101:
 1111              	.LBE100:
 1112              		.loc 1 288 0
 1113 004e 7100000A 		e_li %r8,10
 1114 0052 715FE7F4 		e_lis %r10,0xfff4
 1115              		.loc 1 289 0
 1116 0056 48A3     		se_li %r3,10
 1117              		.loc 1 288 0
 1118 0058 194AD140 		e_ori %r10,%r10,16384
 1119 005c 350A001C 		e_stb %r8,28(%r10)
 1120              		.loc 1 292 0
 1121 0060 C501     		se_lwz %r0,20(%r1)
 1122              		.loc 1 289 0
 1123 0062 51490008 		e_lwz %r10,8(%r9)
 1124              		.loc 1 292 0
 1125 0066 C3F1     		se_lwz %r31,12(%r1)
 1126              		.loc 1 289 0
 1127 0068 50890010 		e_lwz %r4,16(%r9)
 1128 006c 7D4903A6 		mtctr %r10
 1129              		.loc 1 292 0
 1130 0070 0090     		se_mtlr %r0
 1131              		.cfi_restore 65
 1132 0072 20F1     		se_addi %r1,16
 1133              	.LCFI45:
 1134              		.cfi_restore 31
 1135              		.cfi_def_cfa_offset 0
 1136              		.loc 1 289 0
 1137 0074 0006     		se_bctr
 1138              	.LVL41:
 1139              		.cfi_endproc
 1140              	.LFE55:
GAS LISTING C:\Users\jean\AppData\Local\Temp\ccCUZz5a.s 			page 21


 1141              		.size	vector21, .-vector21
 1142              		.section	.text.vector22,"axv",@progbits
 1143              		.align 1
 1144              		.p2align 4,,15
 1145              		.globl vector22
 1146              		.type	vector22, @function
 1147              	vector22:
 1148              	.LFB56:
 1149              		.loc 1 299 0
 1150              		.cfi_startproc
 1151 0000 182106F0 		e_stwu %r1,-16(%r1)
 1152              	.LCFI46:
 1153              		.cfi_def_cfa_offset 16
 1154 0004 0080     		se_mflr %r0
 1155 0006 D3F1     		se_stw %r31,12(%r1)
 1156 0008 D501     		se_stw %r0,20(%r1)
 1157              		.cfi_offset 65, 4
 1158              		.cfi_offset 31, -4
 1159              		.loc 1 303 0
 1160 000a 73E0E000 		e_lis %r31,.LANCHOR0@ha
 1161 000e 1FFF0000 		e_la %r31,.LANCHOR0@l(%r31)
 1162 0012 513F002C 		e_lwz %r9,44(%r31)
 1163 0016 1829A800 		e_cmpi %cr1,%r9,0
 1164 001a 7A16002C 		e_beq %cr1,.L55
 1165              		.loc 1 306 0
 1166 001e 7100000B 		e_li %r8,11
 1167 0022 715FE7F4 		e_lis %r10,0xfff4
 1168              		.loc 1 307 0
 1169 0026 48B3     		se_li %r3,11
 1170              		.loc 1 306 0
 1171 0028 194AD140 		e_ori %r10,%r10,16384
 1172 002c 350A001C 		e_stb %r8,28(%r10)
 1173              		.loc 1 310 0
 1174 0030 C501     		se_lwz %r0,20(%r1)
 1175              		.loc 1 307 0
 1176 0032 51490008 		e_lwz %r10,8(%r9)
 1177              		.loc 1 310 0
 1178 0036 C3F1     		se_lwz %r31,12(%r1)
 1179              		.loc 1 307 0
 1180 0038 50890010 		e_lwz %r4,16(%r9)
 1181 003c 7D4903A6 		mtctr %r10
 1182              		.loc 1 310 0
 1183 0040 0090     		se_mtlr %r0
 1184              		.cfi_remember_state
 1185              		.cfi_restore 65
 1186 0042 20F1     		se_addi %r1,16
 1187              	.LCFI47:
 1188              		.cfi_restore 31
 1189              		.cfi_def_cfa_offset 0
 1190              		.loc 1 307 0
 1191 0044 0006     		se_bctr
 1192              	.LVL42:
 1193              	.L55:
 1194              	.LCFI48:
 1195              		.cfi_restore_state
 1196              	.LBB103:
 1197              	.LBB104:
GAS LISTING C:\Users\jean\AppData\Local\Temp\ccCUZz5a.s 			page 22


 1198              	.LBB105:
 1199              		.loc 2 74 0
 1200 0046 78000001 		e_bl port_halt
 1201              	.LVL43:
 1202 004a 513F002C 		e_lwz %r9,44(%r31)
 1203              	.LBE105:
 1204              	.LBE104:
 1205              	.LBE103:
 1206              		.loc 1 306 0
 1207 004e 7100000B 		e_li %r8,11
 1208 0052 715FE7F4 		e_lis %r10,0xfff4
 1209              		.loc 1 307 0
 1210 0056 48B3     		se_li %r3,11
 1211              		.loc 1 306 0
 1212 0058 194AD140 		e_ori %r10,%r10,16384
 1213 005c 350A001C 		e_stb %r8,28(%r10)
 1214              		.loc 1 310 0
 1215 0060 C501     		se_lwz %r0,20(%r1)
 1216              		.loc 1 307 0
 1217 0062 51490008 		e_lwz %r10,8(%r9)
 1218              		.loc 1 310 0
 1219 0066 C3F1     		se_lwz %r31,12(%r1)
 1220              		.loc 1 307 0
 1221 0068 50890010 		e_lwz %r4,16(%r9)
 1222 006c 7D4903A6 		mtctr %r10
 1223              		.loc 1 310 0
 1224 0070 0090     		se_mtlr %r0
 1225              		.cfi_restore 65
 1226 0072 20F1     		se_addi %r1,16
 1227              	.LCFI49:
 1228              		.cfi_restore 31
 1229              		.cfi_def_cfa_offset 0
 1230              		.loc 1 307 0
 1231 0074 0006     		se_bctr
 1232              	.LVL44:
 1233              		.cfi_endproc
 1234              	.LFE56:
 1235              		.size	vector22, .-vector22
 1236              		.section	.text.vector23,"axv",@progbits
 1237              		.align 1
 1238              		.p2align 4,,15
 1239              		.globl vector23
 1240              		.type	vector23, @function
 1241              	vector23:
 1242              	.LFB57:
 1243              		.loc 1 317 0
 1244              		.cfi_startproc
 1245 0000 182106F0 		e_stwu %r1,-16(%r1)
 1246              	.LCFI50:
 1247              		.cfi_def_cfa_offset 16
 1248 0004 0080     		se_mflr %r0
 1249 0006 D3F1     		se_stw %r31,12(%r1)
 1250 0008 D501     		se_stw %r0,20(%r1)
 1251              		.cfi_offset 65, 4
 1252              		.cfi_offset 31, -4
 1253              		.loc 1 321 0
 1254 000a 73E0E000 		e_lis %r31,.LANCHOR0@ha
GAS LISTING C:\Users\jean\AppData\Local\Temp\ccCUZz5a.s 			page 23


 1255 000e 1FFF0000 		e_la %r31,.LANCHOR0@l(%r31)
 1256 0012 513F0030 		e_lwz %r9,48(%r31)
 1257 0016 1829A800 		e_cmpi %cr1,%r9,0
 1258 001a 7A16002C 		e_beq %cr1,.L58
 1259              		.loc 1 324 0
 1260 001e 7100000C 		e_li %r8,12
 1261 0022 715FE7F4 		e_lis %r10,0xfff4
 1262              		.loc 1 325 0
 1263 0026 48C3     		se_li %r3,12
 1264              		.loc 1 324 0
 1265 0028 194AD140 		e_ori %r10,%r10,16384
 1266 002c 350A001C 		e_stb %r8,28(%r10)
 1267              		.loc 1 328 0
 1268 0030 C501     		se_lwz %r0,20(%r1)
 1269              		.loc 1 325 0
 1270 0032 51490008 		e_lwz %r10,8(%r9)
 1271              		.loc 1 328 0
 1272 0036 C3F1     		se_lwz %r31,12(%r1)
 1273              		.loc 1 325 0
 1274 0038 50890010 		e_lwz %r4,16(%r9)
 1275 003c 7D4903A6 		mtctr %r10
 1276              		.loc 1 328 0
 1277 0040 0090     		se_mtlr %r0
 1278              		.cfi_remember_state
 1279              		.cfi_restore 65
 1280 0042 20F1     		se_addi %r1,16
 1281              	.LCFI51:
 1282              		.cfi_restore 31
 1283              		.cfi_def_cfa_offset 0
 1284              		.loc 1 325 0
 1285 0044 0006     		se_bctr
 1286              	.LVL45:
 1287              	.L58:
 1288              	.LCFI52:
 1289              		.cfi_restore_state
 1290              	.LBB106:
 1291              	.LBB107:
 1292              	.LBB108:
 1293              		.loc 2 74 0
 1294 0046 78000001 		e_bl port_halt
 1295              	.LVL46:
 1296 004a 513F0030 		e_lwz %r9,48(%r31)
 1297              	.LBE108:
 1298              	.LBE107:
 1299              	.LBE106:
 1300              		.loc 1 324 0
 1301 004e 7100000C 		e_li %r8,12
 1302 0052 715FE7F4 		e_lis %r10,0xfff4
 1303              		.loc 1 325 0
 1304 0056 48C3     		se_li %r3,12
 1305              		.loc 1 324 0
 1306 0058 194AD140 		e_ori %r10,%r10,16384
 1307 005c 350A001C 		e_stb %r8,28(%r10)
 1308              		.loc 1 328 0
 1309 0060 C501     		se_lwz %r0,20(%r1)
 1310              		.loc 1 325 0
 1311 0062 51490008 		e_lwz %r10,8(%r9)
GAS LISTING C:\Users\jean\AppData\Local\Temp\ccCUZz5a.s 			page 24


 1312              		.loc 1 328 0
 1313 0066 C3F1     		se_lwz %r31,12(%r1)
 1314              		.loc 1 325 0
 1315 0068 50890010 		e_lwz %r4,16(%r9)
 1316 006c 7D4903A6 		mtctr %r10
 1317              		.loc 1 328 0
 1318 0070 0090     		se_mtlr %r0
 1319              		.cfi_restore 65
 1320 0072 20F1     		se_addi %r1,16
 1321              	.LCFI53:
 1322              		.cfi_restore 31
 1323              		.cfi_def_cfa_offset 0
 1324              		.loc 1 325 0
 1325 0074 0006     		se_bctr
 1326              	.LVL47:
 1327              		.cfi_endproc
 1328              	.LFE57:
 1329              		.size	vector23, .-vector23
 1330              		.section	.text.vector24,"axv",@progbits
 1331              		.align 1
 1332              		.p2align 4,,15
 1333              		.globl vector24
 1334              		.type	vector24, @function
 1335              	vector24:
 1336              	.LFB58:
 1337              		.loc 1 335 0
 1338              		.cfi_startproc
 1339 0000 182106F0 		e_stwu %r1,-16(%r1)
 1340              	.LCFI54:
 1341              		.cfi_def_cfa_offset 16
 1342 0004 0080     		se_mflr %r0
 1343 0006 D3F1     		se_stw %r31,12(%r1)
 1344 0008 D501     		se_stw %r0,20(%r1)
 1345              		.cfi_offset 65, 4
 1346              		.cfi_offset 31, -4
 1347              		.loc 1 339 0
 1348 000a 73E0E000 		e_lis %r31,.LANCHOR0@ha
 1349 000e 1FFF0000 		e_la %r31,.LANCHOR0@l(%r31)
 1350 0012 513F0034 		e_lwz %r9,52(%r31)
 1351 0016 1829A800 		e_cmpi %cr1,%r9,0
 1352 001a 7A16002C 		e_beq %cr1,.L61
 1353              		.loc 1 342 0
 1354 001e 7100000D 		e_li %r8,13
 1355 0022 715FE7F4 		e_lis %r10,0xfff4
 1356              		.loc 1 343 0
 1357 0026 48D3     		se_li %r3,13
 1358              		.loc 1 342 0
 1359 0028 194AD140 		e_ori %r10,%r10,16384
 1360 002c 350A001C 		e_stb %r8,28(%r10)
 1361              		.loc 1 346 0
 1362 0030 C501     		se_lwz %r0,20(%r1)
 1363              		.loc 1 343 0
 1364 0032 51490008 		e_lwz %r10,8(%r9)
 1365              		.loc 1 346 0
 1366 0036 C3F1     		se_lwz %r31,12(%r1)
 1367              		.loc 1 343 0
 1368 0038 50890010 		e_lwz %r4,16(%r9)
GAS LISTING C:\Users\jean\AppData\Local\Temp\ccCUZz5a.s 			page 25


 1369 003c 7D4903A6 		mtctr %r10
 1370              		.loc 1 346 0
 1371 0040 0090     		se_mtlr %r0
 1372              		.cfi_remember_state
 1373              		.cfi_restore 65
 1374 0042 20F1     		se_addi %r1,16
 1375              	.LCFI55:
 1376              		.cfi_restore 31
 1377              		.cfi_def_cfa_offset 0
 1378              		.loc 1 343 0
 1379 0044 0006     		se_bctr
 1380              	.LVL48:
 1381              	.L61:
 1382              	.LCFI56:
 1383              		.cfi_restore_state
 1384              	.LBB109:
 1385              	.LBB110:
 1386              	.LBB111:
 1387              		.loc 2 74 0
 1388 0046 78000001 		e_bl port_halt
 1389              	.LVL49:
 1390 004a 513F0034 		e_lwz %r9,52(%r31)
 1391              	.LBE111:
 1392              	.LBE110:
 1393              	.LBE109:
 1394              		.loc 1 342 0
 1395 004e 7100000D 		e_li %r8,13
 1396 0052 715FE7F4 		e_lis %r10,0xfff4
 1397              		.loc 1 343 0
 1398 0056 48D3     		se_li %r3,13
 1399              		.loc 1 342 0
 1400 0058 194AD140 		e_ori %r10,%r10,16384
 1401 005c 350A001C 		e_stb %r8,28(%r10)
 1402              		.loc 1 346 0
 1403 0060 C501     		se_lwz %r0,20(%r1)
 1404              		.loc 1 343 0
 1405 0062 51490008 		e_lwz %r10,8(%r9)
 1406              		.loc 1 346 0
 1407 0066 C3F1     		se_lwz %r31,12(%r1)
 1408              		.loc 1 343 0
 1409 0068 50890010 		e_lwz %r4,16(%r9)
 1410 006c 7D4903A6 		mtctr %r10
 1411              		.loc 1 346 0
 1412 0070 0090     		se_mtlr %r0
 1413              		.cfi_restore 65
 1414 0072 20F1     		se_addi %r1,16
 1415              	.LCFI57:
 1416              		.cfi_restore 31
 1417              		.cfi_def_cfa_offset 0
 1418              		.loc 1 343 0
 1419 0074 0006     		se_bctr
 1420              	.LVL50:
 1421              		.cfi_endproc
 1422              	.LFE58:
 1423              		.size	vector24, .-vector24
 1424              		.section	.text.vector25,"axv",@progbits
 1425              		.align 1
GAS LISTING C:\Users\jean\AppData\Local\Temp\ccCUZz5a.s 			page 26


 1426              		.p2align 4,,15
 1427              		.globl vector25
 1428              		.type	vector25, @function
 1429              	vector25:
 1430              	.LFB59:
 1431              		.loc 1 353 0
 1432              		.cfi_startproc
 1433 0000 182106F0 		e_stwu %r1,-16(%r1)
 1434              	.LCFI58:
 1435              		.cfi_def_cfa_offset 16
 1436 0004 0080     		se_mflr %r0
 1437 0006 D3F1     		se_stw %r31,12(%r1)
 1438 0008 D501     		se_stw %r0,20(%r1)
 1439              		.cfi_offset 65, 4
 1440              		.cfi_offset 31, -4
 1441              		.loc 1 357 0
 1442 000a 73E0E000 		e_lis %r31,.LANCHOR0@ha
 1443 000e 1FFF0000 		e_la %r31,.LANCHOR0@l(%r31)
 1444 0012 513F0038 		e_lwz %r9,56(%r31)
 1445 0016 1829A800 		e_cmpi %cr1,%r9,0
 1446 001a 7A16002C 		e_beq %cr1,.L64
 1447              		.loc 1 360 0
 1448 001e 7100000E 		e_li %r8,14
 1449 0022 715FE7F4 		e_lis %r10,0xfff4
 1450              		.loc 1 361 0
 1451 0026 48E3     		se_li %r3,14
 1452              		.loc 1 360 0
 1453 0028 194AD140 		e_ori %r10,%r10,16384
 1454 002c 350A001C 		e_stb %r8,28(%r10)
 1455              		.loc 1 364 0
 1456 0030 C501     		se_lwz %r0,20(%r1)
 1457              		.loc 1 361 0
 1458 0032 51490008 		e_lwz %r10,8(%r9)
 1459              		.loc 1 364 0
 1460 0036 C3F1     		se_lwz %r31,12(%r1)
 1461              		.loc 1 361 0
 1462 0038 50890010 		e_lwz %r4,16(%r9)
 1463 003c 7D4903A6 		mtctr %r10
 1464              		.loc 1 364 0
 1465 0040 0090     		se_mtlr %r0
 1466              		.cfi_remember_state
 1467              		.cfi_restore 65
 1468 0042 20F1     		se_addi %r1,16
 1469              	.LCFI59:
 1470              		.cfi_restore 31
 1471              		.cfi_def_cfa_offset 0
 1472              		.loc 1 361 0
 1473 0044 0006     		se_bctr
 1474              	.LVL51:
 1475              	.L64:
 1476              	.LCFI60:
 1477              		.cfi_restore_state
 1478              	.LBB112:
 1479              	.LBB113:
 1480              	.LBB114:
 1481              		.loc 2 74 0
 1482 0046 78000001 		e_bl port_halt
GAS LISTING C:\Users\jean\AppData\Local\Temp\ccCUZz5a.s 			page 27


 1483              	.LVL52:
 1484 004a 513F0038 		e_lwz %r9,56(%r31)
 1485              	.LBE114:
 1486              	.LBE113:
 1487              	.LBE112:
 1488              		.loc 1 360 0
 1489 004e 7100000E 		e_li %r8,14
 1490 0052 715FE7F4 		e_lis %r10,0xfff4
 1491              		.loc 1 361 0
 1492 0056 48E3     		se_li %r3,14
 1493              		.loc 1 360 0
 1494 0058 194AD140 		e_ori %r10,%r10,16384
 1495 005c 350A001C 		e_stb %r8,28(%r10)
 1496              		.loc 1 364 0
 1497 0060 C501     		se_lwz %r0,20(%r1)
 1498              		.loc 1 361 0
 1499 0062 51490008 		e_lwz %r10,8(%r9)
 1500              		.loc 1 364 0
 1501 0066 C3F1     		se_lwz %r31,12(%r1)
 1502              		.loc 1 361 0
 1503 0068 50890010 		e_lwz %r4,16(%r9)
 1504 006c 7D4903A6 		mtctr %r10
 1505              		.loc 1 364 0
 1506 0070 0090     		se_mtlr %r0
 1507              		.cfi_restore 65
 1508 0072 20F1     		se_addi %r1,16
 1509              	.LCFI61:
 1510              		.cfi_restore 31
 1511              		.cfi_def_cfa_offset 0
 1512              		.loc 1 361 0
 1513 0074 0006     		se_bctr
 1514              	.LVL53:
 1515              		.cfi_endproc
 1516              	.LFE59:
 1517              		.size	vector25, .-vector25
 1518              		.section	.text.vector26,"axv",@progbits
 1519              		.align 1
 1520              		.p2align 4,,15
 1521              		.globl vector26
 1522              		.type	vector26, @function
 1523              	vector26:
 1524              	.LFB60:
 1525              		.loc 1 371 0
 1526              		.cfi_startproc
 1527 0000 182106F0 		e_stwu %r1,-16(%r1)
 1528              	.LCFI62:
 1529              		.cfi_def_cfa_offset 16
 1530 0004 0080     		se_mflr %r0
 1531 0006 D3F1     		se_stw %r31,12(%r1)
 1532 0008 D501     		se_stw %r0,20(%r1)
 1533              		.cfi_offset 65, 4
 1534              		.cfi_offset 31, -4
 1535              		.loc 1 375 0
 1536 000a 73E0E000 		e_lis %r31,.LANCHOR0@ha
 1537 000e 1FFF0000 		e_la %r31,.LANCHOR0@l(%r31)
 1538 0012 513F003C 		e_lwz %r9,60(%r31)
 1539 0016 1829A800 		e_cmpi %cr1,%r9,0
GAS LISTING C:\Users\jean\AppData\Local\Temp\ccCUZz5a.s 			page 28


 1540 001a 7A16002C 		e_beq %cr1,.L67
 1541              		.loc 1 378 0
 1542 001e 7100000F 		e_li %r8,15
 1543 0022 715FE7F4 		e_lis %r10,0xfff4
 1544              		.loc 1 379 0
 1545 0026 48F3     		se_li %r3,15
 1546              		.loc 1 378 0
 1547 0028 194AD140 		e_ori %r10,%r10,16384
 1548 002c 350A001C 		e_stb %r8,28(%r10)
 1549              		.loc 1 382 0
 1550 0030 C501     		se_lwz %r0,20(%r1)
 1551              		.loc 1 379 0
 1552 0032 51490008 		e_lwz %r10,8(%r9)
 1553              		.loc 1 382 0
 1554 0036 C3F1     		se_lwz %r31,12(%r1)
 1555              		.loc 1 379 0
 1556 0038 50890010 		e_lwz %r4,16(%r9)
 1557 003c 7D4903A6 		mtctr %r10
 1558              		.loc 1 382 0
 1559 0040 0090     		se_mtlr %r0
 1560              		.cfi_remember_state
 1561              		.cfi_restore 65
 1562 0042 20F1     		se_addi %r1,16
 1563              	.LCFI63:
 1564              		.cfi_restore 31
 1565              		.cfi_def_cfa_offset 0
 1566              		.loc 1 379 0
 1567 0044 0006     		se_bctr
 1568              	.LVL54:
 1569              	.L67:
 1570              	.LCFI64:
 1571              		.cfi_restore_state
 1572              	.LBB115:
 1573              	.LBB116:
 1574              	.LBB117:
 1575              		.loc 2 74 0
 1576 0046 78000001 		e_bl port_halt
 1577              	.LVL55:
 1578 004a 513F003C 		e_lwz %r9,60(%r31)
 1579              	.LBE117:
 1580              	.LBE116:
 1581              	.LBE115:
 1582              		.loc 1 378 0
 1583 004e 7100000F 		e_li %r8,15
 1584 0052 715FE7F4 		e_lis %r10,0xfff4
 1585              		.loc 1 379 0
 1586 0056 48F3     		se_li %r3,15
 1587              		.loc 1 378 0
 1588 0058 194AD140 		e_ori %r10,%r10,16384
 1589 005c 350A001C 		e_stb %r8,28(%r10)
 1590              		.loc 1 382 0
 1591 0060 C501     		se_lwz %r0,20(%r1)
 1592              		.loc 1 379 0
 1593 0062 51490008 		e_lwz %r10,8(%r9)
 1594              		.loc 1 382 0
 1595 0066 C3F1     		se_lwz %r31,12(%r1)
 1596              		.loc 1 379 0
GAS LISTING C:\Users\jean\AppData\Local\Temp\ccCUZz5a.s 			page 29


 1597 0068 50890010 		e_lwz %r4,16(%r9)
 1598 006c 7D4903A6 		mtctr %r10
 1599              		.loc 1 382 0
 1600 0070 0090     		se_mtlr %r0
 1601              		.cfi_restore 65
 1602 0072 20F1     		se_addi %r1,16
 1603              	.LCFI65:
 1604              		.cfi_restore 31
 1605              		.cfi_def_cfa_offset 0
 1606              		.loc 1 379 0
 1607 0074 0006     		se_bctr
 1608              	.LVL56:
 1609              		.cfi_endproc
 1610              	.LFE60:
 1611              		.size	vector26, .-vector26
 1612              		.section	.text.edmaInit,"axv",@progbits
 1613              		.align 1
 1614              		.p2align 4,,15
 1615              		.globl edmaInit
 1616              		.type	edmaInit, @function
 1617              	edmaInit:
 1618              	.LFB61:
 1619              		.loc 1 1293 0
 1620              		.cfi_startproc
 1621              		.loc 1 1299 0
 1622 0000 2C07     		se_bmaski %r7,0
 1623              		.loc 1 1297 0
 1624 0002 71400000 		e_li %r10,0
 1625              		.loc 1 1296 0
 1626 0006 71000080 		e_li %r8,128
 1627 000a 713FE7F4 		e_lis %r9,0xfff4
 1628 000e 1929D140 		e_ori %r9,%r9,16384
 1629 0012 55090000 		e_stw %r8,0(%r9)
 1630              		.loc 1 1310 0
 1631 0016 0316     		se_mfar %r6,%r9
 1632              		.loc 1 1297 0
 1633 0018 5549000C 		e_stw %r10,12(%r9)
 1634 001c 7100E000 		e_lis %r8,.LANCHOR1@ha
 1635              		.loc 1 1298 0
 1636 0020 55490014 		e_stw %r10,20(%r9)
 1637 0024 1D080000 		e_la %r8,.LANCHOR1@l(%r8)
 1638              		.loc 1 1299 0
 1639 0028 54E90024 		e_stw %r7,36(%r9)
 1640 002c 190884FF 		e_addi %r8,%r8,-1
 1641              		.loc 1 1300 0
 1642 0030 54E9002C 		e_stw %r7,44(%r9)
 1643              	.LVL57:
 1644              		.loc 1 1310 0
 1645 0034 4907     		se_li %r7,16
 1646 0036 00B7     		se_mtctr %r7
 1647              	.LVL58:
 1648              	.L69:
 1649              		.loc 1 1310 0 is_stmt 0 discriminator 3
 1650 0038 7D265214 		add %r9,%r6,%r10
 1651 003c 18E80001 		e_lbzu %r7,1(%r8)
 1652 0040 194A8001 		e_addi %r10,%r10,1
 1653              	.LVL59:
GAS LISTING C:\Users\jean\AppData\Local\Temp\ccCUZz5a.s 			page 30


 1654 0044 34E90100 		e_stb %r7,256(%r9)
 1655              		.loc 1 1309 0 is_stmt 1 discriminator 3
 1656 0048 7A20FFF0 		e_bdnz .L69
 1657              		.loc 1 1321 0
 1658 004c 7140000C 		e_li %r10,12
 1659              	.LVL60:
 1660 0050 713FE7F4 		e_lis %r9,0xfff4
 1661              		.loc 1 1325 0
 1662 0054 4973     		se_li %r3,23
 1663              		.loc 1 1321 0
 1664 0056 1929D180 		e_ori %r9,%r9,32768
 1665              		.loc 1 1325 0
 1666 005a 4914     		se_li %r4,17
 1667              		.loc 1 1321 0
 1668 005c 3549004A 		e_stb %r10,74(%r9)
 1669              		.loc 1 1327 0
 1670              		.loc 1 1325 0
 1671 0060 78000000 		e_b halSPCSetPeripheralClockMode
 1672              	.LVL61:
 1673              		.cfi_endproc
 1674              	.LFE61:
 1675              		.size	edmaInit, .-edmaInit
 1676              		.section	.text.edmaChannelAllocate,"axv",@progbits
 1677              		.align 1
 1678              		.p2align 4,,15
 1679              		.globl edmaChannelAllocate
 1680              		.type	edmaChannelAllocate, @function
 1681              	edmaChannelAllocate:
 1682              	.LFB62:
 1683              		.loc 1 1338 0
 1684              		.cfi_startproc
 1685              	.LVL62:
 1686              		.loc 1 1343 0
 1687 0000 51030000 		e_lwz %r8,0(%r3)
 1688 0004 7140E000 		e_lis %r10,.LANCHOR0@ha
 1689 0008 7D091070 		e_slwi %r9,%r8,2
 1690 000c 1D4A0000 		e_la %r10,.LANCHOR0@l(%r10)
 1691 0010 7D2A482E 		lwzx %r9,%r10,%r9
 1692 0014 1829A800 		e_cmpi %cr1,%r9,0
 1693 0018 7A060054 		e_bne %cr1,.L74
 1694              		.loc 1 1348 0
 1695 001c 31230004 		e_lbz %r9,4(%r3)
 1696 0020 70F86800 		e_li %r7,-147456
 1697 0024 1929D480 		e_ori %r9,%r9,-128
 1698 0028 7D2741AE 		stbx %r9,%r7,%r8
 1699              		.loc 1 1353 0
 1700 002c 51230000 		e_lwz %r9,0(%r3)
 1701 0030 7D281070 		e_slwi %r8,%r9,2
 1702 0034 7C6A412E 		stwx %r3,%r10,%r8
 1703              		.loc 1 1357 0
 1704 0038 5143000C 		e_lwz %r10,12(%r3)
 1705 003c 182AA800 		e_cmpi %cr1,%r10,0
 1706 0040 7A160014 		e_beq %cr1,.L73
 1707              		.loc 1 1358 0
 1708 0044 715FE7F4 		e_lis %r10,0xfff4
 1709 0048 194AD140 		e_ori %r10,%r10,16384
 1710 004c 352A001A 		e_stb %r9,26(%r10)
GAS LISTING C:\Users\jean\AppData\Local\Temp\ccCUZz5a.s 			page 31


 1711 0050 51230000 		e_lwz %r9,0(%r3)
 1712              	.L73:
 1713              		.loc 1 1361 0
 1714 0054 31430005 		e_lbz %r10,5(%r3)
 1715 0058 711FE7F4 		e_lis %r8,0xfff4
 1716 005c 7110C00B 		e_or2i %r8,32779
 1717 0060 7D294214 		add %r9,%r9,%r8
 1718 0064 35490040 		e_stb %r10,64(%r9)
 1719              		.loc 1 1363 0
 1720 0068 C033     		se_lwz %r3,0(%r3)
 1721              	.LVL63:
 1722 006a 0004     		se_blr
 1723              	.LVL64:
 1724              	.L74:
 1725              		.loc 1 1344 0
 1726 006c 2C03     		se_bmaski %r3,0
 1727              	.LVL65:
 1728              		.loc 1 1364 0
 1729 006e 0004     		se_blr
 1730              		.cfi_endproc
 1731              	.LFE62:
 1732              		.size	edmaChannelAllocate, .-edmaChannelAllocate
 1733              		.section	.text.edmaChannelRelease,"axv",@progbits
 1734              		.align 1
 1735              		.p2align 4,,15
 1736              		.globl edmaChannelRelease
 1737              		.type	edmaChannelRelease, @function
 1738              	edmaChannelRelease:
 1739              	.LFB63:
 1740              		.loc 1 1373 0
 1741              		.cfi_startproc
 1742              	.LVL66:
 1743              		.loc 1 1379 0
 1744 0000 0232     		se_mtar %r10,%r3
 1745 0002 713FE7F4 		e_lis %r9,0xfff4
 1746              		.loc 1 1383 0
 1747 0006 4807     		se_li %r7,0
 1748              		.loc 1 1379 0
 1749 0008 1929D140 		e_ori %r9,%r9,16384
 1750              		.loc 1 1383 0
 1751 000c 71006800 		e_li %r8,-196608
 1752              		.loc 1 1379 0
 1753 0010 34690019 		e_stb %r3,25(%r9)
 1754              		.loc 1 1383 0
 1755 0014 1908D1C0 		e_ori %r8,%r8,49152
 1756              		.loc 1 1379 0
 1757 0018 3469001F 		e_stb %r3,31(%r9)
 1758              		.loc 1 1383 0
 1759 001c 7CE819AE 		stbx %r7,%r8,%r3
 1760              		.loc 1 1387 0
 1761 0020 3469001C 		e_stb %r3,28(%r9)
 1762              		.loc 1 1388 0
 1763 0024 3549001B 		e_stb %r10,27(%r9)
 1764              		.loc 1 1392 0
 1765 0028 6C23     		se_slwi %r3, 2
 1766              	.LVL67:
 1767              		.loc 1 1389 0
GAS LISTING C:\Users\jean\AppData\Local\Temp\ccCUZz5a.s 			page 32


 1768 002a 3549001D 		e_stb %r10,29(%r9)
 1769              		.loc 1 1392 0
 1770 002e 71400000 		e_li %r10,0
 1771 0032 7120E000 		e_lis %r9,.LANCHOR0@ha
 1772 0036 1D290000 		e_la %r9,.LANCHOR0@l(%r9)
 1773 003a 7D49192E 		stwx %r10,%r9,%r3
 1774 003e 0004     		se_blr
 1775              		.cfi_endproc
 1776              	.LFE63:
 1777              		.size	edmaChannelRelease, .-edmaChannelRelease
 1778              		.section	.rodata.g0,"a",@progbits
 1779              		.align 2
 1780              		.set	.LANCHOR1,. + 0
 1781              		.type	g0, @object
 1782              		.size	g0, 16
 1783              	g0:
 1784 0000 00       		.byte	0
 1785 0001 01       		.byte	1
 1786 0002 02       		.byte	2
 1787 0003 03       		.byte	3
 1788 0004 04       		.byte	4
 1789 0005 05       		.byte	5
 1790 0006 06       		.byte	6
 1791 0007 07       		.byte	7
 1792 0008 08       		.byte	8
 1793 0009 09       		.byte	9
 1794 000a 0A       		.byte	10
 1795 000b 0B       		.byte	11
 1796 000c 0C       		.byte	12
 1797 000d 0D       		.byte	13
 1798 000e 0E       		.byte	14
 1799 000f 0F       		.byte	15
 1800              		.section	.bss.channels,"aw",@nobits
 1801              		.align 2
 1802              		.set	.LANCHOR0,. + 0
 1803              		.type	channels, @object
 1804              		.size	channels, 64
 1805              	channels:
 1806 0000 00000000 		.zero	64
 1806      00000000 
 1806      00000000 
 1806      00000000 
 1806      00000000 
 1807              		.section	".text","axv"
 1808              	.Letext0:
 1809              		.file 3 "c:\\spc5studio\\eclipse\\plugins\\com.st.tools.spc5.tools.gnu.gcc.ppcvle.win32_1.0.0.2016
 1810              		.file 4 "c:\\spc5studio\\eclipse\\plugins\\com.st.tools.spc5.tools.gnu.gcc.ppcvle.win32_1.0.0.2016
 1811              		.file 5 "./components/chibios_rt_spc560dxx_kernel_port_component/lib/include/chtypes.h"
 1812              		.file 6 "./components/chibios_rt_portable_kernel_component/lib/include/chvt.h"
 1813              		.file 7 "./components/spc560dxx_hal_drivers_component/lib/include/xpc560d.h"
 1814              		.file 8 "./components/spc560dxx_hal_drivers_component/lib/include/spc5_edma.h"
 1815              		.file 9 "./components/chibios_rt_spc5xx_osal_component/lib/include/osal.h"
 1816              		.file 10 "./components/chibios_rt_spc560dxx_kernel_port_component/lib/include/chcore.h"
 1817              		.file 11 "./components/spc560dxx_hal_drivers_component/lib/include/hal_lld.h"