GAS LISTING C:\Users\jean\AppData\Local\Temp\ccZd4r5i.s 			page 1


   1              		.file	"spc5_emios.c"
   2              		.section	".text","axv"
   3              	.Ltext0:
   4              		.cfi_sections	.debug_frame
   5              		.section	.text.reset_emios0_active_channels,"axv",@progbits
   6              		.align 1
   7              		.p2align 4,,15
   8              		.globl reset_emios0_active_channels
   9              		.type	reset_emios0_active_channels, @function
  10              	reset_emios0_active_channels:
  11              	.LFB44:
  12              		.file 1 "./components/spc560dxx_hal_drivers_component/lib/src/spc5_emios.c"
  13              		.loc 1 58 0
  14              		.cfi_startproc
  15              		.loc 1 59 0
  16 0000 71400000 		e_li %r10,0
  17 0004 7120E000 		e_lis %r9,.LANCHOR0@ha
  18 0008 55490000 		e_stw %r10,.LANCHOR0@l(%r9)
  19 000c 0004     		se_blr
  20              		.cfi_endproc
  21              	.LFE44:
  22              		.size	reset_emios0_active_channels, .-reset_emios0_active_channels
  23              		.section	.text.get_emios0_active_channels,"axv",@progbits
  24              		.align 1
  25              		.p2align 4,,15
  26              		.globl get_emios0_active_channels
  27              		.type	get_emios0_active_channels, @function
  28              	get_emios0_active_channels:
  29              	.LFB45:
  30              		.loc 1 62 0
  31              		.cfi_startproc
  32              		.loc 1 63 0
  33 0000 7120E000 		e_lis %r9,.LANCHOR0@ha
  34              		.loc 1 64 0
  35 0004 50690000 		e_lwz %r3,.LANCHOR0@l(%r9)
  36 0008 0004     		se_blr
  37              		.cfi_endproc
  38              	.LFE45:
  39              		.size	get_emios0_active_channels, .-get_emios0_active_channels
  40              		.section	.text.increase_emios0_active_channels,"axv",@progbits
  41              		.align 1
  42              		.p2align 4,,15
  43              		.globl increase_emios0_active_channels
  44              		.type	increase_emios0_active_channels, @function
  45              	increase_emios0_active_channels:
  46              	.LFB46:
  47              		.loc 1 66 0
  48              		.cfi_startproc
  49              		.loc 1 67 0
  50 0000 7140E000 		e_lis %r10,.LANCHOR0@ha
  51 0004 512A0000 		e_lwz %r9,.LANCHOR0@l(%r10)
  52 0008 19298001 		e_addi %r9,%r9,1
  53 000c 552A0000 		e_stw %r9,.LANCHOR0@l(%r10)
  54 0010 0004     		se_blr
  55              		.cfi_endproc
  56              	.LFE46:
  57              		.size	increase_emios0_active_channels, .-increase_emios0_active_channels
GAS LISTING C:\Users\jean\AppData\Local\Temp\ccZd4r5i.s 			page 2


  58              		.section	.text.decrease_emios0_active_channels,"axv",@progbits
  59              		.align 1
  60              		.p2align 4,,15
  61              		.globl decrease_emios0_active_channels
  62              		.type	decrease_emios0_active_channels, @function
  63              	decrease_emios0_active_channels:
  64              	.LFB47:
  65              		.loc 1 70 0
  66              		.cfi_startproc
  67              		.loc 1 71 0
  68 0000 7140E000 		e_lis %r10,.LANCHOR0@ha
  69 0004 512A0000 		e_lwz %r9,.LANCHOR0@l(%r10)
  70 0008 192984FF 		e_addi %r9,%r9,-1
  71 000c 552A0000 		e_stw %r9,.LANCHOR0@l(%r10)
  72 0010 0004     		se_blr
  73              		.cfi_endproc
  74              	.LFE47:
  75              		.size	decrease_emios0_active_channels, .-decrease_emios0_active_channels
  76              		.section	.text.pwm_active_emios0_clock,"axv",@progbits
  77              		.align 1
  78              		.p2align 4,,15
  79              		.globl pwm_active_emios0_clock
  80              		.type	pwm_active_emios0_clock, @function
  81              	pwm_active_emios0_clock:
  82              	.LFB48:
  83              		.loc 1 105 0
  84              		.cfi_startproc
  85              	.LVL0:
  86 0000 182106F0 		e_stwu %r1,-16(%r1)
  87              	.LCFI0:
  88              		.cfi_def_cfa_offset 16
  89 0004 0080     		se_mflr %r0
  90 0006 1BC10908 		e_stmw %r30,8(%r1)
  91              		.loc 1 107 0
  92 000a 7120E000 		e_lis %r9,.LANCHOR0@ha
  93              		.loc 1 105 0
  94 000e D501     		se_stw %r0,20(%r1)
  95              		.cfi_offset 65, 4
  96              		.cfi_offset 30, -8
  97              		.cfi_offset 31, -4
  98              		.loc 1 107 0
  99 0010 53C90000 		e_lwz %r30,.LANCHOR0@l(%r9)
 100 0014 183EA801 		e_cmpi %cr1,%r30,1
 101 0018 7A160010 		e_beq %cr1,.L8
 102              		.loc 1 121 0
 103 001c C501     		se_lwz %r0,20(%r1)
 104 001e 0090     		se_mtlr %r0
 105              		.cfi_remember_state
 106              		.cfi_restore 65
 107 0020 1BC10808 		e_lmw %r30,8(%r1)
 108 0024 20F1     		se_addi %r1,16
 109              	.LCFI1:
 110              		.cfi_restore 31
 111              		.cfi_restore 30
 112              		.cfi_def_cfa_offset 0
 113 0026 0004     		se_blr
 114              	.L8:
GAS LISTING C:\Users\jean\AppData\Local\Temp\ccZd4r5i.s 			page 3


 115              	.LCFI2:
 116              		.cfi_restore_state
 117 0028 013F     		se_mr %r31,%r3
 118              		.loc 1 108 0
 119 002a 4914     		se_li %r4,17
 120 002c 4C83     		se_li %r3,72
 121              	.LVL1:
 122 002e 78000001 		e_bl halSPCSetPeripheralClockMode
 123              	.LVL2:
 124              		.loc 1 112 0
 125 0032 513F000C 		e_lwz %r9,12(%r31)
 126 0036 71000000 		e_li %r8,0
 127 003a 51490000 		e_lwz %r10,0(%r9)
 128 003e 750AD14A 		e_rlwimi %r10,%r8,26,5,5
 129 0042 55490000 		e_stw %r10,0(%r9)
 130              		.loc 1 113 0
 131 0046 71420300 		e_li %r10,4864
 132 004a 513F000C 		e_lwz %r9,12(%r31)
 133 004e 55490000 		e_stw %r10,0(%r9)
 134              		.loc 1 114 0
 135 0052 515F000C 		e_lwz %r10,12(%r31)
 136 0056 512A0000 		e_lwz %r9,0(%r10)
 137 005a 1929D304 		e_ori %r9,%r9,67108864
 138 005e 552A0000 		e_stw %r9,0(%r10)
 139              		.loc 1 116 0
 140 0062 513F000C 		e_lwz %r9,12(%r31)
 141 0066 51490000 		e_lwz %r10,0(%r9)
 142 006a 77CAE0C6 		e_rlwimi %r10,%r30,28,3,3
 143 006e 55490000 		e_stw %r10,0(%r9)
 144              		.loc 1 118 0
 145 0072 715F7FFF 		e_li %r10,-1
 146 0076 513F000C 		e_lwz %r9,12(%r31)
 147 007a 5549000C 		e_stw %r10,12(%r9)
 148              		.loc 1 121 0
 149 007e C501     		se_lwz %r0,20(%r1)
 150 0080 0090     		se_mtlr %r0
 151              		.cfi_restore 65
 152 0082 1BC10808 		e_lmw %r30,8(%r1)
 153              	.LVL3:
 154 0086 20F1     		se_addi %r1,16
 155              	.LCFI3:
 156              		.cfi_restore 30
 157              		.cfi_restore 31
 158              		.cfi_def_cfa_offset 0
 159 0088 0004     		se_blr
 160              		.cfi_endproc
 161              	.LFE48:
 162              		.size	pwm_active_emios0_clock, .-pwm_active_emios0_clock
 163              		.section	.text.pwm_deactive_emios0_clock,"axv",@progbits
 164              		.align 1
 165              		.p2align 4,,15
 166              		.globl pwm_deactive_emios0_clock
 167              		.type	pwm_deactive_emios0_clock, @function
 168              	pwm_deactive_emios0_clock:
 169              	.LFB49:
 170              		.loc 1 123 0
 171              		.cfi_startproc
GAS LISTING C:\Users\jean\AppData\Local\Temp\ccZd4r5i.s 			page 4


 172              	.LVL4:
 173              		.loc 1 125 0
 174 0000 7120E000 		e_lis %r9,.LANCHOR0@ha
 175 0004 51290000 		e_lwz %r9,.LANCHOR0@l(%r9)
 176 0008 1829A800 		e_cmpi %cr1,%r9,0
 177 000c 7A060014 		e_bne %cr1,.L9
 178              		.loc 1 126 0
 179 0010 5123000C 		e_lwz %r9,12(%r3)
 180 0014 5129000C 		e_lwz %r9,12(%r9)
 181 0018 1829A800 		e_cmpi %cr1,%r9,0
 182 001c 7A160006 		e_beq %cr1,.L11
 183              	.L9:
 184 0020 0004     		se_blr
 185              	.L11:
 186              		.loc 1 127 0
 187 0022 4C83     		se_li %r3,72
 188              	.LVL5:
 189 0024 4804     		se_li %r4,0
 190              		.loc 1 131 0
 191              		.loc 1 127 0
 192 0026 78000000 		e_b halSPCSetPeripheralClockMode
 193              	.LVL6:
 194              		.cfi_endproc
 195              	.LFE49:
 196              		.size	pwm_deactive_emios0_clock, .-pwm_deactive_emios0_clock
 197              		.section	.bss.emios0_active_channels,"aw",@nobits
 198              		.align 2
 199              		.set	.LANCHOR0,. + 0
 200              		.type	emios0_active_channels, @object
 201              		.size	emios0_active_channels, 4
 202              	emios0_active_channels:
 203 0000 00000000 		.zero	4
 204              		.section	".text","axv"
 205              	.Letext0:
 206              		.file 2 "c:\\spc5studio\\eclipse\\plugins\\com.st.tools.spc5.tools.gnu.gcc.ppcvle.win32_1.0.0.2016
 207              		.file 3 "c:\\spc5studio\\eclipse\\plugins\\com.st.tools.spc5.tools.gnu.gcc.ppcvle.win32_1.0.0.2016
 208              		.file 4 "./components/chibios_rt_spc560dxx_kernel_port_component/lib/include/chtypes.h"
 209              		.file 5 "./components/chibios_rt_portable_kernel_component/lib/include/chvt.h"
 210              		.file 6 "./components/spc560dxx_hal_drivers_component/lib/include/xpc560d.h"
 211              		.file 7 "./components/portable_spc5_hal_component/lib/include/pwm.h"
 212              		.file 8 "./components/spc560dxx_hal_drivers_component/lib/include/pwm_lld.h"
 213              		.file 9 "./components/spc560dxx_hal_drivers_component/lib/include/hal_lld.h"